

Microchip MPLAB XC8 Assembler V2.40 build 20220703182018 
                                                                                               Tue Jun 13 04:19:35 2023

Microchip MPLAB XC8 C Compiler v2.40 (Free license) build 20220703182018 Og1 
     1                           	processor	18F4620
     2                           	fnconf	rparam,??,?,0
     3                           	pagewidth 120
     4                           	opt	flic
     5                           	psect	idataCOMRAM,global,class=CODE,delta=1,noexec
     6                           	psect	idataBANK0,global,class=CODE,delta=1,noexec
     7                           	psect	mediumconst,global,reloc=2,class=MEDIUMCONST,delta=1,noexec
     8                           	psect	cinit,global,reloc=2,class=CODE,delta=1
     9                           	psect	bssCOMRAM,global,class=COMRAM,space=1,delta=1,lowdata,noexec
    10                           	psect	dataCOMRAM,global,class=COMRAM,space=1,delta=1,lowdata,noexec
    11                           	psect	bssBANK0,global,class=BANK0,space=1,delta=1,lowdata,noexec
    12                           	psect	dataBANK0,global,class=BANK0,space=1,delta=1,lowdata,noexec
    13                           	psect	cstackBANK0,global,class=BANK0,space=1,delta=1,lowdata,noexec
    14                           	psect	cstackCOMRAM,global,class=COMRAM,space=1,delta=1,lowdata,noexec
    15                           	psect	text0,global,reloc=2,class=CODE,delta=1
    16                           	psect	text1,global,reloc=2,class=CODE,delta=1
    17                           	psect	text2,global,reloc=2,class=CODE,delta=1
    18                           	psect	text3,global,reloc=2,class=CODE,delta=1
    19                           	psect	text4,global,reloc=2,class=CODE,delta=1
    20                           	psect	text5,global,reloc=2,class=CODE,delta=1
    21                           	psect	text6,global,reloc=2,class=CODE,delta=1
    22                           	psect	text7,global,reloc=2,class=CODE,delta=1
    23                           	psect	text8,global,reloc=2,class=CODE,delta=1
    24                           	psect	text9,global,reloc=2,class=CODE,delta=1
    25                           	psect	text10,global,reloc=2,class=CODE,delta=1
    26                           	psect	text11,global,reloc=2,class=CODE,delta=1
    27                           	psect	text12,global,reloc=2,class=CODE,delta=1
    28                           	psect	text13,global,reloc=2,class=CODE,delta=1
    29                           	psect	text14,global,reloc=2,class=CODE,delta=1,inline
    30                           	psect	text15,global,reloc=2,class=CODE,delta=1,inline
    31                           	psect	text16,global,reloc=2,class=CODE,delta=1,inline
    32                           	psect	text17,global,reloc=2,class=CODE,delta=1
    33                           	psect	text18,global,reloc=2,class=CODE,delta=1
    34                           	psect	text19,global,reloc=2,class=CODE,delta=1
    35                           	psect	text20,global,reloc=2,class=CODE,delta=1
    36                           	psect	text21,global,reloc=2,class=CODE,delta=1
    37                           	psect	text22,global,reloc=2,class=CODE,delta=1
    38                           	psect	text23,global,reloc=2,class=CODE,delta=1
    39                           	psect	text24,global,reloc=2,class=CODE,delta=1
    40                           	psect	text25,global,reloc=2,class=CODE,delta=1
    41                           	psect	text26,global,reloc=2,class=CODE,delta=1
    42                           	psect	text27,global,reloc=2,class=CODE,delta=1
    43                           	psect	text28,global,reloc=2,class=CODE,delta=1
    44                           	psect	text29,global,reloc=2,class=CODE,delta=1
    45                           	psect	text30,global,reloc=2,class=CODE,delta=1,inline
    46                           	psect	text31,global,reloc=2,class=CODE,delta=1,inline
    47                           	psect	text32,global,reloc=2,class=CODE,delta=1,inline
    48                           	psect	text33,global,reloc=2,class=CODE,delta=1
    49                           	psect	text34,global,reloc=2,class=CODE,delta=1
    50                           	psect	text35,global,reloc=2,class=CODE,delta=1,inline
    51                           	psect	text36,global,reloc=2,class=CODE,delta=1,inline
    52                           	psect	text37,global,reloc=2,class=CODE,delta=1,inline
    53                           	psect	text38,global,reloc=2,class=CODE,delta=1,inline
    54                           	psect	text39,global,reloc=2,class=CODE,delta=1,inline
    55                           	psect	text40,global,reloc=2,class=CODE,delta=1
    56                           	psect	text41,global,reloc=2,class=CODE,delta=1
    57                           	psect	text42,global,reloc=2,class=CODE,delta=1
    58                           	psect	intcode,global,reloc=2,class=CODE,delta=1
    59                           	psect	intcode_body,global,reloc=2,class=CODE,delta=1
    60                           	psect	text44,global,reloc=2,class=CODE,delta=1
    61                           	psect	text45,global,reloc=2,class=CODE,delta=1
    62                           	psect	text46,global,reloc=2,class=CODE,delta=1
    63                           	psect	text47,global,reloc=2,class=CODE,delta=1
    64                           	psect	text48,global,reloc=2,class=CODE,delta=1
    65                           	psect	intsave_regs,global,class=BIGRAM,space=1,delta=1,noexec
    66                           	psect	text49,global,reloc=2,class=CODE,delta=1
    67                           	psect	rparam,global,class=COMRAM,space=1,delta=1,noexec
    68                           	psect	temp,global,ovrld,common,class=COMRAM,space=1,delta=1
    69                           	psect	idloc,global,abs,ovrld,class=IDLOC,space=5,delta=1,noexec
    70                           	psect	config,global,abs,ovrld,class=CONFIG,space=4,delta=1,noexec
    71   000000                     
    72                           ; Version 2.40
    73                           ; Generated 17/11/2021 GMT
    74                           ; 
    75                           ; Copyright © 2021, Microchip Technology Inc. and its subsidiaries ("Microchip")
    76                           ; All rights reserved.
    77                           ; 
    78                           ; This software is developed by Microchip Technology Inc. and its subsidiaries ("Microch
      +                          ip").
    79                           ; 
    80                           ; Redistribution and use in source and binary forms, with or without modification, are
    81                           ; permitted provided that the following conditions are met:
    82                           ; 
    83                           ;     1. Redistributions of source code must retain the above copyright notice, this lis
      +                          t of
    84                           ;        conditions and the following disclaimer.
    85                           ; 
    86                           ;     2. Redistributions in binary form must reproduce the above copyright notice, this 
      +                          list
    87                           ;        of conditions and the following disclaimer in the documentation and/or other
    88                           ;        materials provided with the distribution. Publication is not required when
    89                           ;        this file is used in an embedded application.
    90                           ; 
    91                           ;     3. Microchip's name may not be used to endorse or promote products derived from th
      +                          is
    92                           ;        software without specific prior written permission.
    93                           ; 
    94                           ; THIS SOFTWARE IS PROVIDED BY MICROCHIP "AS IS" AND ANY EXPRESS OR IMPLIED WARRANTIES,
    95                           ; INCLUDING, BUT NOT LIMITED TO, THE IMPLIED WARRANTIES OF MERCHANTABILITY AND FITNESS F
      +                          OR
    96                           ; PURPOSE ARE DISCLAIMED.  IN NO EVENT SHALL MICROCHIP BE LIABLE FOR ANY DIRECT, INDIREC
      +                          T,
    97                           ; INCIDENTAL, SPECIAL, EXEMPLARY, OR CONSEQUENTIAL DAMAGES (INCLUDING BUT NOT LIMITED TO
    98                           ; PROCUREMENT OF SUBSTITUTE GOODS OR SERVICES; LOSS OF USE, DATA OR PROFITS; OR BUSINESS
    99                           ; INTERRUPTION) HOWSOEVER CAUSED AND ON ANY THEORY OF LIABILITY, WHETHER IN CONTRACT, ST
      +                          RICT
   100                           ; LIABILITY, OR TORT (INCLUDING NEGLIGENCE OR OTHERWISE) ARISING IN ANY WAY OUT OF THE U
      +                          SE OF
   101                           ; THIS SOFTWARE, EVEN IF ADVISED OF THE POSSIBILITY OF SUCH DAMAGE.
   102                           ; 
   103                           ; 
   104                           ; Code-generator required, PIC18F4620 Definitions
   105                           ; 
   106                           ; SFR Addresses
   107   000000                     
   108                           	psect	idataCOMRAM
   109   002A2A                     __pidataCOMRAM:
   110                           	callstack 0
   111                           
   112                           ;initializer for _lat_registers
   113   002A2A  89                 	db	137
   114   002A2B  0F                 	db	15
   115   002A2C  8A                 	db	138
   116   002A2D  0F                 	db	15
   117   002A2E  8B                 	db	139
   118   002A2F  0F                 	db	15
   119   002A30  8C                 	db	140
   120   002A31  0F                 	db	15
   121   002A32  8D                 	db	141
   122   002A33  0F                 	db	15
   123                           
   124                           ;initializer for SPI_Select_mode_and_pin_initialize@F3118
   125   002A34  68                 	db	104
   126                           
   127                           ;initializer for SPI_Select_mode_and_pin_initialize@F3116
   128   002A35  5A                 	db	90
   129                           
   130                           ;initializer for SPI_Select_mode_and_pin_initialize@F3114
   131   002A36  62                 	db	98
   132                           
   133                           ;initializer for SPI_Select_mode_and_pin_initialize@F3112
   134   002A37  2A                 	db	42
   135                           
   136                           ;initializer for SPI_Select_mode_and_pin_initialize@F3110
   137   002A38  1A                 	db	26
   138                           
   139                           ;initializer for SPI_Select_mode_and_pin_initialize@F3108
   140   002A39  62                 	db	98
   141                           
   142                           ;initializer for SPI_Select_mode_and_pin_initialize@F3106
   143   002A3A  2A                 	db	42
   144                           
   145                           ;initializer for _Keypad_Obj
   146   002A3B  00                 	db	0
   147   002A3C  08                 	db	8
   148   002A3D  10                 	db	16
   149   002A3E  18                 	db	24
   150   002A3F  60                 	db	96
   151   002A40  68                 	db	104
   152   002A41  70                 	db	112
   153   002A42  78                 	db	120
   154                           
   155                           ;initializer for _Lcd_Obj
   156   002A43  2B                 	db	43
   157   002A44  23                 	db	35
   158   002A45  03                 	db	3
   159   002A46  0B                 	db	11
   160   002A47  13                 	db	19
   161   002A48  1B                 	db	27
   162                           
   163                           ;initializer for _TimerDelay
   164   002A49  CE                 	db	low _Timer0Interrupt
   165   002A4A  2A                 	db	high _Timer0Interrupt
   166   002A4B  00                 	db	0
   167   002A4C  FF9C               	dw	65436
   168   002A4E  0A                 	db	10
   169                           
   170                           ;initializer for _Timer1Obj
   171   002A4F  C8                 	db	low _Timer1Handler
   172   002A50  2A                 	db	high _Timer1Handler
   173   002A51  B1E0               	dw	45536
   174   002A53  20                 	db	32
   175                           
   176                           ;initializer for _PIN_SelectChannel
   177   002A54  82                 	db	130
   178                           
   179                           ;initializer for _BLOCK_Led
   180   002A55  21                 	db	33
   181                           
   182                           ;initializer for _GUEST_Led
   183   002A56  11                 	db	17
   184                           
   185                           ;initializer for _ADMIN_Led
   186   002A57  01                 	db	1
   187                           
   188                           	psect	idataBANK0
   189   002A58                     __pidataBANK0:
   190                           	callstack 0
   191                           
   192                           ;initializer for _port_registers
   193   002A58  80                 	db	128
   194   002A59  0F                 	db	15
   195   002A5A  81                 	db	129
   196   002A5B  0F                 	db	15
   197   002A5C  82                 	db	130
   198   002A5D  0F                 	db	15
   199   002A5E  83                 	db	131
   200   002A5F  0F                 	db	15
   201   002A60  84                 	db	132
   202   002A61  0F                 	db	15
   203                           
   204                           ;initializer for _tris_registers
   205   002A62  92                 	db	146
   206   002A63  0F                 	db	15
   207   002A64  93                 	db	147
   208   002A65  0F                 	db	15
   209   002A66  94                 	db	148
   210   002A67  0F                 	db	15
   211   002A68  95                 	db	149
   212   002A69  0F                 	db	15
   213   002A6A  96                 	db	150
   214   002A6B  0F                 	db	15
   215                           
   216                           ;initializer for main@F3279
   217   002A6C  FF                 	db	255
   218   002A6D  FF                 	db	255
   219   002A6E  FF                 	db	255
   220   002A6F  FF                 	db	255
   221                           
   222                           ;initializer for main@F3277
   223   002A70  FF                 	db	255
   224   002A71  FF                 	db	255
   225   002A72  FF                 	db	255
   226   002A73  FF                 	db	255
   227                           
   228                           ;initializer for main@F3273
   229   002A74  FF                 	db	255
   230   002A75  FF                 	db	255
   231   002A76  FF                 	db	255
   232   002A77  FF                 	db	255
   233                           
   234                           	psect	mediumconst
   235   00FE04                     __pmediumconst:
   236                           	callstack 0
   237   00FE04  00                 	db	0
   238   00FE05                     _btn_keypad_values:
   239                           	callstack 0
   240   00FE05  37                 	db	55
   241   00FE06  38                 	db	56
   242   00FE07  39                 	db	57
   243   00FE08  2F                 	db	47
   244   00FE09  34                 	db	52
   245   00FE0A  35                 	db	53
   246   00FE0B  36                 	db	54
   247   00FE0C  2A                 	db	42
   248   00FE0D  31                 	db	49
   249   00FE0E  32                 	db	50
   250   00FE0F  33                 	db	51
   251   00FE10  2D                 	db	45
   252   00FE11  23                 	db	35
   253   00FE12  30                 	db	48
   254   00FE13  3D                 	db	61
   255   00FE14  2B                 	db	43
   256   00FE15                     __end_of_btn_keypad_values:
   257                           	callstack 0
   258   000000                     _TMR1L	set	4046
   259   000000                     _TMR1H	set	4047
   260   000000                     _TMR0L	set	4054
   261   000000                     _TMR0H	set	4055
   262   000000                     _EECON2	set	4007
   263   000000                     _EECON1bits	set	4006
   264   000000                     _EEDATA	set	4008
   265   000000                     _EEADR	set	4009
   266   000000                     _EEADRH	set	4010
   267   000000                     _INTCONbits	set	4082
   268   000000                     _PORTE	set	3972
   269   000000                     _PORTD	set	3971
   270   000000                     _PORTC	set	3970
   271   000000                     _PORTB	set	3969
   272   000000                     _PORTA	set	3968
   273   000000                     _LATA	set	3977
   274   000000                     _TRISA	set	3986
   275   000000                     _ADCON1bits	set	4033
   276   000000                     _SSPCON1bits	set	4038
   277   000000                     _PIE1bits	set	3997
   278   000000                     _TRISE	set	3990
   279   000000                     _TRISD	set	3989
   280   000000                     _TRISC	set	3988
   281   000000                     _TRISB	set	3987
   282   000000                     _LATE	set	3981
   283   000000                     _LATD	set	3980
   284   000000                     _LATC	set	3979
   285   000000                     _LATB	set	3978
   286   000000                     _PIR1bits	set	3998
   287   000000                     _SSPSTATbits	set	4039
   288   000000                     _SSPBUF	set	4041
   289   000000                     _T1CONbits	set	4045
   290   000000                     _T0CONbits	set	4053
   291   00FE15                     STR_39:
   292   00FE15  31                 	db	49	;'1'
   293   00FE16  3A                 	db	58	;':'
   294   00FE17  53                 	db	83	;'S'
   295   00FE18  65                 	db	101	;'e'
   296   00FE19  74                 	db	116	;'t'
   297   00FE1A  20                 	db	32
   298   00FE1B  54                 	db	84	;'T'
   299   00FE1C  65                 	db	101	;'e'
   300   00FE1D  6D                 	db	109	;'m'
   301   00FE1E  70                 	db	112	;'p'
   302   00FE1F  65                 	db	101	;'e'
   303   00FE20  72                 	db	114	;'r'
   304   00FE21  61                 	db	97	;'a'
   305   00FE22  74                 	db	116	;'t'
   306   00FE23  75                 	db	117	;'u'
   307   00FE24  72                 	db	114	;'r'
   308   00FE25  65                 	db	101	;'e'
   309   00FE26  00                 	db	0
   310   00FE27                     STR_54:
   311   00FE27  31                 	db	49	;'1'
   312   00FE28  2D                 	db	45
   313   00FE29  4F                 	db	79	;'O'
   314   00FE2A  4E                 	db	78	;'N'
   315   00FE2B  20                 	db	32
   316   00FE2C  32                 	db	50	;'2'
   317   00FE2D  2D                 	db	45
   318   00FE2E  4F                 	db	79	;'O'
   319   00FE2F  46                 	db	70	;'F'
   320   00FE30  46                 	db	70	;'F'
   321   00FE31  20                 	db	32
   322   00FE32  30                 	db	48	;'0'
   323   00FE33  2D                 	db	45
   324   00FE34  52                 	db	82	;'R'
   325   00FE35  45                 	db	69	;'E'
   326   00FE36  54                 	db	84	;'T'
   327   00FE37  00                 	db	0
   328   00FE38                     STR_45:
   329   00FE38  54                 	db	84	;'T'
   330   00FE39  65                 	db	101	;'e'
   331   00FE3A  6D                 	db	109	;'m'
   332   00FE3B  70                 	db	112	;'p'
   333   00FE3C  65                 	db	101	;'e'
   334   00FE3D  72                 	db	114	;'r'
   335   00FE3E  61                 	db	97	;'a'
   336   00FE3F  74                 	db	116	;'t'
   337   00FE40  75                 	db	117	;'u'
   338   00FE41  72                 	db	114	;'r'
   339   00FE42  65                 	db	101	;'e'
   340   00FE43  20                 	db	32
   341   00FE44  53                 	db	83	;'S'
   342   00FE45  65                 	db	101	;'e'
   343   00FE46  6E                 	db	110	;'n'
   344   00FE47  74                 	db	116	;'t'
   345   00FE48  00                 	db	0
   346   00FE49                     STR_4:
   347   00FE49  57                 	db	87	;'W'
   348   00FE4A  65                 	db	101	;'e'
   349   00FE4B  6C                 	db	108	;'l'
   350   00FE4C  63                 	db	99	;'c'
   351   00FE4D  6F                 	db	111	;'o'
   352   00FE4E  6D                 	db	109	;'m'
   353   00FE4F  65                 	db	101	;'e'
   354   00FE50  20                 	db	32
   355   00FE51  74                 	db	116	;'t'
   356   00FE52  6F                 	db	111	;'o'
   357   00FE53  20                 	db	32
   358   00FE54  53                 	db	83	;'S'
   359   00FE55  6D                 	db	109	;'m'
   360   00FE56  61                 	db	97	;'a'
   361   00FE57  72                 	db	114	;'r'
   362   00FE58  74                 	db	116	;'t'
   363   00FE59  00                 	db	0
   364   00FE5A                     STR_18:
   365   00FE5A  30                 	db	48	;'0'
   366   00FE5B  3A                 	db	58	;':'
   367   00FE5C  41                 	db	65	;'A'
   368   00FE5D  64                 	db	100	;'d'
   369   00FE5E  6D                 	db	109	;'m'
   370   00FE5F  69                 	db	105	;'i'
   371   00FE60  6E                 	db	110	;'n'
   372   00FE61  20                 	db	32
   373   00FE62  20                 	db	32
   374   00FE63  31                 	db	49	;'1'
   375   00FE64  3A                 	db	58	;':'
   376   00FE65  47                 	db	71	;'G'
   377   00FE66  75                 	db	117	;'u'
   378   00FE67  65                 	db	101	;'e'
   379   00FE68  73                 	db	115	;'s'
   380   00FE69  74                 	db	116	;'t'
   381   00FE6A  00                 	db	0
   382   00FE6B                     STR_8:
   383   00FE6B  53                 	db	83	;'S'
   384   00FE6C  65                 	db	101	;'e'
   385   00FE6D  74                 	db	116	;'t'
   386   00FE6E  20                 	db	32
   387   00FE6F  41                 	db	65	;'A'
   388   00FE70  64                 	db	100	;'d'
   389   00FE71  6D                 	db	109	;'m'
   390   00FE72  69                 	db	105	;'i'
   391   00FE73  6E                 	db	110	;'n'
   392   00FE74  20                 	db	32
   393   00FE75  50                 	db	80	;'P'
   394   00FE76  61                 	db	97	;'a'
   395   00FE77  73                 	db	115	;'s'
   396   00FE78  73                 	db	115	;'s'
   397   00FE79  20                 	db	32
   398   00FE7A  00                 	db	0
   399   00FE7B                     STR_11:
   400   00FE7B  53                 	db	83	;'S'
   401   00FE7C  65                 	db	101	;'e'
   402   00FE7D  74                 	db	116	;'t'
   403   00FE7E  20                 	db	32
   404   00FE7F  47                 	db	71	;'G'
   405   00FE80  75                 	db	117	;'u'
   406   00FE81  65                 	db	101	;'e'
   407   00FE82  73                 	db	115	;'s'
   408   00FE83  74                 	db	116	;'t'
   409   00FE84  20                 	db	32
   410   00FE85  50                 	db	80	;'P'
   411   00FE86  61                 	db	97	;'a'
   412   00FE87  73                 	db	115	;'s'
   413   00FE88  73                 	db	115	;'s'
   414   00FE89  20                 	db	32
   415   00FE8A  00                 	db	0
   416   00FE8B                     STR_32:
   417   00FE8B  31                 	db	49	;'1'
   418   00FE8C  3A                 	db	58	;':'
   419   00FE8D  52                 	db	82	;'R'
   420   00FE8E  6F                 	db	111	;'o'
   421   00FE8F  6F                 	db	111	;'o'
   422   00FE90  6D                 	db	109	;'m'
   423   00FE91  31                 	db	49	;'1'
   424   00FE92  20                 	db	32
   425   00FE93  32                 	db	50	;'2'
   426   00FE94  3A                 	db	58	;':'
   427   00FE95  52                 	db	82	;'R'
   428   00FE96  6F                 	db	111	;'o'
   429   00FE97  6F                 	db	111	;'o'
   430   00FE98  6D                 	db	109	;'m'
   431   00FE99  32                 	db	50	;'2'
   432   00FE9A  00                 	db	0
   433   00FE9B                     STR_34:
   434   00FE9B  33                 	db	51	;'3'
   435   00FE9C  3A                 	db	58	;':'
   436   00FE9D  52                 	db	82	;'R'
   437   00FE9E  6F                 	db	111	;'o'
   438   00FE9F  6F                 	db	111	;'o'
   439   00FEA0  6D                 	db	109	;'m'
   440   00FEA1  33                 	db	51	;'3'
   441   00FEA2  20                 	db	32
   442   00FEA3  34                 	db	52	;'4'
   443   00FEA4  3A                 	db	58	;':'
   444   00FEA5  52                 	db	82	;'R'
   445   00FEA6  6F                 	db	111	;'o'
   446   00FEA7  6F                 	db	111	;'o'
   447   00FEA8  6D                 	db	109	;'m'
   448   00FEA9  34                 	db	52	;'4'
   449   00FEAA  00                 	db	0
   450   00FEAB                     STR_40:
   451   00FEAB  32                 	db	50	;'2'
   452   00FEAC  3A                 	db	58	;':'
   453   00FEAD  43                 	db	67	;'C'
   454   00FEAE  6F                 	db	111	;'o'
   455   00FEAF  6E                 	db	110	;'n'
   456   00FEB0  74                 	db	116	;'t'
   457   00FEB1  72                 	db	114	;'r'
   458   00FEB2  6F                 	db	111	;'o'
   459   00FEB3  6C                 	db	108	;'l'
   460   00FEB4  20                 	db	32
   461   00FEB5  30                 	db	48	;'0'
   462   00FEB6  3A                 	db	58	;':'
   463   00FEB7  52                 	db	82	;'R'
   464   00FEB8  45                 	db	69	;'E'
   465   00FEB9  54                 	db	84	;'T'
   466   00FEBA  00                 	db	0
   467   00FEBB                     STR_37:
   468   00FEBB  33                 	db	51	;'3'
   469   00FEBC  3A                 	db	58	;':'
   470   00FEBD  41                 	db	65	;'A'
   471   00FEBE  69                 	db	105	;'i'
   472   00FEBF  72                 	db	114	;'r'
   473   00FEC0  43                 	db	67	;'C'
   474   00FEC1  6F                 	db	111	;'o'
   475   00FEC2  6E                 	db	110	;'n'
   476   00FEC3  64                 	db	100	;'d'
   477   00FEC4  20                 	db	32
   478   00FEC5  34                 	db	52	;'4'
   479   00FEC6  3A                 	db	58	;':'
   480   00FEC7  52                 	db	82	;'R'
   481   00FEC8  45                 	db	69	;'E'
   482   00FEC9  54                 	db	84	;'T'
   483   00FECA  00                 	db	0
   484   00FECB                     STR_16:
   485   00FECB  57                 	db	87	;'W'
   486   00FECC  61                 	db	97	;'a'
   487   00FECD  69                 	db	105	;'i'
   488   00FECE  74                 	db	116	;'t'
   489   00FECF  20                 	db	32
   490   00FED0  32                 	db	50	;'2'
   491   00FED1  30                 	db	48	;'0'
   492   00FED2  20                 	db	32
   493   00FED3  53                 	db	83	;'S'
   494   00FED4  65                 	db	101	;'e'
   495   00FED5  63                 	db	99	;'c'
   496   00FED6  6F                 	db	111	;'o'
   497   00FED7  6E                 	db	110	;'n'
   498   00FED8  64                 	db	100	;'d'
   499   00FED9  73                 	db	115	;'s'
   500   00FEDA  00                 	db	0
   501   00FEDB                     STR_14:
   502   00FEDB  53                 	db	83	;'S'
   503   00FEDC  65                 	db	101	;'e'
   504   00FEDD  73                 	db	115	;'s'
   505   00FEDE  73                 	db	115	;'s'
   506   00FEDF  69                 	db	105	;'i'
   507   00FEE0  6F                 	db	111	;'o'
   508   00FEE1  6E                 	db	110	;'n'
   509   00FEE2  20                 	db	32
   510   00FEE3  54                 	db	84	;'T'
   511   00FEE4  69                 	db	105	;'i'
   512   00FEE5  6D                 	db	109	;'m'
   513   00FEE6  65                 	db	101	;'e'
   514   00FEE7  6F                 	db	111	;'o'
   515   00FEE8  75                 	db	117	;'u'
   516   00FEE9  74                 	db	116	;'t'
   517   00FEEA  00                 	db	0
   518   00FEEB                     STR_33:
   519   00FEEB  33                 	db	51	;'3'
   520   00FEEC  3A                 	db	58	;':'
   521   00FEED  52                 	db	82	;'R'
   522   00FEEE  6F                 	db	111	;'o'
   523   00FEEF  6F                 	db	111	;'o'
   524   00FEF0  6D                 	db	109	;'m'
   525   00FEF1  33                 	db	51	;'3'
   526   00FEF2  20                 	db	32
   527   00FEF3  34                 	db	52	;'4'
   528   00FEF4  3A                 	db	58	;':'
   529   00FEF5  4D                 	db	77	;'M'
   530   00FEF6  6F                 	db	111	;'o'
   531   00FEF7  72                 	db	114	;'r'
   532   00FEF8  65                 	db	101	;'e'
   533   00FEF9  00                 	db	0
   534   00FEFA                     STR_17:
   535   00FEFA  53                 	db	83	;'S'
   536   00FEFB  65                 	db	101	;'e'
   537   00FEFC  6C                 	db	108	;'l'
   538   00FEFD  65                 	db	101	;'e'
   539   00FEFE  63                 	db	99	;'c'
   540   00FEFF  74                 	db	116	;'t'
   541   00FF00  20                 	db	32
   542   00FF01  4D                 	db	77	;'M'
   543   00FF02  6F                 	db	111	;'o'
   544   00FF03  64                 	db	100	;'d'
   545   00FF04  65                 	db	101	;'e'
   546   00FF05  20                 	db	32
   547   00FF06  3A                 	db	58	;':'
   548   00FF07  00                 	db	0
   549   00FF08                     STR_15:
   550   00FF08  4C                 	db	76	;'L'
   551   00FF09  6F                 	db	111	;'o'
   552   00FF0A  67                 	db	103	;'g'
   553   00FF0B  69                 	db	105	;'i'
   554   00FF0C  6E                 	db	110	;'n'
   555   00FF0D  20                 	db	32
   556   00FF0E  42                 	db	66	;'B'
   557   00FF0F  6C                 	db	108	;'l'
   558   00FF10  6F                 	db	111	;'o'
   559   00FF11  63                 	db	99	;'c'
   560   00FF12  6B                 	db	107	;'k'
   561   00FF13  65                 	db	101	;'e'
   562   00FF14  64                 	db	100	;'d'
   563   00FF15  00                 	db	0
   564   00FF16                     STR_6:
   565   00FF16  4C                 	db	76	;'L'
   566   00FF17  6F                 	db	111	;'o'
   567   00FF18  67                 	db	103	;'g'
   568   00FF19  69                 	db	105	;'i'
   569   00FF1A  6E                 	db	110	;'n'
   570   00FF1B  20                 	db	32
   571   00FF1C  46                 	db	70	;'F'
   572   00FF1D  6F                 	db	111	;'o'
   573   00FF1E  72                 	db	114	;'r'
   574   00FF1F  20                 	db	32
   575   00FF20  54                 	db	84	;'T'
   576   00FF21  68                 	db	104	;'h'
   577   00FF22  65                 	db	101	;'e'
   578   00FF23  00                 	db	0
   579   00FF24                     STR_51:
   580   00FF24  41                 	db	65	;'A'
   581   00FF25  49                 	db	73	;'I'
   582   00FF26  52                 	db	82	;'R'
   583   00FF27  20                 	db	32
   584   00FF28  43                 	db	67	;'C'
   585   00FF29  4F                 	db	79	;'O'
   586   00FF2A  4E                 	db	78	;'N'
   587   00FF2B  44                 	db	68	;'D'
   588   00FF2C  2E                 	db	46
   589   00FF2D  20                 	db	32
   590   00FF2E  53                 	db	83	;'S'
   591   00FF2F  3A                 	db	58	;':'
   592   00FF30  00                 	db	0
   593   00FF31                     STR_36:
   594   00FF31  31                 	db	49	;'1'
   595   00FF32  3A                 	db	58	;':'
   596   00FF33  52                 	db	82	;'R'
   597   00FF34  6F                 	db	111	;'o'
   598   00FF35  6F                 	db	111	;'o'
   599   00FF36  6D                 	db	109	;'m'
   600   00FF37  34                 	db	52	;'4'
   601   00FF38  20                 	db	32
   602   00FF39  32                 	db	50	;'2'
   603   00FF3A  3A                 	db	58	;':'
   604   00FF3B  54                 	db	84	;'T'
   605   00FF3C  56                 	db	86	;'V'
   606   00FF3D  00                 	db	0
   607   00FF3E                     STR_42:
   608   00FF3E  53                 	db	83	;'S'
   609   00FF3F  65                 	db	101	;'e'
   610   00FF40  74                 	db	116	;'t'
   611   00FF41  20                 	db	32
   612   00FF42  54                 	db	84	;'T'
   613   00FF43  65                 	db	101	;'e'
   614   00FF44  6D                 	db	109	;'m'
   615   00FF45  70                 	db	112	;'p'
   616   00FF46  2E                 	db	46
   617   00FF47  3A                 	db	58	;':'
   618   00FF48  5F                 	db	95	;'_'
   619   00FF49  5F                 	db	95	;'_'
   620   00FF4A  00                 	db	0
   621   00FF4B                     STR_22:
   622   00FF4B  43                 	db	67	;'C'
   623   00FF4C  6F                 	db	111	;'o'
   624   00FF4D  72                 	db	114	;'r'
   625   00FF4E  72                 	db	114	;'r'
   626   00FF4F  65                 	db	101	;'e'
   627   00FF50  63                 	db	99	;'c'
   628   00FF51  74                 	db	116	;'t'
   629   00FF52  20                 	db	32
   630   00FF53  50                 	db	80	;'P'
   631   00FF54  61                 	db	97	;'a'
   632   00FF55  73                 	db	115	;'s'
   633   00FF56  73                 	db	115	;'s'
   634   00FF57  00                 	db	0
   635   00FF58                     STR_9:
   636   00FF58  41                 	db	65	;'A'
   637   00FF59  64                 	db	100	;'d'
   638   00FF5A  6D                 	db	109	;'m'
   639   00FF5B  69                 	db	105	;'i'
   640   00FF5C  6E                 	db	110	;'n'
   641   00FF5D  20                 	db	32
   642   00FF5E  50                 	db	80	;'P'
   643   00FF5F  61                 	db	97	;'a'
   644   00FF60  73                 	db	115	;'s'
   645   00FF61  73                 	db	115	;'s'
   646   00FF62  3A                 	db	58	;':'
   647   00FF63  00                 	db	0
   648   00FF64                     STR_12:
   649   00FF64  47                 	db	71	;'G'
   650   00FF65  75                 	db	117	;'u'
   651   00FF66  65                 	db	101	;'e'
   652   00FF67  73                 	db	115	;'s'
   653   00FF68  74                 	db	116	;'t'
   654   00FF69  20                 	db	32
   655   00FF6A  50                 	db	80	;'P'
   656   00FF6B  61                 	db	97	;'a'
   657   00FF6C  73                 	db	115	;'s'
   658   00FF6D  73                 	db	115	;'s'
   659   00FF6E  3A                 	db	58	;':'
   660   00FF6F  00                 	db	0
   661   00FF70                     STR_5:
   662   00FF70  48                 	db	72	;'H'
   663   00FF71  6F                 	db	111	;'o'
   664   00FF72  6D                 	db	109	;'m'
   665   00FF73  65                 	db	101	;'e'
   666   00FF74  20                 	db	32
   667   00FF75  53                 	db	83	;'S'
   668   00FF76  79                 	db	121	;'y'
   669   00FF77  73                 	db	115	;'s'
   670   00FF78  74                 	db	116	;'t'
   671   00FF79  65                 	db	101	;'e'
   672   00FF7A  6D                 	db	109	;'m'
   673   00FF7B  00                 	db	0
   674   00FF7C                     STR_19:
   675   00FF7C  57                 	db	87	;'W'
   676   00FF7D  72                 	db	114	;'r'
   677   00FF7E  6F                 	db	111	;'o'
   678   00FF7F  6E                 	db	110	;'n'
   679   00FF80  67                 	db	103	;'g'
   680   00FF81  20                 	db	32
   681   00FF82  49                 	db	73	;'I'
   682   00FF83  6E                 	db	110	;'n'
   683   00FF84  70                 	db	112	;'p'
   684   00FF85  75                 	db	117	;'u'
   685   00FF86  74                 	db	116	;'t'
   686   00FF87  00                 	db	0
   687   00FF88                     STR_10:
   688   00FF88  50                 	db	80	;'P'
   689   00FF89  61                 	db	97	;'a'
   690   00FF8A  73                 	db	115	;'s'
   691   00FF8B  73                 	db	115	;'s'
   692   00FF8C  20                 	db	32
   693   00FF8D  53                 	db	83	;'S'
   694   00FF8E  61                 	db	97	;'a'
   695   00FF8F  76                 	db	118	;'v'
   696   00FF90  65                 	db	101	;'e'
   697   00FF91  64                 	db	100	;'d'
   698   00FF92  00                 	db	0
   699   00FF93                     STR_20:
   700   00FF93  41                 	db	65	;'A'
   701   00FF94  64                 	db	100	;'d'
   702   00FF95  6D                 	db	109	;'m'
   703   00FF96  69                 	db	105	;'i'
   704   00FF97  6E                 	db	110	;'n'
   705   00FF98  20                 	db	32
   706   00FF99  4D                 	db	77	;'M'
   707   00FF9A  6F                 	db	111	;'o'
   708   00FF9B  64                 	db	100	;'d'
   709   00FF9C  65                 	db	101	;'e'
   710   00FF9D  00                 	db	0
   711   00FF9E                     STR_26:
   712   00FF9E  47                 	db	71	;'G'
   713   00FF9F  75                 	db	117	;'u'
   714   00FFA0  65                 	db	101	;'e'
   715   00FFA1  73                 	db	115	;'s'
   716   00FFA2  74                 	db	116	;'t'
   717   00FFA3  20                 	db	32
   718   00FFA4  4D                 	db	77	;'M'
   719   00FFA5  6F                 	db	111	;'o'
   720   00FFA6  64                 	db	100	;'d'
   721   00FFA7  65                 	db	101	;'e'
   722   00FFA8  00                 	db	0
   723   00FFA9                     STR_7:
   724   00FFA9  46                 	db	70	;'F'
   725   00FFAA  69                 	db	105	;'i'
   726   00FFAB  72                 	db	114	;'r'
   727   00FFAC  73                 	db	115	;'s'
   728   00FFAD  74                 	db	116	;'t'
   729   00FFAE  20                 	db	32
   730   00FFAF  54                 	db	84	;'T'
   731   00FFB0  69                 	db	105	;'i'
   732   00FFB1  6D                 	db	109	;'m'
   733   00FFB2  65                 	db	101	;'e'
   734   00FFB3  00                 	db	0
   735   00FFB4                     STR_24:
   736   00FFB4  57                 	db	87	;'W'
   737   00FFB5  72                 	db	114	;'r'
   738   00FFB6  6F                 	db	111	;'o'
   739   00FFB7  6E                 	db	110	;'n'
   740   00FFB8  67                 	db	103	;'g'
   741   00FFB9  20                 	db	32
   742   00FFBA  50                 	db	80	;'P'
   743   00FFBB  61                 	db	97	;'a'
   744   00FFBC  73                 	db	115	;'s'
   745   00FFBD  73                 	db	115	;'s'
   746   00FFBE  00                 	db	0
   747   00FFBF                     STR_25:
   748   00FFBF  54                 	db	84	;'T'
   749   00FFC0  72                 	db	114	;'r'
   750   00FFC1  69                 	db	105	;'i'
   751   00FFC2  65                 	db	101	;'e'
   752   00FFC3  73                 	db	115	;'s'
   753   00FFC4  20                 	db	32
   754   00FFC5  4C                 	db	76	;'L'
   755   00FFC6  65                 	db	101	;'e'
   756   00FFC7  66                 	db	102	;'f'
   757   00FFC8  74                 	db	116	;'t'
   758   00FFC9  00                 	db	0
   759   00FFCA                     STR_46:
   760   00FFCA  52                 	db	82	;'R'
   761   00FFCB  6F                 	db	111	;'o'
   762   00FFCC  6F                 	db	111	;'o'
   763   00FFCD  6D                 	db	109	;'m'
   764   00FFCE  31                 	db	49	;'1'
   765   00FFCF  20                 	db	32
   766   00FFD0  53                 	db	83	;'S'
   767   00FFD1  3A                 	db	58	;':'
   768   00FFD2  00                 	db	0
   769   00FFD3                     STR_47:
   770   00FFD3  52                 	db	82	;'R'
   771   00FFD4  6F                 	db	111	;'o'
   772   00FFD5  6F                 	db	111	;'o'
   773   00FFD6  6D                 	db	109	;'m'
   774   00FFD7  32                 	db	50	;'2'
   775   00FFD8  20                 	db	32
   776   00FFD9  53                 	db	83	;'S'
   777   00FFDA  3A                 	db	58	;':'
   778   00FFDB  00                 	db	0
   779   00FFDC                     STR_48:
   780   00FFDC  52                 	db	82	;'R'
   781   00FFDD  6F                 	db	111	;'o'
   782   00FFDE  6F                 	db	111	;'o'
   783   00FFDF  6D                 	db	109	;'m'
   784   00FFE0  33                 	db	51	;'3'
   785   00FFE1  20                 	db	32
   786   00FFE2  53                 	db	83	;'S'
   787   00FFE3  3A                 	db	58	;':'
   788   00FFE4  00                 	db	0
   789   00FFE5                     STR_49:
   790   00FFE5  52                 	db	82	;'R'
   791   00FFE6  6F                 	db	111	;'o'
   792   00FFE7  6F                 	db	111	;'o'
   793   00FFE8  6D                 	db	109	;'m'
   794   00FFE9  34                 	db	52	;'4'
   795   00FFEA  20                 	db	32
   796   00FFEB  53                 	db	83	;'S'
   797   00FFEC  3A                 	db	58	;':'
   798   00FFED  00                 	db	0
   799   00FFEE                     STR_50:
   800   00FFEE  54                 	db	84	;'T'
   801   00FFEF  56                 	db	86	;'V'
   802   00FFF0  20                 	db	32
   803   00FFF1  53                 	db	83	;'S'
   804   00FFF2  3A                 	db	58	;':'
   805   00FFF3  00                 	db	0
   806   00FFF4                     STR_53:
   807   00FFF4  4F                 	db	79	;'O'
   808   00FFF5  46                 	db	70	;'F'
   809   00FFF6  46                 	db	70	;'F'
   810   00FFF7  00                 	db	0
   811   00FFF8                     STR_52:
   812   00FFF8  4F                 	db	79	;'O'
   813   00FFF9  4E                 	db	78	;'N'
   814   00FFFA  00                 	db	0
   815   00FFFB                     STR_1:
   816   00FFFB  25                 	db	37
   817   00FFFC  69                 	db	105	;'i'
   818   00FFFD  00                 	db	0
   819   00FFFE  00                 	db	0	; dummy byte at the end
   820   000000                     
   821                           ; #config settings
   822                           
   823                           	psect	cinit
   824   00240C                     __pcinit:
   825                           	callstack 0
   826   00240C                     start_initialization:
   827                           	callstack 0
   828   00240C                     __initialization:
   829                           	callstack 0
   830                           
   831                           ; Initialize objects allocated to BANK0 (32 bytes)
   832                           ; load TBLPTR registers with __pidataBANK0
   833   00240C  0E58               	movlw	low __pidataBANK0
   834   00240E  6EF6               	movwf	tblptrl,c
   835   002410  0E2A               	movlw	high __pidataBANK0
   836   002412  6EF7               	movwf	tblptrh,c
   837   002414  0E00               	movlw	low (__pidataBANK0 shr (0+16))
   838   002416  6EF8               	movwf	tblptru,c
   839   002418  EE00  F080         	lfsr	0,__pdataBANK0
   840   00241C  EE10 F020          	lfsr	1,32
   841   002420                     copy_data0:
   842   002420  0009               	tblrd		*+
   843   002422  CFF5 FFEE          	movff	tablat,postinc0
   844   002426  50E5               	movf	postdec1,w,c
   845   002428  50E1               	movf	fsr1l,w,c
   846   00242A  E1FA               	bnz	copy_data0
   847                           
   848                           ; Initialize objects allocated to COMRAM (46 bytes)
   849                           ; load TBLPTR registers with __pidataCOMRAM
   850   00242C  0E2A               	movlw	low __pidataCOMRAM
   851   00242E  6EF6               	movwf	tblptrl,c
   852   002430  0E2A               	movlw	high __pidataCOMRAM
   853   002432  6EF7               	movwf	tblptrh,c
   854   002434  0E00               	movlw	low (__pidataCOMRAM shr (0+16))
   855   002436  6EF8               	movwf	tblptru,c
   856   002438  EE00  F001         	lfsr	0,__pdataCOMRAM
   857   00243C  EE10 F02E          	lfsr	1,46
   858   002440                     copy_data1:
   859   002440  0009               	tblrd		*+
   860   002442  CFF5 FFEE          	movff	tablat,postinc0
   861   002446  50E5               	movf	postdec1,w,c
   862   002448  50E1               	movf	fsr1l,w,c
   863   00244A  E1FA               	bnz	copy_data1
   864                           
   865                           ; Clear objects allocated to BANK0 (10 bytes)
   866   00244C  EE00  F0B6         	lfsr	0,__pbssBANK0
   867   002450  0E0A               	movlw	10
   868   002452                     clear_0:
   869   002452  6AEE               	clrf	postinc0,c
   870   002454  06E8               	decf	wreg,f,c
   871   002456  E1FD               	bnz	clear_0
   872                           
   873                           ; Clear objects allocated to COMRAM (19 bytes)
   874   002458  EE00  F055         	lfsr	0,__pbssCOMRAM
   875   00245C  0E13               	movlw	19
   876   00245E                     clear_1:
   877   00245E  6AEE               	clrf	postinc0,c
   878   002460  06E8               	decf	wreg,f,c
   879   002462  E1FD               	bnz	clear_1
   880   002464                     end_of_initialization:
   881                           	callstack 0
   882   002464                     __end_of__initialization:
   883                           	callstack 0
   884   002464  9068               	bcf	int$flags,0,c	;clear compiler interrupt flag (level 1)
   885   002466  9268               	bcf	int$flags,1,c	;clear compiler interrupt flag (level 2)
   886   002468  0100               	movlb	0
   887   00246A  EF09  F000         	goto	_main	;jump to C main() function
   888                           
   889                           	psect	bssCOMRAM
   890   000055                     __pbssCOMRAM:
   891                           	callstack 0
   892   000055                     _SessionCounter:
   893                           	callstack 0
   894   000055                     	ds	2
   895   000057                     _preload_timer1:
   896                           	callstack 0
   897   000057                     	ds	2
   898   000059                     _TIMER1_interruptHandler:
   899                           	callstack 0
   900   000059                     	ds	2
   901   00005B                     _preload_timer:
   902                           	callstack 0
   903   00005B                     	ds	2
   904   00005D                     _TIMER0_interruptHandler:
   905                           	callstack 0
   906   00005D                     	ds	2
   907   00005F                     _HandelerSPI:
   908                           	callstack 0
   909   00005F                     	ds	2
   910   000061                     _u16DelayCounter:
   911                           	callstack 0
   912   000061                     	ds	2
   913   000063                     _FlagTimeOut:
   914                           	callstack 0
   915   000063                     	ds	1
   916   000064                     led_turn_toggle@F3062:
   917                           	callstack 0
   918   000064                     	ds	1
   919   000065                     led_turn_off@F3057:
   920                           	callstack 0
   921   000065                     	ds	1
   922   000066                     led_turn_on@F3052:
   923                           	callstack 0
   924   000066                     	ds	1
   925   000067                     led_initialize@F3047:
   926                           	callstack 0
   927   000067                     	ds	1
   928                           
   929                           	psect	dataCOMRAM
   930   000001                     __pdataCOMRAM:
   931                           	callstack 0
   932   000001                     _lat_registers:
   933                           	callstack 0
   934   000001                     	ds	10
   935   00000B                     SPI_Select_mode_and_pin_initialize@F3118:
   936                           	callstack 0
   937   00000B                     	ds	1
   938   00000C                     SPI_Select_mode_and_pin_initialize@F3116:
   939                           	callstack 0
   940   00000C                     	ds	1
   941   00000D                     SPI_Select_mode_and_pin_initialize@F3114:
   942                           	callstack 0
   943   00000D                     	ds	1
   944   00000E                     SPI_Select_mode_and_pin_initialize@F3112:
   945                           	callstack 0
   946   00000E                     	ds	1
   947   00000F                     SPI_Select_mode_and_pin_initialize@F3110:
   948                           	callstack 0
   949   00000F                     	ds	1
   950   000010                     SPI_Select_mode_and_pin_initialize@F3108:
   951                           	callstack 0
   952   000010                     	ds	1
   953   000011                     SPI_Select_mode_and_pin_initialize@F3106:
   954                           	callstack 0
   955   000011                     	ds	1
   956   000012                     _Keypad_Obj:
   957                           	callstack 0
   958   000012                     	ds	8
   959   00001A                     _Lcd_Obj:
   960                           	callstack 0
   961   00001A                     	ds	6
   962   000020                     _TimerDelay:
   963                           	callstack 0
   964   000020                     	ds	6
   965   000026                     _Timer1Obj:
   966                           	callstack 0
   967   000026                     	ds	5
   968   00002B                     _PIN_SelectChannel:
   969                           	callstack 0
   970   00002B                     	ds	1
   971   00002C                     _BLOCK_Led:
   972                           	callstack 0
   973   00002C                     	ds	1
   974   00002D                     _GUEST_Led:
   975                           	callstack 0
   976   00002D                     	ds	1
   977   00002E                     _ADMIN_Led:
   978                           	callstack 0
   979   00002E                     	ds	1
   980                           
   981                           	psect	bssBANK0
   982   0000B6                     __pbssBANK0:
   983                           	callstack 0
   984   0000B6                     	ds	6
   985   0000BC                     _SPIObject:
   986                           	callstack 0
   987   0000BC                     	ds	4
   988                           
   989                           	psect	dataBANK0
   990   000080                     __pdataBANK0:
   991                           	callstack 0
   992   000080                     _port_registers:
   993                           	callstack 0
   994   000080                     	ds	10
   995   00008A                     _tris_registers:
   996                           	callstack 0
   997   00008A                     	ds	10
   998   000094                     main@F3279:
   999                           	callstack 0
  1000   000094                     	ds	4
  1001   000098                     main@F3277:
  1002                           	callstack 0
  1003   000098                     	ds	4
  1004   00009C                     main@F3273:
  1005                           	callstack 0
  1006   00009C                     	ds	4
  1007                           
  1008                           	psect	cstackBANK0
  1009   0000A0                     __pcstackBANK0:
  1010                           	callstack 0
  1011   0000A0                     main@Pass:
  1012                           	callstack 0
  1013                           
  1014                           ; 4 bytes @ 0x0
  1015   0000A0                     	ds	4
  1016   0000A4                     main@PassStored:
  1017                           	callstack 0
  1018                           
  1019                           ; 4 bytes @ 0x4
  1020   0000A4                     	ds	4
  1021   0000A8                     main@Pass_1959:
  1022                           	callstack 0
  1023                           
  1024                           ; 4 bytes @ 0x8
  1025   0000A8                     	ds	4
  1026   0000AC                     main@TempOnes:
  1027                           	callstack 0
  1028                           
  1029                           ; 1 bytes @ 0xC
  1030   0000AC                     	ds	1
  1031   0000AD                     main@TempTens:
  1032                           	callstack 0
  1033                           
  1034                           ; 1 bytes @ 0xD
  1035   0000AD                     	ds	1
  1036   0000AE                     main@BlockModeFlag:
  1037                           	callstack 0
  1038                           
  1039                           ; 1 bytes @ 0xE
  1040   0000AE                     	ds	1
  1041   0000AF                     main@Temperature:
  1042                           	callstack 0
  1043                           
  1044                           ; 1 bytes @ 0xF
  1045   0000AF                     	ds	1
  1046   0000B0                     main@PassTriesCount:
  1047                           	callstack 0
  1048                           
  1049                           ; 1 bytes @ 0x10
  1050   0000B0                     	ds	1
  1051   0000B1                     main@PassCounter:
  1052                           	callstack 0
  1053                           
  1054                           ; 1 bytes @ 0x11
  1055   0000B1                     	ds	1
  1056   0000B2                     main@ShowMenu:
  1057                           	callstack 0
  1058                           
  1059                           ; 1 bytes @ 0x12
  1060   0000B2                     	ds	1
  1061   0000B3                     main@PassCounter_1957:
  1062                           	callstack 0
  1063                           
  1064                           ; 1 bytes @ 0x13
  1065   0000B3                     	ds	1
  1066   0000B4                     main@u8LoginMode:
  1067                           	callstack 0
  1068                           
  1069                           ; 1 bytes @ 0x14
  1070   0000B4                     	ds	1
  1071   0000B5                     main@u8KeyPadPressed:
  1072                           	callstack 0
  1073                           
  1074                           ; 1 bytes @ 0x15
  1075   0000B5                     	ds	1
  1076                           
  1077                           	psect	cstackCOMRAM
  1078   00002F                     __pcstackCOMRAM:
  1079                           	callstack 0
  1080   00002F                     ??_interruptManager:
  1081   00002F                     
  1082                           ; 2 bytes @ 0x0
  1083   00002F                     	ds	2
  1084   000031                     eeprom_WriteDataByte@badd:
  1085                           	callstack 0
  1086   000031                     eeprom_ReadDataByte@badd:
  1087                           	callstack 0
  1088   000031                     gpio_Pin_Derction_Intialize@pin_config:
  1089                           	callstack 0
  1090   000031                     gpio_Pin_Write_Logic@pin_config:
  1091                           	callstack 0
  1092   000031                     gpio_Pin_Read_Logic@pin_config:
  1093                           	callstack 0
  1094   000031                     SPI_Select_the_clock_polarity@_spi_obj:
  1095                           	callstack 0
  1096   000031                     SPI_Select_the_clock_phase@_spi_obj:
  1097                           	callstack 0
  1098   000031                     SPI_Select_the_Sampling_receiving@_spi_obj:
  1099                           	callstack 0
  1100   000031                     SPI_configure_the_interrupt@_spi_obj:
  1101                           	callstack 0
  1102   000031                     Timer0_DeInit@_timer:
  1103                           	callstack 0
  1104   000031                     Timer0_prescaler_selcet@_timer:
  1105                           	callstack 0
  1106   000031                     Timer0_mode_of_register_size_selcet@_timer:
  1107                           	callstack 0
  1108   000031                     Timer0_mode_timer_or_counter_selcet@_timer:
  1109                           	callstack 0
  1110   000031                     Timer1_DeInit@_timer:
  1111                           	callstack 0
  1112   000031                     timer1_select_mode_timer_or_counter@_timer:
  1113                           	callstack 0
  1114   000031                     timer1_oscillator_enable@_timer:
  1115                           	callstack 0
  1116   000031                     timer1_select_reg_mode@_timer:
  1117                           	callstack 0
  1118   000031                     u8ComparePass@Pass1:
  1119                           	callstack 0
  1120                           
  1121                           ; 2 bytes @ 0x2
  1122   000031                     	ds	2
  1123   000033                     ??_gpio_Pin_Derction_Intialize:
  1124   000033                     ??_Timer0_prescaler_selcet:
  1125   000033                     eeprom_WriteDataByte@data:
  1126                           	callstack 0
  1127   000033                     gpio_Pin_Write_Logic@logic:
  1128                           	callstack 0
  1129   000033                     eeprom_ReadDataByte@data:
  1130                           	callstack 0
  1131   000033                     gpio_Pin_Read_Logic@logic:
  1132                           	callstack 0
  1133   000033                     Timer1_Init@_timer:
  1134                           	callstack 0
  1135   000033                     u8ComparePass@Pass2:
  1136                           	callstack 0
  1137                           
  1138                           ; 2 bytes @ 0x4
  1139   000033                     	ds	1
  1140   000034                     ??_gpio_Pin_Write_Logic:
  1141   000034                     eeprom_WriteDataByte@interrupt_status:
  1142                           	callstack 0
  1143   000034                     Timer0_Init@_timer:
  1144                           	callstack 0
  1145                           
  1146                           ; 2 bytes @ 0x5
  1147   000034                     	ds	1
  1148   000035                     ??_gpio_Pin_Read_Logic:
  1149   000035                     ??_Timer1_Init:
  1150   000035                     u8ComparePass@Size:
  1151                           	callstack 0
  1152   000035                     u8PassIsSetOrNotSet@Address:
  1153                           	callstack 0
  1154   000035                     vWriteBlockOnEEPROM@u16TheStartAddress:
  1155                           	callstack 0
  1156   000035                     vReadBlockOnEEPROM@u16TheStartAddress:
  1157                           	callstack 0
  1158                           
  1159                           ; 2 bytes @ 0x6
  1160   000035                     	ds	1
  1161   000036                     ??_Timer0_Init:
  1162   000036                     
  1163                           ; 1 bytes @ 0x7
  1164   000036                     	ds	1
  1165   000037                     u8PassIsSetOrNotSet@u8LocDataAdd:
  1166                           	callstack 0
  1167   000037                     vWriteBlockOnEEPROM@Pass:
  1168                           	callstack 0
  1169   000037                     vReadBlockOnEEPROM@Pass:
  1170                           	callstack 0
  1171                           
  1172                           ; 2 bytes @ 0x8
  1173   000037                     	ds	1
  1174   000038                     u8ComparePass@PassFlag:
  1175                           	callstack 0
  1176   000038                     __TimerDelay_ms@u16CopyDelay:
  1177                           	callstack 0
  1178                           
  1179                           ; 2 bytes @ 0x9
  1180   000038                     	ds	1
  1181   000039                     gpio_Pin_Derction_Intialize@ret:
  1182                           	callstack 0
  1183   000039                     vWriteBlockOnEEPROM@Size:
  1184                           	callstack 0
  1185   000039                     vReadBlockOnEEPROM@Size:
  1186                           	callstack 0
  1187   000039                     u8ComparePass@PassCounter:
  1188                           	callstack 0
  1189                           
  1190                           ; 1 bytes @ 0xA
  1191   000039                     	ds	1
  1192   00003A                     ??_vWriteBlockOnEEPROM:
  1193   00003A                     ??_vReadBlockOnEEPROM:
  1194   00003A                     gpio_Pin_Write_Logic@ret:
  1195                           	callstack 0
  1196   00003A                     gpio_Pin_Read_Logic@ret:
  1197                           	callstack 0
  1198                           
  1199                           ; 1 bytes @ 0xB
  1200   00003A                     	ds	1
  1201   00003B                     u8SpiTranmitRecieve@u8Data:
  1202                           	callstack 0
  1203   00003B                     send_data_4bit_mode@_lcd:
  1204                           	callstack 0
  1205   00003B                     send_4bit_mode_enable@_lcd:
  1206                           	callstack 0
  1207   00003B                     keypad_get_value@_keypad_obj:
  1208                           	callstack 0
  1209   00003B                     led_turn_on@led:
  1210                           	callstack 0
  1211   00003B                     led_turn_off@led:
  1212                           	callstack 0
  1213   00003B                     gpio_Pin_Intialize@pin_config:
  1214                           	callstack 0
  1215                           
  1216                           ; 2 bytes @ 0xC
  1217   00003B                     	ds	1
  1218   00003C                     u8SpiTranmitRecieve@Loc_Data:
  1219                           	callstack 0
  1220                           
  1221                           ; 1 bytes @ 0xD
  1222   00003C                     	ds	1
  1223   00003D                     ??_gpio_Pin_Intialize:
  1224   00003D                     ??_led_turn_on:
  1225   00003D                     ??_led_turn_off:
  1226   00003D                     send_data_4bit_mode@data:
  1227                           	callstack 0
  1228   00003D                     send_4bit_mode_enable@ret:
  1229                           	callstack 0
  1230   00003D                     keypad_get_value@value:
  1231                           	callstack 0
  1232   00003D                     vWriteBlockOnEEPROM@LOC_Iterator:
  1233                           	callstack 0
  1234   00003D                     vReadBlockOnEEPROM@LOC_Iterator:
  1235                           	callstack 0
  1236                           
  1237                           ; 2 bytes @ 0xE
  1238   00003D                     	ds	1
  1239   00003E                     send_data_4bit_mode@ret:
  1240                           	callstack 0
  1241   00003E                     led_turn_on@pin_config:
  1242                           	callstack 0
  1243   00003E                     led_turn_off@pin_config:
  1244                           	callstack 0
  1245   00003E                     gpio_Pin_Intialize@ret:
  1246                           	callstack 0
  1247                           
  1248                           ; 1 bytes @ 0xF
  1249   00003E                     	ds	1
  1250   00003F                     ??_keypad_get_value:
  1251   00003F                     lcd_4bit_send_command@_lcd:
  1252                           	callstack 0
  1253   00003F                     lcd_4bit_send_char_data@_lcd:
  1254                           	callstack 0
  1255   00003F                     keypad_initialize@_keypad_obj:
  1256                           	callstack 0
  1257   00003F                     led_initialize@led:
  1258                           	callstack 0
  1259   00003F                     SPI_Select_mode_and_pin_initialize@_spi_obj:
  1260                           	callstack 0
  1261                           
  1262                           ; 2 bytes @ 0x10
  1263   00003F                     	ds	2
  1264   000041                     ??_keypad_initialize:
  1265   000041                     ??_led_initialize:
  1266   000041                     lcd_4bit_send_command@command:
  1267                           	callstack 0
  1268   000041                     lcd_4bit_send_char_data@data:
  1269                           	callstack 0
  1270   000041                     keypad_get_value@column_logic_pin:
  1271                           	callstack 0
  1272                           
  1273                           ; 1 bytes @ 0x12
  1274   000041                     	ds	1
  1275   000042                     lcd_4bit_send_command@ret:
  1276                           	callstack 0
  1277   000042                     lcd_4bit_send_char_data@ret:
  1278                           	callstack 0
  1279   000042                     keypad_get_value@l_counter:
  1280                           	callstack 0
  1281   000042                     led_initialize@pin_config:
  1282                           	callstack 0
  1283   000042                     SPI_Select_mode_and_pin_initialize@ret:
  1284                           	callstack 0
  1285                           
  1286                           ; 1 bytes @ 0x13
  1287   000042                     	ds	1
  1288   000043                     keypad_initialize@keypad_rows:
  1289                           	callstack 0
  1290   000043                     keypad_get_value@counter_rows:
  1291                           	callstack 0
  1292   000043                     SPI_Select_mode_and_pin_initialize@M_MOSI:
  1293                           	callstack 0
  1294   000043                     lcd_4bit_initialize@_lcd:
  1295                           	callstack 0
  1296   000043                     lcd_4bit_send_string_data@_lcd:
  1297                           	callstack 0
  1298   000043                     set_cursor_4bit_mode@_lcd:
  1299                           	callstack 0
  1300                           
  1301                           ; 2 bytes @ 0x14
  1302   000043                     	ds	1
  1303   000044                     keypad_initialize@keypad_colums:
  1304                           	callstack 0
  1305   000044                     keypad_get_value@counter_colums:
  1306                           	callstack 0
  1307   000044                     SPI_Select_mode_and_pin_initialize@M_MISO:
  1308                           	callstack 0
  1309                           
  1310                           ; 1 bytes @ 0x15
  1311   000044                     	ds	1
  1312   000045                     ??_lcd_4bit_initialize:
  1313   000045                     set_cursor_4bit_mode@row:
  1314                           	callstack 0
  1315   000045                     SPI_Select_mode_and_pin_initialize@M_CLOCK:
  1316                           	callstack 0
  1317   000045                     u8GetPressedValue@u8LoginMode:
  1318                           	callstack 0
  1319   000045                     lcd_4bit_send_string_data@str:
  1320                           	callstack 0
  1321                           
  1322                           ; 2 bytes @ 0x16
  1323   000045                     	ds	1
  1324   000046                     set_cursor_4bit_mode@column:
  1325                           	callstack 0
  1326   000046                     SPI_Select_mode_and_pin_initialize@S_MOSI:
  1327                           	callstack 0
  1328   000046                     u8GetPressedValue@u8LockeyPressed:
  1329                           	callstack 0
  1330                           
  1331                           ; 1 bytes @ 0x17
  1332   000046                     	ds	1
  1333   000047                     ??_set_cursor_4bit_mode:
  1334   000047                     lcd_4bit_initialize@l_counter:
  1335                           	callstack 0
  1336   000047                     SPI_Select_mode_and_pin_initialize@S_MISO:
  1337                           	callstack 0
  1338                           
  1339                           ; 1 bytes @ 0x18
  1340   000047                     	ds	1
  1341   000048                     lcd_4bit_initialize@ret:
  1342                           	callstack 0
  1343   000048                     SPI_Select_mode_and_pin_initialize@S_CLOCK:
  1344                           	callstack 0
  1345                           
  1346                           ; 1 bytes @ 0x19
  1347   000048                     	ds	1
  1348   000049                     set_cursor_4bit_mode@ret:
  1349                           	callstack 0
  1350   000049                     SPI_Select_mode_and_pin_initialize@SS:
  1351                           	callstack 0
  1352                           
  1353                           ; 1 bytes @ 0x1A
  1354   000049                     	ds	1
  1355   00004A                     vMenuOption@u8LonginMode:
  1356                           	callstack 0
  1357   00004A                     SPI_Init@_spi_obj:
  1358                           	callstack 0
  1359                           
  1360                           ; 2 bytes @ 0x1B
  1361   00004A                     	ds	1
  1362   00004B                     ??_vMenuOption:
  1363                           
  1364                           ; 1 bytes @ 0x1C
  1365   00004B                     	ds	1
  1366   00004C                     ??_SPI_Init:
  1367                           
  1368                           ; 1 bytes @ 0x1D
  1369   00004C                     	ds	1
  1370   00004D                     vMenuOption@u8SelectedRoom:
  1371                           	callstack 0
  1372                           
  1373                           ; 1 bytes @ 0x1E
  1374   00004D                     	ds	1
  1375   00004E                     vMenuOption@u8Response:
  1376                           	callstack 0
  1377                           
  1378                           ; 1 bytes @ 0x1F
  1379   00004E                     	ds	1
  1380   00004F                     vMenuOption@u8TurnOnCode:
  1381                           	callstack 0
  1382                           
  1383                           ; 1 bytes @ 0x20
  1384   00004F                     	ds	1
  1385   000050                     vMenuOption@u8TurnoffCode:
  1386                           	callstack 0
  1387                           
  1388                           ; 1 bytes @ 0x21
  1389   000050                     	ds	1
  1390   000051                     vMenuOption@u8StatusCode:
  1391                           	callstack 0
  1392                           
  1393                           ; 1 bytes @ 0x22
  1394   000051                     	ds	1
  1395   000052                     vMenuOption@u8keyPressed:
  1396                           	callstack 0
  1397                           
  1398                           ; 1 bytes @ 0x23
  1399   000052                     	ds	1
  1400   000053                     ??_main:
  1401                           
  1402                           ; 1 bytes @ 0x24
  1403   000053                     	ds	2
  1404                           
  1405 ;;
  1406 ;;Main: autosize = 0, tempsize = 2, incstack = 0, save=0
  1407 ;;
  1408 ;; *************** function _main *****************
  1409 ;; Defined at:
  1410 ;;		line 20 in file "application.c"
  1411 ;; Parameters:    Size  Location     Type
  1412 ;;		None
  1413 ;; Auto vars:     Size  Location     Type
  1414 ;;  Pass            4    8[BANK0 ] unsigned char [4]
  1415 ;;  PassStored      4    4[BANK0 ] unsigned char [4]
  1416 ;;  PassCounter     1   19[BANK0 ] unsigned char 
  1417 ;;  ShowMenu        1   18[BANK0 ] unsigned char 
  1418 ;;  PassTriesCou    1   16[BANK0 ] unsigned char 
  1419 ;;  Pass            4    0[BANK0 ] unsigned char [4]
  1420 ;;  PassCounter     1   17[BANK0 ] unsigned char 
  1421 ;;  u8KeyPadPres    1   21[BANK0 ] unsigned char 
  1422 ;;  u8LoginMode     1   20[BANK0 ] unsigned char 
  1423 ;;  Temperature     1   15[BANK0 ] unsigned char 
  1424 ;;  BlockModeFla    1   14[BANK0 ] unsigned char 
  1425 ;;  TempTens        1   13[BANK0 ] unsigned char 
  1426 ;;  TempOnes        1   12[BANK0 ] unsigned char 
  1427 ;; Return value:  Size  Location     Type
  1428 ;;                  2  759[None  ] int 
  1429 ;; Registers used:
  1430 ;;		wreg, fsr1l, fsr1h, fsr2l, fsr2h, status,2, status,0, tblptrl, tblptrh, tblptru, prodl, prodh, cstack
  1431 ;; Tracked objects:
  1432 ;;		On entry : 0/0
  1433 ;;		On exit  : 0/0
  1434 ;;		Unchanged: 0/0
  1435 ;; Data sizes:     COMRAM   BANK0   BANK1   BANK2   BANK3   BANK4   BANK5   BANK6   BANK7   BANK8   BANK9  BANK10  BANK1
      +1  BANK12  BANK13  BANK14  BANK15
  1436 ;;      Params:         0       0       0       0       0       0       0       0       0       0       0       0       
      +0       0       0       0       0
  1437 ;;      Locals:         0      22       0       0       0       0       0       0       0       0       0       0       
      +0       0       0       0       0
  1438 ;;      Temps:          2       0       0       0       0       0       0       0       0       0       0       0       
      +0       0       0       0       0
  1439 ;;      Totals:         2      22       0       0       0       0       0       0       0       0       0       0       
      +0       0       0       0       0
  1440 ;;Total ram usage:       24 bytes
  1441 ;; Hardware stack levels required when called: 8
  1442 ;; This function calls:
  1443 ;;		_SPI_Init
  1444 ;;		_Timer1_DeInit
  1445 ;;		_Timer1_Init
  1446 ;;		__TimerDelay_ms
  1447 ;;		_eeprom_WriteDataByte
  1448 ;;		_gpio_Pin_Intialize
  1449 ;;		_keypad_get_value
  1450 ;;		_keypad_initialize
  1451 ;;		_lcd_4bit_initialize
  1452 ;;		_lcd_4bit_send_char_data
  1453 ;;		_lcd_4bit_send_command
  1454 ;;		_lcd_4bit_send_string_data
  1455 ;;		_led_initialize
  1456 ;;		_led_turn_off
  1457 ;;		_led_turn_on
  1458 ;;		_set_cursor_4bit_mode
  1459 ;;		_u8ComparePass
  1460 ;;		_u8GetPressedValue
  1461 ;;		_u8PassIsSetOrNotSet
  1462 ;;		_u8SpiTranmitRecieve
  1463 ;;		_vMenuOption
  1464 ;;		_vReadBlockOnEEPROM
  1465 ;;		_vWriteBlockOnEEPROM
  1466 ;; This function is called by:
  1467 ;;		Startup code after reset
  1468 ;; This function uses a non-reentrant model
  1469 ;;
  1470                           
  1471                           	psect	text0
  1472   000012                     __ptext0:
  1473                           	callstack 0
  1474   000012                     _main:
  1475                           	callstack 23
  1476   000012                     
  1477                           ;application.c: 22:     led_initialize(&ADMIN_Led);
  1478   000012  0E2E               	movlw	low _ADMIN_Led
  1479   000014  6E3F               	movwf	led_initialize@led^0,c
  1480   000016  0E00               	movlw	high _ADMIN_Led
  1481   000018  6E40               	movwf	(led_initialize@led+1)^0,c
  1482   00001A  EC5B  F011         	call	_led_initialize	;wreg free
  1483                           
  1484                           ;application.c: 23:     led_initialize(&GUEST_Led);
  1485   00001E  0E2D               	movlw	low _GUEST_Led
  1486   000020  6E3F               	movwf	led_initialize@led^0,c
  1487   000022  0E00               	movlw	high _GUEST_Led
  1488   000024  6E40               	movwf	(led_initialize@led+1)^0,c
  1489   000026  EC5B  F011         	call	_led_initialize	;wreg free
  1490                           
  1491                           ;application.c: 24:     led_initialize(&BLOCK_Led);
  1492   00002A  0E2C               	movlw	low _BLOCK_Led
  1493   00002C  6E3F               	movwf	led_initialize@led^0,c
  1494   00002E  0E00               	movlw	high _BLOCK_Led
  1495   000030  6E40               	movwf	(led_initialize@led+1)^0,c
  1496   000032  EC5B  F011         	call	_led_initialize	;wreg free
  1497                           
  1498                           ;application.c: 25:     keypad_initialize(&Keypad_Obj);
  1499   000036  0E12               	movlw	low _Keypad_Obj
  1500   000038  6E3F               	movwf	keypad_initialize@_keypad_obj^0,c
  1501   00003A  0E00               	movlw	high _Keypad_Obj
  1502   00003C  6E40               	movwf	(keypad_initialize@_keypad_obj+1)^0,c
  1503   00003E  EC35  F010         	call	_keypad_initialize	;wreg free
  1504                           
  1505                           ;application.c: 26:     lcd_4bit_initialize(&Lcd_Obj);
  1506   000042  0E1A               	movlw	low _Lcd_Obj
  1507   000044  6E43               	movwf	lcd_4bit_initialize@_lcd^0,c
  1508   000046  0E00               	movlw	high _Lcd_Obj
  1509   000048  6E44               	movwf	(lcd_4bit_initialize@_lcd+1)^0,c
  1510   00004A  EC2C  F00C         	call	_lcd_4bit_initialize	;wreg free
  1511                           
  1512                           ;application.c: 27:     gpio_Pin_Intialize(&PIN_SelectChannel);
  1513   00004E  0E2B               	movlw	low _PIN_SelectChannel
  1514   000050  6E3B               	movwf	gpio_Pin_Intialize@pin_config^0,c
  1515   000052  0E00               	movlw	high _PIN_SelectChannel
  1516   000054  6E3C               	movwf	(gpio_Pin_Intialize@pin_config+1)^0,c
  1517   000056  EC37  F012         	call	_gpio_Pin_Intialize	;wreg free
  1518                           
  1519                           ;application.c: 28:     SPI_Init(&SPIObject);
  1520   00005A  0EBC               	movlw	low _SPIObject
  1521   00005C  6E4A               	movwf	SPI_Init@_spi_obj^0,c
  1522   00005E  0E00               	movlw	high _SPIObject
  1523   000060  6E4B               	movwf	(SPI_Init@_spi_obj+1)^0,c
  1524   000062  ECCD  F011         	call	_SPI_Init	;wreg free
  1525   000066                     
  1526                           ;application.c: 29:     Timer1_Init(&Timer1Obj);
  1527   000066  0E26               	movlw	low _Timer1Obj
  1528   000068  6E33               	movwf	Timer1_Init@_timer^0,c
  1529   00006A  0E00               	movlw	high _Timer1Obj
  1530   00006C  6E34               	movwf	(Timer1_Init@_timer+1)^0,c
  1531   00006E  EC87  F00E         	call	_Timer1_Init	;wreg free
  1532   000072                     
  1533                           ;application.c: 30:     ADCON1bits.PCFG=0x0F;
  1534   000072  0E0F               	movlw	15
  1535   000074  12C1               	iorwf	193,f,c	;volatile
  1536   000076                     
  1537                           ;application.c: 32:     uint8 Temperature=0;
  1538   000076  0E00               	movlw	0
  1539   000078  0100               	movlb	0	; () banked
  1540   00007A  6FAF               	movwf	main@Temperature& (0+255),b
  1541   00007C                     
  1542                           ; BSR set to: 0
  1543                           ;application.c: 33:     uint8 TempOnes=0XFF;
  1544   00007C  69AC               	setf	main@TempOnes& (0+255),b
  1545   00007E                     
  1546                           ; BSR set to: 0
  1547                           ;application.c: 34:     uint8 TempTens=0XFF;
  1548   00007E  69AD               	setf	main@TempTens& (0+255),b
  1549   000080                     
  1550                           ; BSR set to: 0
  1551                           ;application.c: 36:     uint8 u8KeyPadPressed=0XFF;
  1552   000080  69B5               	setf	main@u8KeyPadPressed& (0+255),b
  1553   000082                     
  1554                           ; BSR set to: 0
  1555                           ;application.c: 37:     uint8 u8LoginMode=(uint8)0;
  1556   000082  0E00               	movlw	0
  1557   000084  6FB4               	movwf	main@u8LoginMode& (0+255),b
  1558   000086                     
  1559                           ; BSR set to: 0
  1560                           ;application.c: 38:     uint8 BlockModeFlag=(uint8)0;
  1561   000086  0E00               	movlw	0
  1562   000088  6FAE               	movwf	main@BlockModeFlag& (0+255),b
  1563   00008A                     
  1564                           ; BSR set to: 0
  1565                           ;application.c: 41:     lcd_4bit_send_string_data(&Lcd_Obj,"Welcome to Smart");
  1566   00008A  0E1A               	movlw	low _Lcd_Obj
  1567   00008C  6E43               	movwf	lcd_4bit_send_string_data@_lcd^0,c
  1568   00008E  0E00               	movlw	high _Lcd_Obj
  1569   000090  6E44               	movwf	(lcd_4bit_send_string_data@_lcd+1)^0,c
  1570   000092  0E49               	movlw	low STR_4
  1571   000094  6E45               	movwf	lcd_4bit_send_string_data@str^0,c
  1572   000096  0EFE               	movlw	high STR_4
  1573   000098  6E46               	movwf	(lcd_4bit_send_string_data@str+1)^0,c
  1574   00009A  ECF0  F012         	call	_lcd_4bit_send_string_data	;wreg free
  1575   00009E                     
  1576                           ;application.c: 42:     set_cursor_4bit_mode(&Lcd_Obj,2,3);
  1577   00009E  0E1A               	movlw	low _Lcd_Obj
  1578   0000A0  6E43               	movwf	set_cursor_4bit_mode@_lcd^0,c
  1579   0000A2  0E00               	movlw	high _Lcd_Obj
  1580   0000A4  6E44               	movwf	(set_cursor_4bit_mode@_lcd+1)^0,c
  1581   0000A6  0E02               	movlw	2
  1582   0000A8  6E45               	movwf	set_cursor_4bit_mode@row^0,c
  1583   0000AA  0E03               	movlw	3
  1584   0000AC  6E46               	movwf	set_cursor_4bit_mode@column^0,c
  1585   0000AE  ECCC  F00D         	call	_set_cursor_4bit_mode	;wreg free
  1586   0000B2                     
  1587                           ;application.c: 43:     lcd_4bit_send_string_data(&Lcd_Obj,"Home System");
  1588   0000B2  0E1A               	movlw	low _Lcd_Obj
  1589   0000B4  6E43               	movwf	lcd_4bit_send_string_data@_lcd^0,c
  1590   0000B6  0E00               	movlw	high _Lcd_Obj
  1591   0000B8  6E44               	movwf	(lcd_4bit_send_string_data@_lcd+1)^0,c
  1592   0000BA  0E70               	movlw	low STR_5
  1593   0000BC  6E45               	movwf	lcd_4bit_send_string_data@str^0,c
  1594   0000BE  0EFF               	movlw	high STR_5
  1595   0000C0  6E46               	movwf	(lcd_4bit_send_string_data@str+1)^0,c
  1596   0000C2  ECF0  F012         	call	_lcd_4bit_send_string_data	;wreg free
  1597                           
  1598                           ;application.c: 44:     _TimerDelay_ms(2000);
  1599   0000C6  0E07               	movlw	7
  1600   0000C8  6E39               	movwf	(__TimerDelay_ms@u16CopyDelay+1)^0,c
  1601   0000CA  0ED0               	movlw	208
  1602   0000CC  6E38               	movwf	__TimerDelay_ms@u16CopyDelay^0,c
  1603   0000CE  EC70  F013         	call	__TimerDelay_ms	;wreg free
  1604   0000D2                     
  1605                           ;application.c: 45:     lcd_4bit_send_command(&Lcd_Obj,0x01);
  1606   0000D2  0E1A               	movlw	low _Lcd_Obj
  1607   0000D4  6E3F               	movwf	lcd_4bit_send_command@_lcd^0,c
  1608   0000D6  0E00               	movlw	high _Lcd_Obj
  1609   0000D8  6E40               	movwf	(lcd_4bit_send_command@_lcd+1)^0,c
  1610   0000DA  0E01               	movlw	1
  1611   0000DC  6E41               	movwf	lcd_4bit_send_command@command^0,c
  1612   0000DE  EC94  F011         	call	_lcd_4bit_send_command	;wreg free
  1613   0000E2                     
  1614                           ;application.c: 48:     if(((uint8)0X00 !=u8PassIsSetOrNotSet((uint16)0X0000)) || ((uint
      +                          8)0X00 !=u8PassIsSetOrNotSet((uint16)0X0001))){
  1615   0000E2  0E00               	movlw	0
  1616   0000E4  6E36               	movwf	(u8PassIsSetOrNotSet@Address+1)^0,c
  1617   0000E6  0E00               	movlw	0
  1618   0000E8  6E35               	movwf	u8PassIsSetOrNotSet@Address^0,c
  1619   0000EA  EC58  F015         	call	_u8PassIsSetOrNotSet	;wreg free
  1620   0000EE  0900               	iorlw	0
  1621   0000F0  A4D8               	btfss	status,2,c
  1622   0000F2  EF7D  F000         	goto	u5551
  1623   0000F6  EF7F  F000         	goto	u5550
  1624   0000FA                     u5551:
  1625   0000FA  EF8D  F000         	goto	l6577
  1626   0000FE                     u5550:
  1627   0000FE  0E00               	movlw	0
  1628   000100  6E36               	movwf	(u8PassIsSetOrNotSet@Address+1)^0,c
  1629   000102  0E01               	movlw	1
  1630   000104  6E35               	movwf	u8PassIsSetOrNotSet@Address^0,c
  1631   000106  EC58  F015         	call	_u8PassIsSetOrNotSet	;wreg free
  1632   00010A  0900               	iorlw	0
  1633   00010C  B4D8               	btfsc	status,2,c
  1634   00010E  EF8B  F000         	goto	u5561
  1635   000112  EF8D  F000         	goto	u5560
  1636   000116                     u5561:
  1637   000116  EF22  F002         	goto	l6671
  1638   00011A                     u5560:
  1639   00011A                     l6577:
  1640                           
  1641                           ;application.c: 49:         lcd_4bit_send_command(&Lcd_Obj,0x01);
  1642   00011A  0E1A               	movlw	low _Lcd_Obj
  1643   00011C  6E3F               	movwf	lcd_4bit_send_command@_lcd^0,c
  1644   00011E  0E00               	movlw	high _Lcd_Obj
  1645   000120  6E40               	movwf	(lcd_4bit_send_command@_lcd+1)^0,c
  1646   000122  0E01               	movlw	1
  1647   000124  6E41               	movwf	lcd_4bit_send_command@command^0,c
  1648   000126  EC94  F011         	call	_lcd_4bit_send_command	;wreg free
  1649   00012A                     
  1650                           ;application.c: 50:         lcd_4bit_send_string_data(&Lcd_Obj,"Login For The");
  1651   00012A  0E1A               	movlw	low _Lcd_Obj
  1652   00012C  6E43               	movwf	lcd_4bit_send_string_data@_lcd^0,c
  1653   00012E  0E00               	movlw	high _Lcd_Obj
  1654   000130  6E44               	movwf	(lcd_4bit_send_string_data@_lcd+1)^0,c
  1655   000132  0E16               	movlw	low STR_6
  1656   000134  6E45               	movwf	lcd_4bit_send_string_data@str^0,c
  1657   000136  0EFF               	movlw	high STR_6
  1658   000138  6E46               	movwf	(lcd_4bit_send_string_data@str+1)^0,c
  1659   00013A  ECF0  F012         	call	_lcd_4bit_send_string_data	;wreg free
  1660   00013E                     
  1661                           ;application.c: 51:         set_cursor_4bit_mode(&Lcd_Obj,2,3);
  1662   00013E  0E1A               	movlw	low _Lcd_Obj
  1663   000140  6E43               	movwf	set_cursor_4bit_mode@_lcd^0,c
  1664   000142  0E00               	movlw	high _Lcd_Obj
  1665   000144  6E44               	movwf	(set_cursor_4bit_mode@_lcd+1)^0,c
  1666   000146  0E02               	movlw	2
  1667   000148  6E45               	movwf	set_cursor_4bit_mode@row^0,c
  1668   00014A  0E03               	movlw	3
  1669   00014C  6E46               	movwf	set_cursor_4bit_mode@column^0,c
  1670   00014E  ECCC  F00D         	call	_set_cursor_4bit_mode	;wreg free
  1671                           
  1672                           ;application.c: 52:         lcd_4bit_send_string_data(&Lcd_Obj,"First Time");
  1673   000152  0E1A               	movlw	low _Lcd_Obj
  1674   000154  6E43               	movwf	lcd_4bit_send_string_data@_lcd^0,c
  1675   000156  0E00               	movlw	high _Lcd_Obj
  1676   000158  6E44               	movwf	(lcd_4bit_send_string_data@_lcd+1)^0,c
  1677   00015A  0EA9               	movlw	low STR_7
  1678   00015C  6E45               	movwf	lcd_4bit_send_string_data@str^0,c
  1679   00015E  0EFF               	movlw	high STR_7
  1680   000160  6E46               	movwf	(lcd_4bit_send_string_data@str+1)^0,c
  1681   000162  ECF0  F012         	call	_lcd_4bit_send_string_data	;wreg free
  1682   000166                     
  1683                           ;application.c: 53:         _TimerDelay_ms(2000);
  1684   000166  0E07               	movlw	7
  1685   000168  6E39               	movwf	(__TimerDelay_ms@u16CopyDelay+1)^0,c
  1686   00016A  0ED0               	movlw	208
  1687   00016C  6E38               	movwf	__TimerDelay_ms@u16CopyDelay^0,c
  1688   00016E  EC70  F013         	call	__TimerDelay_ms	;wreg free
  1689   000172                     
  1690                           ;application.c: 54:         lcd_4bit_send_command(&Lcd_Obj,0x01);
  1691   000172  0E1A               	movlw	low _Lcd_Obj
  1692   000174  6E3F               	movwf	lcd_4bit_send_command@_lcd^0,c
  1693   000176  0E00               	movlw	high _Lcd_Obj
  1694   000178  6E40               	movwf	(lcd_4bit_send_command@_lcd+1)^0,c
  1695   00017A  0E01               	movlw	1
  1696   00017C  6E41               	movwf	lcd_4bit_send_command@command^0,c
  1697   00017E  EC94  F011         	call	_lcd_4bit_send_command	;wreg free
  1698   000182                     
  1699                           ;application.c: 55:         lcd_4bit_send_string_data(&Lcd_Obj,"Set Admin Pass ");
  1700   000182  0E1A               	movlw	low _Lcd_Obj
  1701   000184  6E43               	movwf	lcd_4bit_send_string_data@_lcd^0,c
  1702   000186  0E00               	movlw	high _Lcd_Obj
  1703   000188  6E44               	movwf	(lcd_4bit_send_string_data@_lcd+1)^0,c
  1704   00018A  0E6B               	movlw	low STR_8
  1705   00018C  6E45               	movwf	lcd_4bit_send_string_data@str^0,c
  1706   00018E  0EFE               	movlw	high STR_8
  1707   000190  6E46               	movwf	(lcd_4bit_send_string_data@str+1)^0,c
  1708   000192  ECF0  F012         	call	_lcd_4bit_send_string_data	;wreg free
  1709   000196                     
  1710                           ;application.c: 56:         set_cursor_4bit_mode(&Lcd_Obj,2,1);
  1711   000196  0E1A               	movlw	low _Lcd_Obj
  1712   000198  6E43               	movwf	set_cursor_4bit_mode@_lcd^0,c
  1713   00019A  0E00               	movlw	high _Lcd_Obj
  1714   00019C  6E44               	movwf	(set_cursor_4bit_mode@_lcd+1)^0,c
  1715   00019E  0E02               	movlw	2
  1716   0001A0  6E45               	movwf	set_cursor_4bit_mode@row^0,c
  1717   0001A2  0E01               	movlw	1
  1718   0001A4  6E46               	movwf	set_cursor_4bit_mode@column^0,c
  1719   0001A6  ECCC  F00D         	call	_set_cursor_4bit_mode	;wreg free
  1720   0001AA                     
  1721                           ;application.c: 57:         lcd_4bit_send_string_data(&Lcd_Obj,"Admin Pass:");
  1722   0001AA  0E1A               	movlw	low _Lcd_Obj
  1723   0001AC  6E43               	movwf	lcd_4bit_send_string_data@_lcd^0,c
  1724   0001AE  0E00               	movlw	high _Lcd_Obj
  1725   0001B0  6E44               	movwf	(lcd_4bit_send_string_data@_lcd+1)^0,c
  1726   0001B2  0E58               	movlw	low STR_9
  1727   0001B4  6E45               	movwf	lcd_4bit_send_string_data@str^0,c
  1728   0001B6  0EFF               	movlw	high STR_9
  1729   0001B8  6E46               	movwf	(lcd_4bit_send_string_data@str+1)^0,c
  1730   0001BA  ECF0  F012         	call	_lcd_4bit_send_string_data	;wreg free
  1731   0001BE                     
  1732                           ;application.c: 59:         uint8 PassCounter=0;
  1733   0001BE  0E00               	movlw	0
  1734   0001C0  0100               	movlb	0	; () banked
  1735   0001C2  6FB1               	movwf	main@PassCounter& (0+255),b
  1736   0001C4                     
  1737                           ; BSR set to: 0
  1738                           ;application.c: 60:         uint8 Pass[(uint8)4]={0XFF,0XFF,0XFF,0XFF};
  1739   0001C4  C09C  F0A0         	movff	main@F3273,main@Pass
  1740   0001C8  C09D  F0A1         	movff	main@F3273+1,main@Pass+1
  1741   0001CC  C09E  F0A2         	movff	main@F3273+2,main@Pass+2
  1742   0001D0  C09F  F0A3         	movff	main@F3273+3,main@Pass+3
  1743                           
  1744                           ;application.c: 61:         while (PassCounter < (uint8)4){
  1745   0001D4  EF34  F001         	goto	l6615
  1746   0001D8                     l766:
  1747                           
  1748                           ; BSR set to: 0
  1749                           ;application.c: 62:             u8KeyPadPressed=0XFF;
  1750   0001D8  69B5               	setf	main@u8KeyPadPressed& (0+255),b
  1751                           
  1752                           ;application.c: 63:             while(u8KeyPadPressed == 0XFF){
  1753   0001DA  EFF9  F000         	goto	l6599
  1754   0001DE                     l6597:
  1755                           
  1756                           ; BSR set to: 0
  1757                           ;application.c: 64:                 keypad_get_value(&Keypad_Obj,&u8KeyPadPressed);
  1758   0001DE  0E12               	movlw	low _Keypad_Obj
  1759   0001E0  6E3B               	movwf	keypad_get_value@_keypad_obj^0,c
  1760   0001E2  0E00               	movlw	high _Keypad_Obj
  1761   0001E4  6E3C               	movwf	(keypad_get_value@_keypad_obj+1)^0,c
  1762   0001E6  0EB5               	movlw	low main@u8KeyPadPressed
  1763   0001E8  6E3D               	movwf	keypad_get_value@value^0,c
  1764   0001EA  0E00               	movlw	high main@u8KeyPadPressed
  1765   0001EC  6E3E               	movwf	(keypad_get_value@value+1)^0,c
  1766   0001EE  EC48  F00D         	call	_keypad_get_value	;wreg free
  1767   0001F2                     l6599:
  1768                           
  1769                           ;application.c: 63:             while(u8KeyPadPressed == 0XFF){
  1770   0001F2  0100               	movlb	0	; () banked
  1771   0001F4  29B5               	incf	main@u8KeyPadPressed& (0+255),w,b
  1772   0001F6  B4D8               	btfsc	status,2,c
  1773   0001F8  EF00  F001         	goto	u5571
  1774   0001FC  EF02  F001         	goto	u5570
  1775   000200                     u5571:
  1776   000200  EFEF  F000         	goto	l6597
  1777   000204                     u5570:
  1778   000204                     
  1779                           ; BSR set to: 0
  1780                           ;application.c: 66:             Pass[PassCounter]=u8KeyPadPressed;
  1781   000204  0EA0               	movlw	low main@Pass
  1782   000206  25B1               	addwf	main@PassCounter& (0+255),w,b
  1783   000208  6ED9               	movwf	fsr2l,c
  1784   00020A  6ADA               	clrf	fsr2h,c
  1785   00020C  0E00               	movlw	high main@Pass
  1786   00020E  22DA               	addwfc	fsr2h,f,c
  1787   000210  C0B5  FFDF         	movff	main@u8KeyPadPressed,indf2
  1788   000214                     
  1789                           ; BSR set to: 0
  1790                           ;application.c: 67:             lcd_4bit_send_char_data(&Lcd_Obj,u8KeyPadPressed);
  1791   000214  0E1A               	movlw	low _Lcd_Obj
  1792   000216  6E3F               	movwf	lcd_4bit_send_char_data@_lcd^0,c
  1793   000218  0E00               	movlw	high _Lcd_Obj
  1794   00021A  6E40               	movwf	(lcd_4bit_send_char_data@_lcd+1)^0,c
  1795   00021C  C0B5  F041         	movff	main@u8KeyPadPressed,lcd_4bit_send_char_data@data
  1796   000220  EC22  F011         	call	_lcd_4bit_send_char_data	;wreg free
  1797   000224                     
  1798                           ;application.c: 68:             _TimerDelay_ms((uint16)300);
  1799   000224  0E01               	movlw	1
  1800   000226  6E39               	movwf	(__TimerDelay_ms@u16CopyDelay+1)^0,c
  1801   000228  0E2C               	movlw	44
  1802   00022A  6E38               	movwf	__TimerDelay_ms@u16CopyDelay^0,c
  1803   00022C  EC70  F013         	call	__TimerDelay_ms	;wreg free
  1804   000230                     
  1805                           ;application.c: 69:             set_cursor_4bit_mode(&Lcd_Obj,2,12+PassCounter);
  1806   000230  0E1A               	movlw	low _Lcd_Obj
  1807   000232  6E43               	movwf	set_cursor_4bit_mode@_lcd^0,c
  1808   000234  0E00               	movlw	high _Lcd_Obj
  1809   000236  6E44               	movwf	(set_cursor_4bit_mode@_lcd+1)^0,c
  1810   000238  0E02               	movlw	2
  1811   00023A  6E45               	movwf	set_cursor_4bit_mode@row^0,c
  1812   00023C  0100               	movlb	0	; () banked
  1813   00023E  51B1               	movf	main@PassCounter& (0+255),w,b
  1814   000240  0F0C               	addlw	12
  1815   000242  6E46               	movwf	set_cursor_4bit_mode@column^0,c
  1816   000244  ECCC  F00D         	call	_set_cursor_4bit_mode	;wreg free
  1817   000248                     
  1818                           ;application.c: 70:             lcd_4bit_send_char_data(&Lcd_Obj,(uint8)'*');
  1819   000248  0E1A               	movlw	low _Lcd_Obj
  1820   00024A  6E3F               	movwf	lcd_4bit_send_char_data@_lcd^0,c
  1821   00024C  0E00               	movlw	high _Lcd_Obj
  1822   00024E  6E40               	movwf	(lcd_4bit_send_char_data@_lcd+1)^0,c
  1823   000250  0E2A               	movlw	42
  1824   000252  6E41               	movwf	lcd_4bit_send_char_data@data^0,c
  1825   000254  EC22  F011         	call	_lcd_4bit_send_char_data	;wreg free
  1826   000258                     
  1827                           ;application.c: 71:             _TimerDelay_ms(50);
  1828   000258  0E00               	movlw	0
  1829   00025A  6E39               	movwf	(__TimerDelay_ms@u16CopyDelay+1)^0,c
  1830   00025C  0E32               	movlw	50
  1831   00025E  6E38               	movwf	__TimerDelay_ms@u16CopyDelay^0,c
  1832   000260  EC70  F013         	call	__TimerDelay_ms	;wreg free
  1833   000264                     
  1834                           ;application.c: 72:             PassCounter++;
  1835   000264  0100               	movlb	0	; () banked
  1836   000266  2BB1               	incf	main@PassCounter& (0+255),f,b
  1837   000268                     l6615:
  1838                           
  1839                           ; BSR set to: 0
  1840                           ;application.c: 61:         while (PassCounter < (uint8)4){
  1841   000268  0E03               	movlw	3
  1842   00026A  65B1               	cpfsgt	main@PassCounter& (0+255),b
  1843   00026C  EF3A  F001         	goto	u5581
  1844   000270  EF3C  F001         	goto	u5580
  1845   000274                     u5581:
  1846   000274  EFEC  F000         	goto	l766
  1847   000278                     u5580:
  1848   000278                     
  1849                           ; BSR set to: 0
  1850                           ;application.c: 74:         vWriteBlockOnEEPROM((uint16)0X0003,Pass,(uint8)4);
  1851   000278  0E00               	movlw	0
  1852   00027A  6E36               	movwf	(vWriteBlockOnEEPROM@u16TheStartAddress+1)^0,c
  1853   00027C  0E03               	movlw	3
  1854   00027E  6E35               	movwf	vWriteBlockOnEEPROM@u16TheStartAddress^0,c
  1855   000280  0EA0               	movlw	low main@Pass
  1856   000282  6E37               	movwf	vWriteBlockOnEEPROM@Pass^0,c
  1857   000284  0E00               	movlw	high main@Pass
  1858   000286  6E38               	movwf	(vWriteBlockOnEEPROM@Pass+1)^0,c
  1859   000288  0E04               	movlw	4
  1860   00028A  6E39               	movwf	vWriteBlockOnEEPROM@Size^0,c
  1861   00028C  EC68  F012         	call	_vWriteBlockOnEEPROM	;wreg free
  1862   000290                     
  1863                           ;application.c: 75:         eeprom_WriteDataByte((uint16)0X0000,(uint8)0X00);
  1864   000290  0E00               	movlw	0
  1865   000292  6E32               	movwf	(eeprom_WriteDataByte@badd+1)^0,c
  1866   000294  0E00               	movlw	0
  1867   000296  6E31               	movwf	eeprom_WriteDataByte@badd^0,c
  1868   000298  0E00               	movlw	0
  1869   00029A  6E33               	movwf	eeprom_WriteDataByte@data^0,c
  1870   00029C  ECE7  F013         	call	_eeprom_WriteDataByte	;wreg free
  1871   0002A0                     
  1872                           ;application.c: 76:         lcd_4bit_send_command(&Lcd_Obj,0x01);
  1873   0002A0  0E1A               	movlw	low _Lcd_Obj
  1874   0002A2  6E3F               	movwf	lcd_4bit_send_command@_lcd^0,c
  1875   0002A4  0E00               	movlw	high _Lcd_Obj
  1876   0002A6  6E40               	movwf	(lcd_4bit_send_command@_lcd+1)^0,c
  1877   0002A8  0E01               	movlw	1
  1878   0002AA  6E41               	movwf	lcd_4bit_send_command@command^0,c
  1879   0002AC  EC94  F011         	call	_lcd_4bit_send_command	;wreg free
  1880   0002B0                     
  1881                           ;application.c: 77:         lcd_4bit_send_string_data(&Lcd_Obj,"Pass Saved");
  1882   0002B0  0E1A               	movlw	low _Lcd_Obj
  1883   0002B2  6E43               	movwf	lcd_4bit_send_string_data@_lcd^0,c
  1884   0002B4  0E00               	movlw	high _Lcd_Obj
  1885   0002B6  6E44               	movwf	(lcd_4bit_send_string_data@_lcd+1)^0,c
  1886   0002B8  0E88               	movlw	low STR_10
  1887   0002BA  6E45               	movwf	lcd_4bit_send_string_data@str^0,c
  1888   0002BC  0EFF               	movlw	high STR_10
  1889   0002BE  6E46               	movwf	(lcd_4bit_send_string_data@str+1)^0,c
  1890   0002C0  ECF0  F012         	call	_lcd_4bit_send_string_data	;wreg free
  1891   0002C4                     
  1892                           ;application.c: 78:         _TimerDelay_ms(1000);
  1893   0002C4  0E03               	movlw	3
  1894   0002C6  6E39               	movwf	(__TimerDelay_ms@u16CopyDelay+1)^0,c
  1895   0002C8  0EE8               	movlw	232
  1896   0002CA  6E38               	movwf	__TimerDelay_ms@u16CopyDelay^0,c
  1897   0002CC  EC70  F013         	call	__TimerDelay_ms	;wreg free
  1898   0002D0                     
  1899                           ;application.c: 81:         PassCounter=0;
  1900   0002D0  0E00               	movlw	0
  1901   0002D2  0100               	movlb	0	; () banked
  1902   0002D4  6FB1               	movwf	main@PassCounter& (0+255),b
  1903   0002D6                     
  1904                           ; BSR set to: 0
  1905                           ;application.c: 82:         lcd_4bit_send_command(&Lcd_Obj,0x01);
  1906   0002D6  0E1A               	movlw	low _Lcd_Obj
  1907   0002D8  6E3F               	movwf	lcd_4bit_send_command@_lcd^0,c
  1908   0002DA  0E00               	movlw	high _Lcd_Obj
  1909   0002DC  6E40               	movwf	(lcd_4bit_send_command@_lcd+1)^0,c
  1910   0002DE  0E01               	movlw	1
  1911   0002E0  6E41               	movwf	lcd_4bit_send_command@command^0,c
  1912   0002E2  EC94  F011         	call	_lcd_4bit_send_command	;wreg free
  1913   0002E6                     
  1914                           ;application.c: 83:         lcd_4bit_send_string_data(&Lcd_Obj,"Set Guest Pass ");
  1915   0002E6  0E1A               	movlw	low _Lcd_Obj
  1916   0002E8  6E43               	movwf	lcd_4bit_send_string_data@_lcd^0,c
  1917   0002EA  0E00               	movlw	high _Lcd_Obj
  1918   0002EC  6E44               	movwf	(lcd_4bit_send_string_data@_lcd+1)^0,c
  1919   0002EE  0E7B               	movlw	low STR_11
  1920   0002F0  6E45               	movwf	lcd_4bit_send_string_data@str^0,c
  1921   0002F2  0EFE               	movlw	high STR_11
  1922   0002F4  6E46               	movwf	(lcd_4bit_send_string_data@str+1)^0,c
  1923   0002F6  ECF0  F012         	call	_lcd_4bit_send_string_data	;wreg free
  1924   0002FA                     
  1925                           ;application.c: 84:         set_cursor_4bit_mode(&Lcd_Obj,2,1);
  1926   0002FA  0E1A               	movlw	low _Lcd_Obj
  1927   0002FC  6E43               	movwf	set_cursor_4bit_mode@_lcd^0,c
  1928   0002FE  0E00               	movlw	high _Lcd_Obj
  1929   000300  6E44               	movwf	(set_cursor_4bit_mode@_lcd+1)^0,c
  1930   000302  0E02               	movlw	2
  1931   000304  6E45               	movwf	set_cursor_4bit_mode@row^0,c
  1932   000306  0E01               	movlw	1
  1933   000308  6E46               	movwf	set_cursor_4bit_mode@column^0,c
  1934   00030A  ECCC  F00D         	call	_set_cursor_4bit_mode	;wreg free
  1935   00030E                     
  1936                           ;application.c: 85:         lcd_4bit_send_string_data(&Lcd_Obj,"Guest Pass:");
  1937   00030E  0E1A               	movlw	low _Lcd_Obj
  1938   000310  6E43               	movwf	lcd_4bit_send_string_data@_lcd^0,c
  1939   000312  0E00               	movlw	high _Lcd_Obj
  1940   000314  6E44               	movwf	(lcd_4bit_send_string_data@_lcd+1)^0,c
  1941   000316  0E64               	movlw	low STR_12
  1942   000318  6E45               	movwf	lcd_4bit_send_string_data@str^0,c
  1943   00031A  0EFF               	movlw	high STR_12
  1944   00031C  6E46               	movwf	(lcd_4bit_send_string_data@str+1)^0,c
  1945   00031E  ECF0  F012         	call	_lcd_4bit_send_string_data	;wreg free
  1946                           
  1947                           ;application.c: 86:         while (PassCounter < (uint8)4){
  1948   000322  EFDB  F001         	goto	l6655
  1949   000326                     l772:
  1950                           
  1951                           ; BSR set to: 0
  1952                           ;application.c: 87:             u8KeyPadPressed=0XFF;
  1953   000326  69B5               	setf	main@u8KeyPadPressed& (0+255),b
  1954                           
  1955                           ;application.c: 88:             while(u8KeyPadPressed == 0XFF){
  1956   000328  EFA0  F001         	goto	l6639
  1957   00032C                     l6637:
  1958                           
  1959                           ; BSR set to: 0
  1960                           ;application.c: 89:                 keypad_get_value(&Keypad_Obj,&u8KeyPadPressed);
  1961   00032C  0E12               	movlw	low _Keypad_Obj
  1962   00032E  6E3B               	movwf	keypad_get_value@_keypad_obj^0,c
  1963   000330  0E00               	movlw	high _Keypad_Obj
  1964   000332  6E3C               	movwf	(keypad_get_value@_keypad_obj+1)^0,c
  1965   000334  0EB5               	movlw	low main@u8KeyPadPressed
  1966   000336  6E3D               	movwf	keypad_get_value@value^0,c
  1967   000338  0E00               	movlw	high main@u8KeyPadPressed
  1968   00033A  6E3E               	movwf	(keypad_get_value@value+1)^0,c
  1969   00033C  EC48  F00D         	call	_keypad_get_value	;wreg free
  1970   000340                     l6639:
  1971                           
  1972                           ;application.c: 88:             while(u8KeyPadPressed == 0XFF){
  1973   000340  0100               	movlb	0	; () banked
  1974   000342  29B5               	incf	main@u8KeyPadPressed& (0+255),w,b
  1975   000344  B4D8               	btfsc	status,2,c
  1976   000346  EFA7  F001         	goto	u5591
  1977   00034A  EFA9  F001         	goto	u5590
  1978   00034E                     u5591:
  1979   00034E  EF96  F001         	goto	l6637
  1980   000352                     u5590:
  1981   000352                     
  1982                           ; BSR set to: 0
  1983                           ;application.c: 91:             Pass[PassCounter]=u8KeyPadPressed;
  1984   000352  0EA0               	movlw	low main@Pass
  1985   000354  25B1               	addwf	main@PassCounter& (0+255),w,b
  1986   000356  6ED9               	movwf	fsr2l,c
  1987   000358  6ADA               	clrf	fsr2h,c
  1988   00035A  0E00               	movlw	high main@Pass
  1989   00035C  22DA               	addwfc	fsr2h,f,c
  1990   00035E  C0B5  FFDF         	movff	main@u8KeyPadPressed,indf2
  1991   000362                     
  1992                           ; BSR set to: 0
  1993                           ;application.c: 92:             lcd_4bit_send_char_data(&Lcd_Obj,u8KeyPadPressed);
  1994   000362  0E1A               	movlw	low _Lcd_Obj
  1995   000364  6E3F               	movwf	lcd_4bit_send_char_data@_lcd^0,c
  1996   000366  0E00               	movlw	high _Lcd_Obj
  1997   000368  6E40               	movwf	(lcd_4bit_send_char_data@_lcd+1)^0,c
  1998   00036A  C0B5  F041         	movff	main@u8KeyPadPressed,lcd_4bit_send_char_data@data
  1999   00036E  EC22  F011         	call	_lcd_4bit_send_char_data	;wreg free
  2000   000372                     
  2001                           ;application.c: 93:             _TimerDelay_ms((uint16)300);
  2002   000372  0E01               	movlw	1
  2003   000374  6E39               	movwf	(__TimerDelay_ms@u16CopyDelay+1)^0,c
  2004   000376  0E2C               	movlw	44
  2005   000378  6E38               	movwf	__TimerDelay_ms@u16CopyDelay^0,c
  2006   00037A  EC70  F013         	call	__TimerDelay_ms	;wreg free
  2007   00037E                     
  2008                           ;application.c: 94:             set_cursor_4bit_mode(&Lcd_Obj,2,12+PassCounter);
  2009   00037E  0E1A               	movlw	low _Lcd_Obj
  2010   000380  6E43               	movwf	set_cursor_4bit_mode@_lcd^0,c
  2011   000382  0E00               	movlw	high _Lcd_Obj
  2012   000384  6E44               	movwf	(set_cursor_4bit_mode@_lcd+1)^0,c
  2013   000386  0E02               	movlw	2
  2014   000388  6E45               	movwf	set_cursor_4bit_mode@row^0,c
  2015   00038A  0100               	movlb	0	; () banked
  2016   00038C  51B1               	movf	main@PassCounter& (0+255),w,b
  2017   00038E  0F0C               	addlw	12
  2018   000390  6E46               	movwf	set_cursor_4bit_mode@column^0,c
  2019   000392  ECCC  F00D         	call	_set_cursor_4bit_mode	;wreg free
  2020   000396                     
  2021                           ;application.c: 95:             lcd_4bit_send_char_data(&Lcd_Obj,(uint8)'*');
  2022   000396  0E1A               	movlw	low _Lcd_Obj
  2023   000398  6E3F               	movwf	lcd_4bit_send_char_data@_lcd^0,c
  2024   00039A  0E00               	movlw	high _Lcd_Obj
  2025   00039C  6E40               	movwf	(lcd_4bit_send_char_data@_lcd+1)^0,c
  2026   00039E  0E2A               	movlw	42
  2027   0003A0  6E41               	movwf	lcd_4bit_send_char_data@data^0,c
  2028   0003A2  EC22  F011         	call	_lcd_4bit_send_char_data	;wreg free
  2029   0003A6                     
  2030                           ;application.c: 96:             _TimerDelay_ms(50);
  2031   0003A6  0E00               	movlw	0
  2032   0003A8  6E39               	movwf	(__TimerDelay_ms@u16CopyDelay+1)^0,c
  2033   0003AA  0E32               	movlw	50
  2034   0003AC  6E38               	movwf	__TimerDelay_ms@u16CopyDelay^0,c
  2035   0003AE  EC70  F013         	call	__TimerDelay_ms	;wreg free
  2036   0003B2                     
  2037                           ;application.c: 97:             PassCounter++;
  2038   0003B2  0100               	movlb	0	; () banked
  2039   0003B4  2BB1               	incf	main@PassCounter& (0+255),f,b
  2040   0003B6                     l6655:
  2041                           
  2042                           ;application.c: 86:         while (PassCounter < (uint8)4){
  2043   0003B6  0E03               	movlw	3
  2044   0003B8  0100               	movlb	0	; () banked
  2045   0003BA  65B1               	cpfsgt	main@PassCounter& (0+255),b
  2046   0003BC  EFE2  F001         	goto	u5601
  2047   0003C0  EFE4  F001         	goto	u5600
  2048   0003C4                     u5601:
  2049   0003C4  EF93  F001         	goto	l772
  2050   0003C8                     u5600:
  2051   0003C8                     
  2052                           ; BSR set to: 0
  2053                           ;application.c: 99:         vWriteBlockOnEEPROM((uint16)0X000A,Pass,(uint8)4);
  2054   0003C8  0E00               	movlw	0
  2055   0003CA  6E36               	movwf	(vWriteBlockOnEEPROM@u16TheStartAddress+1)^0,c
  2056   0003CC  0E0A               	movlw	10
  2057   0003CE  6E35               	movwf	vWriteBlockOnEEPROM@u16TheStartAddress^0,c
  2058   0003D0  0EA0               	movlw	low main@Pass
  2059   0003D2  6E37               	movwf	vWriteBlockOnEEPROM@Pass^0,c
  2060   0003D4  0E00               	movlw	high main@Pass
  2061   0003D6  6E38               	movwf	(vWriteBlockOnEEPROM@Pass+1)^0,c
  2062   0003D8  0E04               	movlw	4
  2063   0003DA  6E39               	movwf	vWriteBlockOnEEPROM@Size^0,c
  2064   0003DC  EC68  F012         	call	_vWriteBlockOnEEPROM	;wreg free
  2065   0003E0                     
  2066                           ;application.c: 100:         eeprom_WriteDataByte((uint16)0X0001,(uint8)0X00);
  2067   0003E0  0E00               	movlw	0
  2068   0003E2  6E32               	movwf	(eeprom_WriteDataByte@badd+1)^0,c
  2069   0003E4  0E01               	movlw	1
  2070   0003E6  6E31               	movwf	eeprom_WriteDataByte@badd^0,c
  2071   0003E8  0E00               	movlw	0
  2072   0003EA  6E33               	movwf	eeprom_WriteDataByte@data^0,c
  2073   0003EC  ECE7  F013         	call	_eeprom_WriteDataByte	;wreg free
  2074   0003F0                     
  2075                           ;application.c: 101:         lcd_4bit_send_command(&Lcd_Obj,0x01);
  2076   0003F0  0E1A               	movlw	low _Lcd_Obj
  2077   0003F2  6E3F               	movwf	lcd_4bit_send_command@_lcd^0,c
  2078   0003F4  0E00               	movlw	high _Lcd_Obj
  2079   0003F6  6E40               	movwf	(lcd_4bit_send_command@_lcd+1)^0,c
  2080   0003F8  0E01               	movlw	1
  2081   0003FA  6E41               	movwf	lcd_4bit_send_command@command^0,c
  2082   0003FC  EC94  F011         	call	_lcd_4bit_send_command	;wreg free
  2083   000400                     
  2084                           ;application.c: 102:         lcd_4bit_send_string_data(&Lcd_Obj,"Pass Saved");
  2085   000400  0E1A               	movlw	low _Lcd_Obj
  2086   000402  6E43               	movwf	lcd_4bit_send_string_data@_lcd^0,c
  2087   000404  0E00               	movlw	high _Lcd_Obj
  2088   000406  6E44               	movwf	(lcd_4bit_send_string_data@_lcd+1)^0,c
  2089   000408  0E88               	movlw	low STR_10
  2090   00040A  6E45               	movwf	lcd_4bit_send_string_data@str^0,c
  2091   00040C  0EFF               	movlw	high STR_10
  2092   00040E  6E46               	movwf	(lcd_4bit_send_string_data@str+1)^0,c
  2093   000410  ECF0  F012         	call	_lcd_4bit_send_string_data	;wreg free
  2094   000414                     
  2095                           ;application.c: 103:         _TimerDelay_ms(1000);
  2096   000414  0E03               	movlw	3
  2097   000416  6E39               	movwf	(__TimerDelay_ms@u16CopyDelay+1)^0,c
  2098   000418  0EE8               	movlw	232
  2099   00041A  6E38               	movwf	__TimerDelay_ms@u16CopyDelay^0,c
  2100   00041C  EC70  F013         	call	__TimerDelay_ms	;wreg free
  2101   000420                     
  2102                           ;application.c: 104:         lcd_4bit_send_command(&Lcd_Obj,0x01);
  2103   000420  0E1A               	movlw	low _Lcd_Obj
  2104   000422  6E3F               	movwf	lcd_4bit_send_command@_lcd^0,c
  2105   000424  0E00               	movlw	high _Lcd_Obj
  2106   000426  6E40               	movwf	(lcd_4bit_send_command@_lcd+1)^0,c
  2107   000428  0E01               	movlw	1
  2108   00042A  6E41               	movwf	lcd_4bit_send_command@command^0,c
  2109   00042C  EC94  F011         	call	_lcd_4bit_send_command	;wreg free
  2110   000430                     
  2111                           ;application.c: 105:         eeprom_WriteDataByte((uint16)0X0002,(uint8)0);
  2112   000430  0E00               	movlw	0
  2113   000432  6E32               	movwf	(eeprom_WriteDataByte@badd+1)^0,c
  2114   000434  0E02               	movlw	2
  2115   000436  6E31               	movwf	eeprom_WriteDataByte@badd^0,c
  2116   000438  0E00               	movlw	0
  2117   00043A  6E33               	movwf	eeprom_WriteDataByte@data^0,c
  2118   00043C  ECE7  F013         	call	_eeprom_WriteDataByte	;wreg free
  2119                           
  2120                           ;application.c: 106:     }
  2121   000440  EF2A  F002         	goto	l6673
  2122   000444                     l6671:
  2123                           
  2124                           ;application.c: 108:         BlockModeFlag=u8PassIsSetOrNotSet((uint16)0X0002);
  2125   000444  0E00               	movlw	0
  2126   000446  6E36               	movwf	(u8PassIsSetOrNotSet@Address+1)^0,c
  2127   000448  0E02               	movlw	2
  2128   00044A  6E35               	movwf	u8PassIsSetOrNotSet@Address^0,c
  2129   00044C  EC58  F015         	call	_u8PassIsSetOrNotSet	;wreg free
  2130   000450  0100               	movlb	0	; () banked
  2131   000452  6FAE               	movwf	main@BlockModeFlag& (0+255),b
  2132   000454                     l6673:
  2133                           
  2134                           ;application.c: 111:         u8KeyPadPressed=0XFF;
  2135   000454  0100               	movlb	0	; () banked
  2136   000456  69B5               	setf	main@u8KeyPadPressed& (0+255),b
  2137   000458                     
  2138                           ; BSR set to: 0
  2139                           ;application.c: 112:         uint8 PassTriesCount=0;
  2140   000458  0E00               	movlw	0
  2141   00045A  6FB0               	movwf	main@PassTriesCount& (0+255),b
  2142   00045C                     
  2143                           ; BSR set to: 0
  2144                           ;application.c: 113:         if(FlagTimeOut==(uint8)1){
  2145   00045C  0463               	decf	_FlagTimeOut^0,w,c
  2146   00045E  A4D8               	btfss	status,2,c
  2147   000460  EF34  F002         	goto	u5611
  2148   000464  EF36  F002         	goto	u5610
  2149   000468                     u5611:
  2150   000468  EFE8  F005         	goto	l6913
  2151   00046C                     u5610:
  2152   00046C                     
  2153                           ; BSR set to: 0
  2154                           ;application.c: 114:                 Timer1_DeInit(&Timer1Obj);
  2155   00046C  0E26               	movlw	low _Timer1Obj
  2156   00046E  6E31               	movwf	Timer1_DeInit@_timer^0,c
  2157   000470  0E00               	movlw	high _Timer1Obj
  2158   000472  6E32               	movwf	(Timer1_DeInit@_timer+1)^0,c
  2159   000474  EC4A  F015         	call	_Timer1_DeInit	;wreg free
  2160   000478                     
  2161                           ;application.c: 115:                 SessionCounter=0;
  2162   000478  0E00               	movlw	0
  2163   00047A  6E56               	movwf	(_SessionCounter+1)^0,c	;volatile
  2164   00047C  0E00               	movlw	0
  2165   00047E  6E55               	movwf	_SessionCounter^0,c	;volatile
  2166   000480                     
  2167                           ;application.c: 116:                 u8LoginMode=(uint8)0;
  2168   000480  0E00               	movlw	0
  2169   000482  0100               	movlb	0	; () banked
  2170   000484  6FB4               	movwf	main@u8LoginMode& (0+255),b
  2171   000486                     
  2172                           ; BSR set to: 0
  2173                           ;application.c: 117:                 FlagTimeOut=(uint8)0;
  2174   000486  0E00               	movlw	0
  2175   000488  6E63               	movwf	_FlagTimeOut^0,c
  2176   00048A                     
  2177                           ; BSR set to: 0
  2178                           ;application.c: 118:                 u8KeyPadPressed=0XFF;
  2179   00048A  69B5               	setf	main@u8KeyPadPressed& (0+255),b
  2180   00048C                     
  2181                           ; BSR set to: 0
  2182                           ;application.c: 119:                 led_turn_off(&ADMIN_Led);
  2183   00048C  0E2E               	movlw	low _ADMIN_Led
  2184   00048E  6E3B               	movwf	led_turn_off@led^0,c
  2185   000490  0E00               	movlw	high _ADMIN_Led
  2186   000492  6E3C               	movwf	(led_turn_off@led+1)^0,c
  2187   000494  ECAC  F010         	call	_led_turn_off	;wreg free
  2188   000498                     
  2189                           ;application.c: 120:                 led_turn_off(&GUEST_Led);
  2190   000498  0E2D               	movlw	low _GUEST_Led
  2191   00049A  6E3B               	movwf	led_turn_off@led^0,c
  2192   00049C  0E00               	movlw	high _GUEST_Led
  2193   00049E  6E3C               	movwf	(led_turn_off@led+1)^0,c
  2194   0004A0  ECAC  F010         	call	_led_turn_off	;wreg free
  2195   0004A4                     
  2196                           ;application.c: 121:                 lcd_4bit_send_command(&Lcd_Obj,0x01);
  2197   0004A4  0E1A               	movlw	low _Lcd_Obj
  2198   0004A6  6E3F               	movwf	lcd_4bit_send_command@_lcd^0,c
  2199   0004A8  0E00               	movlw	high _Lcd_Obj
  2200   0004AA  6E40               	movwf	(lcd_4bit_send_command@_lcd+1)^0,c
  2201   0004AC  0E01               	movlw	1
  2202   0004AE  6E41               	movwf	lcd_4bit_send_command@command^0,c
  2203   0004B0  EC94  F011         	call	_lcd_4bit_send_command	;wreg free
  2204   0004B4                     
  2205                           ;application.c: 122:                 lcd_4bit_send_string_data(&Lcd_Obj,"Session Timeout
      +                          ");
  2206   0004B4  0E1A               	movlw	low _Lcd_Obj
  2207   0004B6  6E43               	movwf	lcd_4bit_send_string_data@_lcd^0,c
  2208   0004B8  0E00               	movlw	high _Lcd_Obj
  2209   0004BA  6E44               	movwf	(lcd_4bit_send_string_data@_lcd+1)^0,c
  2210   0004BC  0EDB               	movlw	low STR_14
  2211   0004BE  6E45               	movwf	lcd_4bit_send_string_data@str^0,c
  2212   0004C0  0EFE               	movlw	high STR_14
  2213   0004C2  6E46               	movwf	(lcd_4bit_send_string_data@str+1)^0,c
  2214   0004C4  ECF0  F012         	call	_lcd_4bit_send_string_data	;wreg free
  2215   0004C8                     l6697:
  2216                           
  2217                           ;application.c: 123:                 _TimerDelay_ms(1000);
  2218   0004C8  0E03               	movlw	3
  2219   0004CA  6E39               	movwf	(__TimerDelay_ms@u16CopyDelay+1)^0,c
  2220   0004CC  0EE8               	movlw	232
  2221   0004CE  6E38               	movwf	__TimerDelay_ms@u16CopyDelay^0,c
  2222   0004D0  EC70  F013         	call	__TimerDelay_ms	;wreg free
  2223   0004D4  EFE8  F005         	goto	l6913
  2224   0004D8                     l6699:
  2225                           
  2226                           ; BSR set to: 0
  2227                           ;application.c: 126:             if(BlockModeFlag==(uint8)1){
  2228   0004D8  05AE               	decf	main@BlockModeFlag& (0+255),w,b
  2229   0004DA  A4D8               	btfss	status,2,c
  2230   0004DC  EF72  F002         	goto	u5621
  2231   0004E0  EF74  F002         	goto	u5620
  2232   0004E4                     u5621:
  2233   0004E4  EFBA  F002         	goto	l6721
  2234   0004E8                     u5620:
  2235   0004E8                     
  2236                           ; BSR set to: 0
  2237                           ;application.c: 127:                 lcd_4bit_send_command(&Lcd_Obj,0x01);
  2238   0004E8  0E1A               	movlw	low _Lcd_Obj
  2239   0004EA  6E3F               	movwf	lcd_4bit_send_command@_lcd^0,c
  2240   0004EC  0E00               	movlw	high _Lcd_Obj
  2241   0004EE  6E40               	movwf	(lcd_4bit_send_command@_lcd+1)^0,c
  2242   0004F0  0E01               	movlw	1
  2243   0004F2  6E41               	movwf	lcd_4bit_send_command@command^0,c
  2244   0004F4  EC94  F011         	call	_lcd_4bit_send_command	;wreg free
  2245   0004F8                     
  2246                           ;application.c: 128:                 lcd_4bit_send_string_data(&Lcd_Obj,"Login Blocked")
      +                          ;
  2247   0004F8  0E1A               	movlw	low _Lcd_Obj
  2248   0004FA  6E43               	movwf	lcd_4bit_send_string_data@_lcd^0,c
  2249   0004FC  0E00               	movlw	high _Lcd_Obj
  2250   0004FE  6E44               	movwf	(lcd_4bit_send_string_data@_lcd+1)^0,c
  2251   000500  0E08               	movlw	low STR_15
  2252   000502  6E45               	movwf	lcd_4bit_send_string_data@str^0,c
  2253   000504  0EFF               	movlw	high STR_15
  2254   000506  6E46               	movwf	(lcd_4bit_send_string_data@str+1)^0,c
  2255   000508  ECF0  F012         	call	_lcd_4bit_send_string_data	;wreg free
  2256   00050C                     
  2257                           ;application.c: 129:                 set_cursor_4bit_mode(&Lcd_Obj,2,1);
  2258   00050C  0E1A               	movlw	low _Lcd_Obj
  2259   00050E  6E43               	movwf	set_cursor_4bit_mode@_lcd^0,c
  2260   000510  0E00               	movlw	high _Lcd_Obj
  2261   000512  6E44               	movwf	(set_cursor_4bit_mode@_lcd+1)^0,c
  2262   000514  0E02               	movlw	2
  2263   000516  6E45               	movwf	set_cursor_4bit_mode@row^0,c
  2264   000518  0E01               	movlw	1
  2265   00051A  6E46               	movwf	set_cursor_4bit_mode@column^0,c
  2266   00051C  ECCC  F00D         	call	_set_cursor_4bit_mode	;wreg free
  2267                           
  2268                           ;application.c: 130:                 lcd_4bit_send_string_data(&Lcd_Obj,"Wait 20 Seconds
      +                          ");
  2269   000520  0E1A               	movlw	low _Lcd_Obj
  2270   000522  6E43               	movwf	lcd_4bit_send_string_data@_lcd^0,c
  2271   000524  0E00               	movlw	high _Lcd_Obj
  2272   000526  6E44               	movwf	(lcd_4bit_send_string_data@_lcd+1)^0,c
  2273   000528  0ECB               	movlw	low STR_16
  2274   00052A  6E45               	movwf	lcd_4bit_send_string_data@str^0,c
  2275   00052C  0EFE               	movlw	high STR_16
  2276   00052E  6E46               	movwf	(lcd_4bit_send_string_data@str+1)^0,c
  2277   000530  ECF0  F012         	call	_lcd_4bit_send_string_data	;wreg free
  2278   000534                     
  2279                           ;application.c: 131:                 led_turn_on(&BLOCK_Led);
  2280   000534  0E2C               	movlw	low _BLOCK_Led
  2281   000536  6E3B               	movwf	led_turn_on@led^0,c
  2282   000538  0E00               	movlw	high _BLOCK_Led
  2283   00053A  6E3C               	movwf	(led_turn_on@led+1)^0,c
  2284   00053C  EC71  F010         	call	_led_turn_on	;wreg free
  2285   000540                     
  2286                           ;application.c: 132:                 _TimerDelay_ms((uint32)20000);
  2287   000540  0E4E               	movlw	78
  2288   000542  6E39               	movwf	(__TimerDelay_ms@u16CopyDelay+1)^0,c
  2289   000544  0E20               	movlw	32
  2290   000546  6E38               	movwf	__TimerDelay_ms@u16CopyDelay^0,c
  2291   000548  EC70  F013         	call	__TimerDelay_ms	;wreg free
  2292   00054C                     
  2293                           ;application.c: 133:                 PassTriesCount=0;
  2294   00054C  0E00               	movlw	0
  2295   00054E  0100               	movlb	0	; () banked
  2296   000550  6FB0               	movwf	main@PassTriesCount& (0+255),b
  2297   000552                     
  2298                           ; BSR set to: 0
  2299                           ;application.c: 134:                 BlockModeFlag=(uint8)0;
  2300   000552  0E00               	movlw	0
  2301   000554  6FAE               	movwf	main@BlockModeFlag& (0+255),b
  2302   000556                     
  2303                           ; BSR set to: 0
  2304                           ;application.c: 135:                 u8KeyPadPressed=0XFF;
  2305   000556  69B5               	setf	main@u8KeyPadPressed& (0+255),b
  2306   000558                     
  2307                           ; BSR set to: 0
  2308                           ;application.c: 136:                 led_turn_off(&BLOCK_Led);
  2309   000558  0E2C               	movlw	low _BLOCK_Led
  2310   00055A  6E3B               	movwf	led_turn_off@led^0,c
  2311   00055C  0E00               	movlw	high _BLOCK_Led
  2312   00055E  6E3C               	movwf	(led_turn_off@led+1)^0,c
  2313   000560  ECAC  F010         	call	_led_turn_off	;wreg free
  2314   000564                     
  2315                           ;application.c: 137:                 eeprom_WriteDataByte((uint16)0X0002,(uint8)0);
  2316   000564  0E00               	movlw	0
  2317   000566  6E32               	movwf	(eeprom_WriteDataByte@badd+1)^0,c
  2318   000568  0E02               	movlw	2
  2319   00056A  6E31               	movwf	eeprom_WriteDataByte@badd^0,c
  2320   00056C  0E00               	movlw	0
  2321   00056E  6E33               	movwf	eeprom_WriteDataByte@data^0,c
  2322   000570  ECE7  F013         	call	_eeprom_WriteDataByte	;wreg free
  2323   000574                     l6721:
  2324                           
  2325                           ;application.c: 139:             lcd_4bit_send_command(&Lcd_Obj,0x01);
  2326   000574  0E1A               	movlw	low _Lcd_Obj
  2327   000576  6E3F               	movwf	lcd_4bit_send_command@_lcd^0,c
  2328   000578  0E00               	movlw	high _Lcd_Obj
  2329   00057A  6E40               	movwf	(lcd_4bit_send_command@_lcd+1)^0,c
  2330   00057C  0E01               	movlw	1
  2331   00057E  6E41               	movwf	lcd_4bit_send_command@command^0,c
  2332   000580  EC94  F011         	call	_lcd_4bit_send_command	;wreg free
  2333   000584                     
  2334                           ;application.c: 140:             lcd_4bit_send_string_data(&Lcd_Obj,"Select Mode :");
  2335   000584  0E1A               	movlw	low _Lcd_Obj
  2336   000586  6E43               	movwf	lcd_4bit_send_string_data@_lcd^0,c
  2337   000588  0E00               	movlw	high _Lcd_Obj
  2338   00058A  6E44               	movwf	(lcd_4bit_send_string_data@_lcd+1)^0,c
  2339   00058C  0EFA               	movlw	low STR_17
  2340   00058E  6E45               	movwf	lcd_4bit_send_string_data@str^0,c
  2341   000590  0EFE               	movlw	high STR_17
  2342   000592  6E46               	movwf	(lcd_4bit_send_string_data@str+1)^0,c
  2343   000594  ECF0  F012         	call	_lcd_4bit_send_string_data	;wreg free
  2344   000598                     
  2345                           ;application.c: 141:             set_cursor_4bit_mode(&Lcd_Obj,2,1);
  2346   000598  0E1A               	movlw	low _Lcd_Obj
  2347   00059A  6E43               	movwf	set_cursor_4bit_mode@_lcd^0,c
  2348   00059C  0E00               	movlw	high _Lcd_Obj
  2349   00059E  6E44               	movwf	(set_cursor_4bit_mode@_lcd+1)^0,c
  2350   0005A0  0E02               	movlw	2
  2351   0005A2  6E45               	movwf	set_cursor_4bit_mode@row^0,c
  2352   0005A4  0E01               	movlw	1
  2353   0005A6  6E46               	movwf	set_cursor_4bit_mode@column^0,c
  2354   0005A8  ECCC  F00D         	call	_set_cursor_4bit_mode	;wreg free
  2355   0005AC                     
  2356                           ;application.c: 142:             lcd_4bit_send_string_data(&Lcd_Obj,"0:Admin  1:Guest");
  2357   0005AC  0E1A               	movlw	low _Lcd_Obj
  2358   0005AE  6E43               	movwf	lcd_4bit_send_string_data@_lcd^0,c
  2359   0005B0  0E00               	movlw	high _Lcd_Obj
  2360   0005B2  6E44               	movwf	(lcd_4bit_send_string_data@_lcd+1)^0,c
  2361   0005B4  0E5A               	movlw	low STR_18
  2362   0005B6  6E45               	movwf	lcd_4bit_send_string_data@str^0,c
  2363   0005B8  0EFE               	movlw	high STR_18
  2364   0005BA  6E46               	movwf	(lcd_4bit_send_string_data@str+1)^0,c
  2365   0005BC  ECF0  F012         	call	_lcd_4bit_send_string_data	;wreg free
  2366   0005C0                     
  2367                           ;application.c: 143:             u8KeyPadPressed=0XFF;
  2368   0005C0  0100               	movlb	0	; () banked
  2369   0005C2  69B5               	setf	main@u8KeyPadPressed& (0+255),b
  2370                           
  2371                           ;application.c: 144:             while(u8KeyPadPressed == 0XFF){
  2372   0005C4  EFEE  F002         	goto	l6733
  2373   0005C8                     l6731:
  2374                           
  2375                           ; BSR set to: 0
  2376                           ;application.c: 145:                 keypad_get_value(&Keypad_Obj,&u8KeyPadPressed);
  2377   0005C8  0E12               	movlw	low _Keypad_Obj
  2378   0005CA  6E3B               	movwf	keypad_get_value@_keypad_obj^0,c
  2379   0005CC  0E00               	movlw	high _Keypad_Obj
  2380   0005CE  6E3C               	movwf	(keypad_get_value@_keypad_obj+1)^0,c
  2381   0005D0  0EB5               	movlw	low main@u8KeyPadPressed
  2382   0005D2  6E3D               	movwf	keypad_get_value@value^0,c
  2383   0005D4  0E00               	movlw	high main@u8KeyPadPressed
  2384   0005D6  6E3E               	movwf	(keypad_get_value@value+1)^0,c
  2385   0005D8  EC48  F00D         	call	_keypad_get_value	;wreg free
  2386   0005DC                     l6733:
  2387                           
  2388                           ;application.c: 144:             while(u8KeyPadPressed == 0XFF){
  2389   0005DC  0100               	movlb	0	; () banked
  2390   0005DE  29B5               	incf	main@u8KeyPadPressed& (0+255),w,b
  2391   0005E0  B4D8               	btfsc	status,2,c
  2392   0005E2  EFF5  F002         	goto	u5631
  2393   0005E6  EFF7  F002         	goto	u5630
  2394   0005EA                     u5631:
  2395   0005EA  EFE4  F002         	goto	l6731
  2396   0005EE                     u5630:
  2397   0005EE                     
  2398                           ; BSR set to: 0
  2399                           ;application.c: 147:             if((u8KeyPadPressed != (uint8)'0') && (u8KeyPadPressed!
      +                          =(uint8)'1') ){
  2400   0005EE  0E30               	movlw	48
  2401   0005F0  19B5               	xorwf	main@u8KeyPadPressed& (0+255),w,b
  2402   0005F2  B4D8               	btfsc	status,2,c
  2403   0005F4  EFFE  F002         	goto	u5641
  2404   0005F8  EF00  F003         	goto	u5640
  2405   0005FC                     u5641:
  2406   0005FC  EF1D  F003         	goto	l6745
  2407   000600                     u5640:
  2408   000600                     
  2409                           ; BSR set to: 0
  2410   000600  0E31               	movlw	49
  2411   000602  19B5               	xorwf	main@u8KeyPadPressed& (0+255),w,b
  2412   000604  B4D8               	btfsc	status,2,c
  2413   000606  EF07  F003         	goto	u5651
  2414   00060A  EF09  F003         	goto	u5650
  2415   00060E                     u5651:
  2416   00060E  EF1D  F003         	goto	l6745
  2417   000612                     u5650:
  2418   000612                     
  2419                           ; BSR set to: 0
  2420                           ;application.c: 148:                 lcd_4bit_send_command(&Lcd_Obj,0x01);
  2421   000612  0E1A               	movlw	low _Lcd_Obj
  2422   000614  6E3F               	movwf	lcd_4bit_send_command@_lcd^0,c
  2423   000616  0E00               	movlw	high _Lcd_Obj
  2424   000618  6E40               	movwf	(lcd_4bit_send_command@_lcd+1)^0,c
  2425   00061A  0E01               	movlw	1
  2426   00061C  6E41               	movwf	lcd_4bit_send_command@command^0,c
  2427   00061E  EC94  F011         	call	_lcd_4bit_send_command	;wreg free
  2428   000622                     
  2429                           ;application.c: 149:                 lcd_4bit_send_string_data(&Lcd_Obj,"Wrong Input");
  2430   000622  0E1A               	movlw	low _Lcd_Obj
  2431   000624  6E43               	movwf	lcd_4bit_send_string_data@_lcd^0,c
  2432   000626  0E00               	movlw	high _Lcd_Obj
  2433   000628  6E44               	movwf	(lcd_4bit_send_string_data@_lcd+1)^0,c
  2434   00062A  0E7C               	movlw	low STR_19
  2435   00062C  6E45               	movwf	lcd_4bit_send_string_data@str^0,c
  2436   00062E  0EFF               	movlw	high STR_19
  2437   000630  6E46               	movwf	(lcd_4bit_send_string_data@str+1)^0,c
  2438   000632  ECF0  F012         	call	_lcd_4bit_send_string_data	;wreg free
  2439   000636  EF64  F002         	goto	l6697
  2440   00063A                     l6745:
  2441                           
  2442                           ; BSR set to: 0
  2443                           ;application.c: 153:             uint8 PassCounter=0;
  2444   00063A  0E00               	movlw	0
  2445   00063C  6FB3               	movwf	main@PassCounter_1957& (0+255),b
  2446   00063E                     
  2447                           ; BSR set to: 0
  2448                           ;application.c: 154:             uint8 Pass[(uint8)4]={0XFF,0XFF,0XFF,0XFF};
  2449   00063E  C098  F0A8         	movff	main@F3277,main@Pass_1959
  2450   000642  C099  F0A9         	movff	main@F3277+1,main@Pass_1959+1
  2451   000646  C09A  F0AA         	movff	main@F3277+2,main@Pass_1959+2
  2452   00064A  C09B  F0AB         	movff	main@F3277+3,main@Pass_1959+3
  2453   00064E                     
  2454                           ; BSR set to: 0
  2455                           ;application.c: 155:             uint8 PassStored[(uint8)4]={0XFF,0XFF,0XFF,0XFF};
  2456   00064E  C094  F0A4         	movff	main@F3279,main@PassStored
  2457   000652  C095  F0A5         	movff	main@F3279+1,main@PassStored+1
  2458   000656  C096  F0A6         	movff	main@F3279+2,main@PassStored+2
  2459   00065A  C097  F0A7         	movff	main@F3279+3,main@PassStored+3
  2460                           
  2461                           ;application.c: 157:             switch(u8KeyPadPressed){
  2462   00065E  EFD3  F005         	goto	l6911
  2463   000662                     l794:
  2464                           
  2465                           ; BSR set to: 0
  2466                           ;application.c: 160:                     u8KeyPadPressed=0XFF;
  2467   000662  69B5               	setf	main@u8KeyPadPressed& (0+255),b
  2468   000664                     
  2469                           ; BSR set to: 0
  2470                           ;application.c: 161:                     lcd_4bit_send_command(&Lcd_Obj,0x01);
  2471   000664  0E1A               	movlw	low _Lcd_Obj
  2472   000666  6E3F               	movwf	lcd_4bit_send_command@_lcd^0,c
  2473   000668  0E00               	movlw	high _Lcd_Obj
  2474   00066A  6E40               	movwf	(lcd_4bit_send_command@_lcd+1)^0,c
  2475   00066C  0E01               	movlw	1
  2476   00066E  6E41               	movwf	lcd_4bit_send_command@command^0,c
  2477   000670  EC94  F011         	call	_lcd_4bit_send_command	;wreg free
  2478   000674                     
  2479                           ;application.c: 162:                     lcd_4bit_send_string_data(&Lcd_Obj,"Admin Mode"
      +                          );
  2480   000674  0E1A               	movlw	low _Lcd_Obj
  2481   000676  6E43               	movwf	lcd_4bit_send_string_data@_lcd^0,c
  2482   000678  0E00               	movlw	high _Lcd_Obj
  2483   00067A  6E44               	movwf	(lcd_4bit_send_string_data@_lcd+1)^0,c
  2484   00067C  0E93               	movlw	low STR_20
  2485   00067E  6E45               	movwf	lcd_4bit_send_string_data@str^0,c
  2486   000680  0EFF               	movlw	high STR_20
  2487   000682  6E46               	movwf	(lcd_4bit_send_string_data@str+1)^0,c
  2488   000684  ECF0  F012         	call	_lcd_4bit_send_string_data	;wreg free
  2489   000688                     
  2490                           ;application.c: 163:                     set_cursor_4bit_mode(&Lcd_Obj,2,1);
  2491   000688  0E1A               	movlw	low _Lcd_Obj
  2492   00068A  6E43               	movwf	set_cursor_4bit_mode@_lcd^0,c
  2493   00068C  0E00               	movlw	high _Lcd_Obj
  2494   00068E  6E44               	movwf	(set_cursor_4bit_mode@_lcd+1)^0,c
  2495   000690  0E02               	movlw	2
  2496   000692  6E45               	movwf	set_cursor_4bit_mode@row^0,c
  2497   000694  0E01               	movlw	1
  2498   000696  6E46               	movwf	set_cursor_4bit_mode@column^0,c
  2499   000698  ECCC  F00D         	call	_set_cursor_4bit_mode	;wreg free
  2500                           
  2501                           ;application.c: 164:                     lcd_4bit_send_string_data(&Lcd_Obj,"Admin Pass:
      +                          ");
  2502   00069C  0E1A               	movlw	low _Lcd_Obj
  2503   00069E  6E43               	movwf	lcd_4bit_send_string_data@_lcd^0,c
  2504   0006A0  0E00               	movlw	high _Lcd_Obj
  2505   0006A2  6E44               	movwf	(lcd_4bit_send_string_data@_lcd+1)^0,c
  2506   0006A4  0E58               	movlw	low STR_9
  2507   0006A6  6E45               	movwf	lcd_4bit_send_string_data@str^0,c
  2508   0006A8  0EFF               	movlw	high STR_9
  2509   0006AA  6E46               	movwf	(lcd_4bit_send_string_data@str+1)^0,c
  2510   0006AC  ECF0  F012         	call	_lcd_4bit_send_string_data	;wreg free
  2511   0006B0                     
  2512                           ;application.c: 165:                     _TimerDelay_ms(200);
  2513   0006B0  0E00               	movlw	0
  2514   0006B2  6E39               	movwf	(__TimerDelay_ms@u16CopyDelay+1)^0,c
  2515   0006B4  0EC8               	movlw	200
  2516   0006B6  6E38               	movwf	__TimerDelay_ms@u16CopyDelay^0,c
  2517   0006B8  EC70  F013         	call	__TimerDelay_ms	;wreg free
  2518                           
  2519                           ;application.c: 166:                     while(PassCounter < (uint8)4){
  2520   0006BC  EFA8  F003         	goto	l6777
  2521   0006C0                     l796:
  2522                           
  2523                           ; BSR set to: 0
  2524                           ;application.c: 167:                         u8KeyPadPressed=0XFF;
  2525   0006C0  69B5               	setf	main@u8KeyPadPressed& (0+255),b
  2526                           
  2527                           ;application.c: 168:                         while(u8KeyPadPressed == 0XFF){
  2528   0006C2  EF6D  F003         	goto	l6761
  2529   0006C6                     l6759:
  2530                           
  2531                           ; BSR set to: 0
  2532                           ;application.c: 169:                            keypad_get_value(&Keypad_Obj,&u8KeyPadPr
      +                          essed);
  2533   0006C6  0E12               	movlw	low _Keypad_Obj
  2534   0006C8  6E3B               	movwf	keypad_get_value@_keypad_obj^0,c
  2535   0006CA  0E00               	movlw	high _Keypad_Obj
  2536   0006CC  6E3C               	movwf	(keypad_get_value@_keypad_obj+1)^0,c
  2537   0006CE  0EB5               	movlw	low main@u8KeyPadPressed
  2538   0006D0  6E3D               	movwf	keypad_get_value@value^0,c
  2539   0006D2  0E00               	movlw	high main@u8KeyPadPressed
  2540   0006D4  6E3E               	movwf	(keypad_get_value@value+1)^0,c
  2541   0006D6  EC48  F00D         	call	_keypad_get_value	;wreg free
  2542   0006DA                     l6761:
  2543                           
  2544                           ;application.c: 168:                         while(u8KeyPadPressed == 0XFF){
  2545   0006DA  0100               	movlb	0	; () banked
  2546   0006DC  29B5               	incf	main@u8KeyPadPressed& (0+255),w,b
  2547   0006DE  B4D8               	btfsc	status,2,c
  2548   0006E0  EF74  F003         	goto	u5661
  2549   0006E4  EF76  F003         	goto	u5660
  2550   0006E8                     u5661:
  2551   0006E8  EF63  F003         	goto	l6759
  2552   0006EC                     u5660:
  2553   0006EC                     
  2554                           ; BSR set to: 0
  2555                           ;application.c: 171:                         Pass[PassCounter]=u8KeyPadPressed;
  2556   0006EC  0EA8               	movlw	low main@Pass_1959
  2557   0006EE  25B3               	addwf	main@PassCounter_1957& (0+255),w,b
  2558   0006F0  6ED9               	movwf	fsr2l,c
  2559   0006F2  6ADA               	clrf	fsr2h,c
  2560   0006F4  0E00               	movlw	high main@Pass_1959
  2561   0006F6  22DA               	addwfc	fsr2h,f,c
  2562   0006F8  C0B5  FFDF         	movff	main@u8KeyPadPressed,indf2
  2563   0006FC                     
  2564                           ; BSR set to: 0
  2565                           ;application.c: 172:                         lcd_4bit_send_char_data(&Lcd_Obj,u8KeyPadPr
      +                          essed);
  2566   0006FC  0E1A               	movlw	low _Lcd_Obj
  2567   0006FE  6E3F               	movwf	lcd_4bit_send_char_data@_lcd^0,c
  2568   000700  0E00               	movlw	high _Lcd_Obj
  2569   000702  6E40               	movwf	(lcd_4bit_send_char_data@_lcd+1)^0,c
  2570   000704  C0B5  F041         	movff	main@u8KeyPadPressed,lcd_4bit_send_char_data@data
  2571   000708  EC22  F011         	call	_lcd_4bit_send_char_data	;wreg free
  2572   00070C                     
  2573                           ;application.c: 173:                         _TimerDelay_ms((uint16)300);
  2574   00070C  0E01               	movlw	1
  2575   00070E  6E39               	movwf	(__TimerDelay_ms@u16CopyDelay+1)^0,c
  2576   000710  0E2C               	movlw	44
  2577   000712  6E38               	movwf	__TimerDelay_ms@u16CopyDelay^0,c
  2578   000714  EC70  F013         	call	__TimerDelay_ms	;wreg free
  2579   000718                     
  2580                           ;application.c: 174:                         set_cursor_4bit_mode(&Lcd_Obj,2,12+PassCoun
      +                          ter);
  2581   000718  0E1A               	movlw	low _Lcd_Obj
  2582   00071A  6E43               	movwf	set_cursor_4bit_mode@_lcd^0,c
  2583   00071C  0E00               	movlw	high _Lcd_Obj
  2584   00071E  6E44               	movwf	(set_cursor_4bit_mode@_lcd+1)^0,c
  2585   000720  0E02               	movlw	2
  2586   000722  6E45               	movwf	set_cursor_4bit_mode@row^0,c
  2587   000724  0100               	movlb	0	; () banked
  2588   000726  51B3               	movf	main@PassCounter_1957& (0+255),w,b
  2589   000728  0F0C               	addlw	12
  2590   00072A  6E46               	movwf	set_cursor_4bit_mode@column^0,c
  2591   00072C  ECCC  F00D         	call	_set_cursor_4bit_mode	;wreg free
  2592   000730                     
  2593                           ;application.c: 175:                         lcd_4bit_send_char_data(&Lcd_Obj,(uint8)'*'
      +                          );
  2594   000730  0E1A               	movlw	low _Lcd_Obj
  2595   000732  6E3F               	movwf	lcd_4bit_send_char_data@_lcd^0,c
  2596   000734  0E00               	movlw	high _Lcd_Obj
  2597   000736  6E40               	movwf	(lcd_4bit_send_char_data@_lcd+1)^0,c
  2598   000738  0E2A               	movlw	42
  2599   00073A  6E41               	movwf	lcd_4bit_send_char_data@data^0,c
  2600   00073C  EC22  F011         	call	_lcd_4bit_send_char_data	;wreg free
  2601   000740                     
  2602                           ;application.c: 176:                         _TimerDelay_ms(100);
  2603   000740  0E00               	movlw	0
  2604   000742  6E39               	movwf	(__TimerDelay_ms@u16CopyDelay+1)^0,c
  2605   000744  0E64               	movlw	100
  2606   000746  6E38               	movwf	__TimerDelay_ms@u16CopyDelay^0,c
  2607   000748  EC70  F013         	call	__TimerDelay_ms	;wreg free
  2608   00074C                     
  2609                           ;application.c: 177:                         PassCounter++;
  2610   00074C  0100               	movlb	0	; () banked
  2611   00074E  2BB3               	incf	main@PassCounter_1957& (0+255),f,b
  2612   000750                     l6777:
  2613                           
  2614                           ;application.c: 166:                     while(PassCounter < (uint8)4){
  2615   000750  0E03               	movlw	3
  2616   000752  0100               	movlb	0	; () banked
  2617   000754  65B3               	cpfsgt	main@PassCounter_1957& (0+255),b
  2618   000756  EFAF  F003         	goto	u5671
  2619   00075A  EFB1  F003         	goto	u5670
  2620   00075E                     u5671:
  2621   00075E  EF60  F003         	goto	l796
  2622   000762                     u5670:
  2623   000762                     
  2624                           ; BSR set to: 0
  2625                           ;application.c: 179:                     PassCounter=0;
  2626   000762  0E00               	movlw	0
  2627   000764  6FB3               	movwf	main@PassCounter_1957& (0+255),b
  2628   000766                     
  2629                           ; BSR set to: 0
  2630                           ;application.c: 180:                     vReadBlockOnEEPROM((uint16)0X0003,PassStored,(u
      +                          int8)4);
  2631   000766  0E00               	movlw	0
  2632   000768  6E36               	movwf	(vReadBlockOnEEPROM@u16TheStartAddress+1)^0,c
  2633   00076A  0E03               	movlw	3
  2634   00076C  6E35               	movwf	vReadBlockOnEEPROM@u16TheStartAddress^0,c
  2635   00076E  0EA4               	movlw	low main@PassStored
  2636   000770  6E37               	movwf	vReadBlockOnEEPROM@Pass^0,c
  2637   000772  0E00               	movlw	high main@PassStored
  2638   000774  6E38               	movwf	(vReadBlockOnEEPROM@Pass+1)^0,c
  2639   000776  0E04               	movlw	4
  2640   000778  6E39               	movwf	vReadBlockOnEEPROM@Size^0,c
  2641   00077A  EC97  F012         	call	_vReadBlockOnEEPROM	;wreg free
  2642   00077E                     
  2643                           ;application.c: 182:                     if((uint8)1==u8ComparePass(PassStored,Pass,(uin
      +                          t8)4)){
  2644   00077E  0EA4               	movlw	low main@PassStored
  2645   000780  6E31               	movwf	u8ComparePass@Pass1^0,c
  2646   000782  0E00               	movlw	high main@PassStored
  2647   000784  6E32               	movwf	(u8ComparePass@Pass1+1)^0,c
  2648   000786  0EA8               	movlw	low main@Pass_1959
  2649   000788  6E33               	movwf	u8ComparePass@Pass2^0,c
  2650   00078A  0E00               	movlw	high main@Pass_1959
  2651   00078C  6E34               	movwf	(u8ComparePass@Pass2+1)^0,c
  2652   00078E  0E04               	movlw	4
  2653   000790  6E35               	movwf	u8ComparePass@Size^0,c
  2654   000792  EC1B  F013         	call	_u8ComparePass	;wreg free
  2655   000796  06E8               	decf	wreg,f,c
  2656   000798  A4D8               	btfss	status,2,c
  2657   00079A  EFD1  F003         	goto	u5681
  2658   00079E  EFD3  F003         	goto	u5680
  2659   0007A2                     u5681:
  2660   0007A2  EF1A  F004         	goto	l6803
  2661   0007A6                     u5680:
  2662   0007A6                     
  2663                           ;application.c: 183:                         u8LoginMode=(uint8)1;
  2664   0007A6  0E01               	movlw	1
  2665   0007A8  0100               	movlb	0	; () banked
  2666   0007AA  6FB4               	movwf	main@u8LoginMode& (0+255),b
  2667                           
  2668                           ;application.c: 184:                         PassTriesCount=0;
  2669   0007AC  0E00               	movlw	0
  2670   0007AE  6FB0               	movwf	main@PassTriesCount& (0+255),b
  2671   0007B0                     
  2672                           ; BSR set to: 0
  2673                           ;application.c: 185:                         lcd_4bit_send_command(&Lcd_Obj,0x01);
  2674   0007B0  0E1A               	movlw	low _Lcd_Obj
  2675   0007B2  6E3F               	movwf	lcd_4bit_send_command@_lcd^0,c
  2676   0007B4  0E00               	movlw	high _Lcd_Obj
  2677   0007B6  6E40               	movwf	(lcd_4bit_send_command@_lcd+1)^0,c
  2678   0007B8  0E01               	movlw	1
  2679   0007BA  6E41               	movwf	lcd_4bit_send_command@command^0,c
  2680   0007BC  EC94  F011         	call	_lcd_4bit_send_command	;wreg free
  2681   0007C0                     
  2682                           ;application.c: 186:                         lcd_4bit_send_string_data(&Lcd_Obj,"Correct
      +                           Pass");
  2683   0007C0  0E1A               	movlw	low _Lcd_Obj
  2684   0007C2  6E43               	movwf	lcd_4bit_send_string_data@_lcd^0,c
  2685   0007C4  0E00               	movlw	high _Lcd_Obj
  2686   0007C6  6E44               	movwf	(lcd_4bit_send_string_data@_lcd+1)^0,c
  2687   0007C8  0E4B               	movlw	low STR_22
  2688   0007CA  6E45               	movwf	lcd_4bit_send_string_data@str^0,c
  2689   0007CC  0EFF               	movlw	high STR_22
  2690   0007CE  6E46               	movwf	(lcd_4bit_send_string_data@str+1)^0,c
  2691   0007D0  ECF0  F012         	call	_lcd_4bit_send_string_data	;wreg free
  2692   0007D4                     
  2693                           ;application.c: 187:                         set_cursor_4bit_mode(&Lcd_Obj,2,1);
  2694   0007D4  0E1A               	movlw	low _Lcd_Obj
  2695   0007D6  6E43               	movwf	set_cursor_4bit_mode@_lcd^0,c
  2696   0007D8  0E00               	movlw	high _Lcd_Obj
  2697   0007DA  6E44               	movwf	(set_cursor_4bit_mode@_lcd+1)^0,c
  2698   0007DC  0E02               	movlw	2
  2699   0007DE  6E45               	movwf	set_cursor_4bit_mode@row^0,c
  2700   0007E0  0E01               	movlw	1
  2701   0007E2  6E46               	movwf	set_cursor_4bit_mode@column^0,c
  2702   0007E4  ECCC  F00D         	call	_set_cursor_4bit_mode	;wreg free
  2703   0007E8                     
  2704                           ;application.c: 188:                         lcd_4bit_send_string_data(&Lcd_Obj,"Admin M
      +                          ode");
  2705   0007E8  0E1A               	movlw	low _Lcd_Obj
  2706   0007EA  6E43               	movwf	lcd_4bit_send_string_data@_lcd^0,c
  2707   0007EC  0E00               	movlw	high _Lcd_Obj
  2708   0007EE  6E44               	movwf	(lcd_4bit_send_string_data@_lcd+1)^0,c
  2709   0007F0  0E93               	movlw	low STR_20
  2710   0007F2  6E45               	movwf	lcd_4bit_send_string_data@str^0,c
  2711   0007F4  0EFF               	movlw	high STR_20
  2712   0007F6  6E46               	movwf	(lcd_4bit_send_string_data@str+1)^0,c
  2713   0007F8  ECF0  F012         	call	_lcd_4bit_send_string_data	;wreg free
  2714   0007FC                     
  2715                           ;application.c: 189:                         _TimerDelay_ms(1000);
  2716   0007FC  0E03               	movlw	3
  2717   0007FE  6E39               	movwf	(__TimerDelay_ms@u16CopyDelay+1)^0,c
  2718   000800  0EE8               	movlw	232
  2719   000802  6E38               	movwf	__TimerDelay_ms@u16CopyDelay^0,c
  2720   000804  EC70  F013         	call	__TimerDelay_ms	;wreg free
  2721   000808                     
  2722                           ;application.c: 190:                         led_turn_on(&ADMIN_Led);
  2723   000808  0E2E               	movlw	low _ADMIN_Led
  2724   00080A  6E3B               	movwf	led_turn_on@led^0,c
  2725   00080C  0E00               	movlw	high _ADMIN_Led
  2726   00080E  6E3C               	movwf	(led_turn_on@led+1)^0,c
  2727   000810  EC71  F010         	call	_led_turn_on	;wreg free
  2728   000814                     
  2729                           ;application.c: 191:                         Timer1_Init(&Timer1Obj);
  2730   000814  0E26               	movlw	low _Timer1Obj
  2731   000816  6E33               	movwf	Timer1_Init@_timer^0,c
  2732   000818  0E00               	movlw	high _Timer1Obj
  2733   00081A  6E34               	movwf	(Timer1_Init@_timer+1)^0,c
  2734   00081C  EC87  F00E         	call	_Timer1_Init	;wreg free
  2735   000820                     
  2736                           ;application.c: 192:                         lcd_4bit_send_command(&Lcd_Obj,0x01);
  2737   000820  0E1A               	movlw	low _Lcd_Obj
  2738   000822  6E3F               	movwf	lcd_4bit_send_command@_lcd^0,c
  2739   000824  0E00               	movlw	high _Lcd_Obj
  2740   000826  6E40               	movwf	(lcd_4bit_send_command@_lcd+1)^0,c
  2741   000828  0E01               	movlw	1
  2742   00082A  6E41               	movwf	lcd_4bit_send_command@command^0,c
  2743   00082C  EC94  F011         	call	_lcd_4bit_send_command	;wreg free
  2744                           
  2745                           ;application.c: 193:                     }
  2746   000830  EF86  F004         	goto	l6829
  2747   000834                     l6803:
  2748   000834  0EA4               	movlw	low main@PassStored
  2749   000836  6E31               	movwf	u8ComparePass@Pass1^0,c
  2750   000838  0E00               	movlw	high main@PassStored
  2751   00083A  6E32               	movwf	(u8ComparePass@Pass1+1)^0,c
  2752   00083C  0EA8               	movlw	low main@Pass_1959
  2753   00083E  6E33               	movwf	u8ComparePass@Pass2^0,c
  2754   000840  0E00               	movlw	high main@Pass_1959
  2755   000842  6E34               	movwf	(u8ComparePass@Pass2+1)^0,c
  2756   000844  0E04               	movlw	4
  2757   000846  6E35               	movwf	u8ComparePass@Size^0,c
  2758   000848  EC1B  F013         	call	_u8ComparePass	;wreg free
  2759   00084C  0900               	iorlw	0
  2760   00084E  A4D8               	btfss	status,2,c
  2761   000850  EF2C  F004         	goto	u5691
  2762   000854  EF2E  F004         	goto	u5690
  2763   000858                     u5691:
  2764   000858  EF86  F004         	goto	l6829
  2765   00085C                     u5690:
  2766   00085C                     
  2767                           ;application.c: 195:                         PassTriesCount++;
  2768   00085C  0100               	movlb	0	; () banked
  2769   00085E  2BB0               	incf	main@PassTriesCount& (0+255),f,b
  2770   000860                     
  2771                           ; BSR set to: 0
  2772                           ;application.c: 196:                         u8LoginMode=(uint8)0;
  2773   000860  0E00               	movlw	0
  2774   000862  6FB4               	movwf	main@u8LoginMode& (0+255),b
  2775   000864                     
  2776                           ; BSR set to: 0
  2777                           ;application.c: 197:                         lcd_4bit_send_command(&Lcd_Obj,0x01);
  2778   000864  0E1A               	movlw	low _Lcd_Obj
  2779   000866  6E3F               	movwf	lcd_4bit_send_command@_lcd^0,c
  2780   000868  0E00               	movlw	high _Lcd_Obj
  2781   00086A  6E40               	movwf	(lcd_4bit_send_command@_lcd+1)^0,c
  2782   00086C  0E01               	movlw	1
  2783   00086E  6E41               	movwf	lcd_4bit_send_command@command^0,c
  2784   000870  EC94  F011         	call	_lcd_4bit_send_command	;wreg free
  2785   000874                     
  2786                           ;application.c: 198:                         lcd_4bit_send_string_data(&Lcd_Obj,"Wrong P
      +                          ass");
  2787   000874  0E1A               	movlw	low _Lcd_Obj
  2788   000876  6E43               	movwf	lcd_4bit_send_string_data@_lcd^0,c
  2789   000878  0E00               	movlw	high _Lcd_Obj
  2790   00087A  6E44               	movwf	(lcd_4bit_send_string_data@_lcd+1)^0,c
  2791   00087C  0EB4               	movlw	low STR_24
  2792   00087E  6E45               	movwf	lcd_4bit_send_string_data@str^0,c
  2793   000880  0EFF               	movlw	high STR_24
  2794   000882  6E46               	movwf	(lcd_4bit_send_string_data@str+1)^0,c
  2795   000884  ECF0  F012         	call	_lcd_4bit_send_string_data	;wreg free
  2796   000888                     
  2797                           ;application.c: 199:                         set_cursor_4bit_mode(&Lcd_Obj,2,1);
  2798   000888  0E1A               	movlw	low _Lcd_Obj
  2799   00088A  6E43               	movwf	set_cursor_4bit_mode@_lcd^0,c
  2800   00088C  0E00               	movlw	high _Lcd_Obj
  2801   00088E  6E44               	movwf	(set_cursor_4bit_mode@_lcd+1)^0,c
  2802   000890  0E02               	movlw	2
  2803   000892  6E45               	movwf	set_cursor_4bit_mode@row^0,c
  2804   000894  0E01               	movlw	1
  2805   000896  6E46               	movwf	set_cursor_4bit_mode@column^0,c
  2806   000898  ECCC  F00D         	call	_set_cursor_4bit_mode	;wreg free
  2807   00089C                     
  2808                           ;application.c: 200:                         lcd_4bit_send_string_data(&Lcd_Obj,"Tries L
      +                          eft");
  2809   00089C  0E1A               	movlw	low _Lcd_Obj
  2810   00089E  6E43               	movwf	lcd_4bit_send_string_data@_lcd^0,c
  2811   0008A0  0E00               	movlw	high _Lcd_Obj
  2812   0008A2  6E44               	movwf	(lcd_4bit_send_string_data@_lcd+1)^0,c
  2813   0008A4  0EBF               	movlw	low STR_25
  2814   0008A6  6E45               	movwf	lcd_4bit_send_string_data@str^0,c
  2815   0008A8  0EFF               	movlw	high STR_25
  2816   0008AA  6E46               	movwf	(lcd_4bit_send_string_data@str+1)^0,c
  2817   0008AC  ECF0  F012         	call	_lcd_4bit_send_string_data	;wreg free
  2818   0008B0                     
  2819                           ;application.c: 201:                         lcd_4bit_send_char_data(&Lcd_Obj,(uint8)3 -
      +                          PassTriesCount+(uint8)'0');
  2820   0008B0  0E1A               	movlw	low _Lcd_Obj
  2821   0008B2  6E3F               	movwf	lcd_4bit_send_char_data@_lcd^0,c
  2822   0008B4  0E00               	movlw	high _Lcd_Obj
  2823   0008B6  6E40               	movwf	(lcd_4bit_send_char_data@_lcd+1)^0,c
  2824   0008B8  0100               	movlb	0	; () banked
  2825   0008BA  51B0               	movf	main@PassTriesCount& (0+255),w,b
  2826   0008BC  0833               	sublw	51
  2827   0008BE  6E41               	movwf	lcd_4bit_send_char_data@data^0,c
  2828   0008C0  EC22  F011         	call	_lcd_4bit_send_char_data	;wreg free
  2829   0008C4                     
  2830                           ;application.c: 202:                         _TimerDelay_ms(1000);
  2831   0008C4  0E03               	movlw	3
  2832   0008C6  6E39               	movwf	(__TimerDelay_ms@u16CopyDelay+1)^0,c
  2833   0008C8  0EE8               	movlw	232
  2834   0008CA  6E38               	movwf	__TimerDelay_ms@u16CopyDelay^0,c
  2835   0008CC  EC70  F013         	call	__TimerDelay_ms	;wreg free
  2836   0008D0                     
  2837                           ;application.c: 203:                         lcd_4bit_send_command(&Lcd_Obj,0x01);
  2838   0008D0  0E1A               	movlw	low _Lcd_Obj
  2839   0008D2  6E3F               	movwf	lcd_4bit_send_command@_lcd^0,c
  2840   0008D4  0E00               	movlw	high _Lcd_Obj
  2841   0008D6  6E40               	movwf	(lcd_4bit_send_command@_lcd+1)^0,c
  2842   0008D8  0E01               	movlw	1
  2843   0008DA  6E41               	movwf	lcd_4bit_send_command@command^0,c
  2844   0008DC  EC94  F011         	call	_lcd_4bit_send_command	;wreg free
  2845   0008E0                     
  2846                           ;application.c: 204:                         if(PassTriesCount >= (uint8)3){
  2847   0008E0  0E02               	movlw	2
  2848   0008E2  0100               	movlb	0	; () banked
  2849   0008E4  65B0               	cpfsgt	main@PassTriesCount& (0+255),b
  2850   0008E6  EF77  F004         	goto	u5701
  2851   0008EA  EF79  F004         	goto	u5700
  2852   0008EE                     u5701:
  2853   0008EE  EF86  F004         	goto	l6829
  2854   0008F2                     u5700:
  2855   0008F2                     l6825:
  2856                           
  2857                           ; BSR set to: 0
  2858                           ;application.c: 205:                             eeprom_WriteDataByte((uint16)0X0002,(ui
      +                          nt8)1);
  2859   0008F2  0E00               	movlw	0
  2860   0008F4  6E32               	movwf	(eeprom_WriteDataByte@badd+1)^0,c
  2861   0008F6  0E02               	movlw	2
  2862   0008F8  6E31               	movwf	eeprom_WriteDataByte@badd^0,c
  2863   0008FA  0E01               	movlw	1
  2864   0008FC  6E33               	movwf	eeprom_WriteDataByte@data^0,c
  2865   0008FE  ECE7  F013         	call	_eeprom_WriteDataByte	;wreg free
  2866   000902                     
  2867                           ;application.c: 206:                             BlockModeFlag=(uint8)1;
  2868   000902  0E01               	movlw	1
  2869   000904  0100               	movlb	0	; () banked
  2870   000906  6FAE               	movwf	main@BlockModeFlag& (0+255),b
  2871                           
  2872                           ;application.c: 207:                             break;
  2873   000908  EFE8  F005         	goto	l6913
  2874   00090C                     l6829:
  2875                           
  2876                           ;application.c: 159:                 while(u8LoginMode != (uint8)1){
  2877   00090C  0100               	movlb	0	; () banked
  2878   00090E  05B4               	decf	main@u8LoginMode& (0+255),w,b
  2879   000910  A4D8               	btfss	status,2,c
  2880   000912  EF8D  F004         	goto	u5711
  2881   000916  EF8F  F004         	goto	u5710
  2882   00091A                     u5711:
  2883   00091A  EF31  F003         	goto	l794
  2884   00091E                     u5710:
  2885   00091E  EFE8  F005         	goto	l6913
  2886   000922                     l809:
  2887                           
  2888                           ; BSR set to: 0
  2889                           ;application.c: 215:                     u8KeyPadPressed=0XFF;
  2890   000922  69B5               	setf	main@u8KeyPadPressed& (0+255),b
  2891   000924                     
  2892                           ; BSR set to: 0
  2893                           ;application.c: 216:                     lcd_4bit_send_command(&Lcd_Obj,0x01);
  2894   000924  0E1A               	movlw	low _Lcd_Obj
  2895   000926  6E3F               	movwf	lcd_4bit_send_command@_lcd^0,c
  2896   000928  0E00               	movlw	high _Lcd_Obj
  2897   00092A  6E40               	movwf	(lcd_4bit_send_command@_lcd+1)^0,c
  2898   00092C  0E01               	movlw	1
  2899   00092E  6E41               	movwf	lcd_4bit_send_command@command^0,c
  2900   000930  EC94  F011         	call	_lcd_4bit_send_command	;wreg free
  2901   000934                     
  2902                           ;application.c: 217:                     lcd_4bit_send_string_data(&Lcd_Obj,"Guest Mode"
      +                          );
  2903   000934  0E1A               	movlw	low _Lcd_Obj
  2904   000936  6E43               	movwf	lcd_4bit_send_string_data@_lcd^0,c
  2905   000938  0E00               	movlw	high _Lcd_Obj
  2906   00093A  6E44               	movwf	(lcd_4bit_send_string_data@_lcd+1)^0,c
  2907   00093C  0E9E               	movlw	low STR_26
  2908   00093E  6E45               	movwf	lcd_4bit_send_string_data@str^0,c
  2909   000940  0EFF               	movlw	high STR_26
  2910   000942  6E46               	movwf	(lcd_4bit_send_string_data@str+1)^0,c
  2911   000944  ECF0  F012         	call	_lcd_4bit_send_string_data	;wreg free
  2912   000948                     
  2913                           ;application.c: 218:                     set_cursor_4bit_mode(&Lcd_Obj,2,1);
  2914   000948  0E1A               	movlw	low _Lcd_Obj
  2915   00094A  6E43               	movwf	set_cursor_4bit_mode@_lcd^0,c
  2916   00094C  0E00               	movlw	high _Lcd_Obj
  2917   00094E  6E44               	movwf	(set_cursor_4bit_mode@_lcd+1)^0,c
  2918   000950  0E02               	movlw	2
  2919   000952  6E45               	movwf	set_cursor_4bit_mode@row^0,c
  2920   000954  0E01               	movlw	1
  2921   000956  6E46               	movwf	set_cursor_4bit_mode@column^0,c
  2922   000958  ECCC  F00D         	call	_set_cursor_4bit_mode	;wreg free
  2923                           
  2924                           ;application.c: 219:                     lcd_4bit_send_string_data(&Lcd_Obj,"Guest Pass:
      +                          ");
  2925   00095C  0E1A               	movlw	low _Lcd_Obj
  2926   00095E  6E43               	movwf	lcd_4bit_send_string_data@_lcd^0,c
  2927   000960  0E00               	movlw	high _Lcd_Obj
  2928   000962  6E44               	movwf	(lcd_4bit_send_string_data@_lcd+1)^0,c
  2929   000964  0E64               	movlw	low STR_12
  2930   000966  6E45               	movwf	lcd_4bit_send_string_data@str^0,c
  2931   000968  0EFF               	movlw	high STR_12
  2932   00096A  6E46               	movwf	(lcd_4bit_send_string_data@str+1)^0,c
  2933   00096C  ECF0  F012         	call	_lcd_4bit_send_string_data	;wreg free
  2934   000970                     
  2935                           ;application.c: 220:                     _TimerDelay_ms(200);
  2936   000970  0E00               	movlw	0
  2937   000972  6E39               	movwf	(__TimerDelay_ms@u16CopyDelay+1)^0,c
  2938   000974  0EC8               	movlw	200
  2939   000976  6E38               	movwf	__TimerDelay_ms@u16CopyDelay^0,c
  2940   000978  EC70  F013         	call	__TimerDelay_ms	;wreg free
  2941                           
  2942                           ;application.c: 221:                     while(PassCounter <(uint8)4){
  2943   00097C  EF08  F005         	goto	l6857
  2944   000980                     l811:
  2945                           
  2946                           ; BSR set to: 0
  2947                           ;application.c: 222:                         u8KeyPadPressed=0XFF;
  2948   000980  69B5               	setf	main@u8KeyPadPressed& (0+255),b
  2949                           
  2950                           ;application.c: 223:                         while(u8KeyPadPressed == 0XFF){
  2951   000982  EFCD  F004         	goto	l6841
  2952   000986                     l6839:
  2953                           
  2954                           ; BSR set to: 0
  2955                           ;application.c: 224:                            keypad_get_value(&Keypad_Obj,&u8KeyPadPr
      +                          essed);
  2956   000986  0E12               	movlw	low _Keypad_Obj
  2957   000988  6E3B               	movwf	keypad_get_value@_keypad_obj^0,c
  2958   00098A  0E00               	movlw	high _Keypad_Obj
  2959   00098C  6E3C               	movwf	(keypad_get_value@_keypad_obj+1)^0,c
  2960   00098E  0EB5               	movlw	low main@u8KeyPadPressed
  2961   000990  6E3D               	movwf	keypad_get_value@value^0,c
  2962   000992  0E00               	movlw	high main@u8KeyPadPressed
  2963   000994  6E3E               	movwf	(keypad_get_value@value+1)^0,c
  2964   000996  EC48  F00D         	call	_keypad_get_value	;wreg free
  2965   00099A                     l6841:
  2966                           
  2967                           ;application.c: 223:                         while(u8KeyPadPressed == 0XFF){
  2968   00099A  0100               	movlb	0	; () banked
  2969   00099C  29B5               	incf	main@u8KeyPadPressed& (0+255),w,b
  2970   00099E  B4D8               	btfsc	status,2,c
  2971   0009A0  EFD4  F004         	goto	u5721
  2972   0009A4  EFD6  F004         	goto	u5720
  2973   0009A8                     u5721:
  2974   0009A8  EFC3  F004         	goto	l6839
  2975   0009AC                     u5720:
  2976   0009AC                     
  2977                           ; BSR set to: 0
  2978                           ;application.c: 226:                         Pass[PassCounter]=u8KeyPadPressed;
  2979   0009AC  0EA8               	movlw	low main@Pass_1959
  2980   0009AE  25B3               	addwf	main@PassCounter_1957& (0+255),w,b
  2981   0009B0  6ED9               	movwf	fsr2l,c
  2982   0009B2  6ADA               	clrf	fsr2h,c
  2983   0009B4  0E00               	movlw	high main@Pass_1959
  2984   0009B6  22DA               	addwfc	fsr2h,f,c
  2985   0009B8  C0B5  FFDF         	movff	main@u8KeyPadPressed,indf2
  2986   0009BC                     
  2987                           ; BSR set to: 0
  2988                           ;application.c: 227:                         lcd_4bit_send_char_data(&Lcd_Obj,u8KeyPadPr
      +                          essed);
  2989   0009BC  0E1A               	movlw	low _Lcd_Obj
  2990   0009BE  6E3F               	movwf	lcd_4bit_send_char_data@_lcd^0,c
  2991   0009C0  0E00               	movlw	high _Lcd_Obj
  2992   0009C2  6E40               	movwf	(lcd_4bit_send_char_data@_lcd+1)^0,c
  2993   0009C4  C0B5  F041         	movff	main@u8KeyPadPressed,lcd_4bit_send_char_data@data
  2994   0009C8  EC22  F011         	call	_lcd_4bit_send_char_data	;wreg free
  2995   0009CC                     
  2996                           ;application.c: 228:                         _TimerDelay_ms((uint16)300);
  2997   0009CC  0E01               	movlw	1
  2998   0009CE  6E39               	movwf	(__TimerDelay_ms@u16CopyDelay+1)^0,c
  2999   0009D0  0E2C               	movlw	44
  3000   0009D2  6E38               	movwf	__TimerDelay_ms@u16CopyDelay^0,c
  3001   0009D4  EC70  F013         	call	__TimerDelay_ms	;wreg free
  3002   0009D8                     
  3003                           ;application.c: 229:                         set_cursor_4bit_mode(&Lcd_Obj,2,12+PassCoun
      +                          ter);
  3004   0009D8  0E1A               	movlw	low _Lcd_Obj
  3005   0009DA  6E43               	movwf	set_cursor_4bit_mode@_lcd^0,c
  3006   0009DC  0E00               	movlw	high _Lcd_Obj
  3007   0009DE  6E44               	movwf	(set_cursor_4bit_mode@_lcd+1)^0,c
  3008   0009E0  0E02               	movlw	2
  3009   0009E2  6E45               	movwf	set_cursor_4bit_mode@row^0,c
  3010   0009E4  0100               	movlb	0	; () banked
  3011   0009E6  51B3               	movf	main@PassCounter_1957& (0+255),w,b
  3012   0009E8  0F0C               	addlw	12
  3013   0009EA  6E46               	movwf	set_cursor_4bit_mode@column^0,c
  3014   0009EC  ECCC  F00D         	call	_set_cursor_4bit_mode	;wreg free
  3015   0009F0                     
  3016                           ;application.c: 230:                         lcd_4bit_send_char_data(&Lcd_Obj,(uint8)'*'
      +                          );
  3017   0009F0  0E1A               	movlw	low _Lcd_Obj
  3018   0009F2  6E3F               	movwf	lcd_4bit_send_char_data@_lcd^0,c
  3019   0009F4  0E00               	movlw	high _Lcd_Obj
  3020   0009F6  6E40               	movwf	(lcd_4bit_send_char_data@_lcd+1)^0,c
  3021   0009F8  0E2A               	movlw	42
  3022   0009FA  6E41               	movwf	lcd_4bit_send_char_data@data^0,c
  3023   0009FC  EC22  F011         	call	_lcd_4bit_send_char_data	;wreg free
  3024   000A00                     
  3025                           ;application.c: 231:                         _TimerDelay_ms(100);
  3026   000A00  0E00               	movlw	0
  3027   000A02  6E39               	movwf	(__TimerDelay_ms@u16CopyDelay+1)^0,c
  3028   000A04  0E64               	movlw	100
  3029   000A06  6E38               	movwf	__TimerDelay_ms@u16CopyDelay^0,c
  3030   000A08  EC70  F013         	call	__TimerDelay_ms	;wreg free
  3031   000A0C                     
  3032                           ;application.c: 232:                         PassCounter++;
  3033   000A0C  0100               	movlb	0	; () banked
  3034   000A0E  2BB3               	incf	main@PassCounter_1957& (0+255),f,b
  3035   000A10                     l6857:
  3036                           
  3037                           ;application.c: 221:                     while(PassCounter <(uint8)4){
  3038   000A10  0E03               	movlw	3
  3039   000A12  0100               	movlb	0	; () banked
  3040   000A14  65B3               	cpfsgt	main@PassCounter_1957& (0+255),b
  3041   000A16  EF0F  F005         	goto	u5731
  3042   000A1A  EF11  F005         	goto	u5730
  3043   000A1E                     u5731:
  3044   000A1E  EFC0  F004         	goto	l811
  3045   000A22                     u5730:
  3046   000A22                     
  3047                           ; BSR set to: 0
  3048                           ;application.c: 234:                     PassCounter=0;
  3049   000A22  0E00               	movlw	0
  3050   000A24  6FB3               	movwf	main@PassCounter_1957& (0+255),b
  3051   000A26                     
  3052                           ; BSR set to: 0
  3053                           ;application.c: 235:                     vReadBlockOnEEPROM((uint16)0X000A,PassStored,(u
      +                          int8)4);
  3054   000A26  0E00               	movlw	0
  3055   000A28  6E36               	movwf	(vReadBlockOnEEPROM@u16TheStartAddress+1)^0,c
  3056   000A2A  0E0A               	movlw	10
  3057   000A2C  6E35               	movwf	vReadBlockOnEEPROM@u16TheStartAddress^0,c
  3058   000A2E  0EA4               	movlw	low main@PassStored
  3059   000A30  6E37               	movwf	vReadBlockOnEEPROM@Pass^0,c
  3060   000A32  0E00               	movlw	high main@PassStored
  3061   000A34  6E38               	movwf	(vReadBlockOnEEPROM@Pass+1)^0,c
  3062   000A36  0E04               	movlw	4
  3063   000A38  6E39               	movwf	vReadBlockOnEEPROM@Size^0,c
  3064   000A3A  EC97  F012         	call	_vReadBlockOnEEPROM	;wreg free
  3065   000A3E                     
  3066                           ;application.c: 237:                     if((uint8)1==u8ComparePass(PassStored,Pass,(uin
      +                          t8)4)){
  3067   000A3E  0EA4               	movlw	low main@PassStored
  3068   000A40  6E31               	movwf	u8ComparePass@Pass1^0,c
  3069   000A42  0E00               	movlw	high main@PassStored
  3070   000A44  6E32               	movwf	(u8ComparePass@Pass1+1)^0,c
  3071   000A46  0EA8               	movlw	low main@Pass_1959
  3072   000A48  6E33               	movwf	u8ComparePass@Pass2^0,c
  3073   000A4A  0E00               	movlw	high main@Pass_1959
  3074   000A4C  6E34               	movwf	(u8ComparePass@Pass2+1)^0,c
  3075   000A4E  0E04               	movlw	4
  3076   000A50  6E35               	movwf	u8ComparePass@Size^0,c
  3077   000A52  EC1B  F013         	call	_u8ComparePass	;wreg free
  3078   000A56  06E8               	decf	wreg,f,c
  3079   000A58  A4D8               	btfss	status,2,c
  3080   000A5A  EF31  F005         	goto	u5741
  3081   000A5E  EF33  F005         	goto	u5740
  3082   000A62                     u5741:
  3083   000A62  EF7A  F005         	goto	l6883
  3084   000A66                     u5740:
  3085   000A66                     
  3086                           ;application.c: 238:                         u8LoginMode=(uint8)2;
  3087   000A66  0E02               	movlw	2
  3088   000A68  0100               	movlb	0	; () banked
  3089   000A6A  6FB4               	movwf	main@u8LoginMode& (0+255),b
  3090                           
  3091                           ;application.c: 239:                         PassTriesCount=0;
  3092   000A6C  0E00               	movlw	0
  3093   000A6E  6FB0               	movwf	main@PassTriesCount& (0+255),b
  3094   000A70                     
  3095                           ; BSR set to: 0
  3096                           ;application.c: 240:                         lcd_4bit_send_command(&Lcd_Obj,0x01);
  3097   000A70  0E1A               	movlw	low _Lcd_Obj
  3098   000A72  6E3F               	movwf	lcd_4bit_send_command@_lcd^0,c
  3099   000A74  0E00               	movlw	high _Lcd_Obj
  3100   000A76  6E40               	movwf	(lcd_4bit_send_command@_lcd+1)^0,c
  3101   000A78  0E01               	movlw	1
  3102   000A7A  6E41               	movwf	lcd_4bit_send_command@command^0,c
  3103   000A7C  EC94  F011         	call	_lcd_4bit_send_command	;wreg free
  3104   000A80                     
  3105                           ;application.c: 241:                         lcd_4bit_send_string_data(&Lcd_Obj,"Correct
      +                           Pass");
  3106   000A80  0E1A               	movlw	low _Lcd_Obj
  3107   000A82  6E43               	movwf	lcd_4bit_send_string_data@_lcd^0,c
  3108   000A84  0E00               	movlw	high _Lcd_Obj
  3109   000A86  6E44               	movwf	(lcd_4bit_send_string_data@_lcd+1)^0,c
  3110   000A88  0E4B               	movlw	low STR_22
  3111   000A8A  6E45               	movwf	lcd_4bit_send_string_data@str^0,c
  3112   000A8C  0EFF               	movlw	high STR_22
  3113   000A8E  6E46               	movwf	(lcd_4bit_send_string_data@str+1)^0,c
  3114   000A90  ECF0  F012         	call	_lcd_4bit_send_string_data	;wreg free
  3115   000A94                     
  3116                           ;application.c: 242:                         set_cursor_4bit_mode(&Lcd_Obj,2,1);
  3117   000A94  0E1A               	movlw	low _Lcd_Obj
  3118   000A96  6E43               	movwf	set_cursor_4bit_mode@_lcd^0,c
  3119   000A98  0E00               	movlw	high _Lcd_Obj
  3120   000A9A  6E44               	movwf	(set_cursor_4bit_mode@_lcd+1)^0,c
  3121   000A9C  0E02               	movlw	2
  3122   000A9E  6E45               	movwf	set_cursor_4bit_mode@row^0,c
  3123   000AA0  0E01               	movlw	1
  3124   000AA2  6E46               	movwf	set_cursor_4bit_mode@column^0,c
  3125   000AA4  ECCC  F00D         	call	_set_cursor_4bit_mode	;wreg free
  3126   000AA8                     
  3127                           ;application.c: 243:                         lcd_4bit_send_string_data(&Lcd_Obj,"Guest M
      +                          ode");
  3128   000AA8  0E1A               	movlw	low _Lcd_Obj
  3129   000AAA  6E43               	movwf	lcd_4bit_send_string_data@_lcd^0,c
  3130   000AAC  0E00               	movlw	high _Lcd_Obj
  3131   000AAE  6E44               	movwf	(lcd_4bit_send_string_data@_lcd+1)^0,c
  3132   000AB0  0E9E               	movlw	low STR_26
  3133   000AB2  6E45               	movwf	lcd_4bit_send_string_data@str^0,c
  3134   000AB4  0EFF               	movlw	high STR_26
  3135   000AB6  6E46               	movwf	(lcd_4bit_send_string_data@str+1)^0,c
  3136   000AB8  ECF0  F012         	call	_lcd_4bit_send_string_data	;wreg free
  3137   000ABC                     
  3138                           ;application.c: 244:                         _TimerDelay_ms(1000);
  3139   000ABC  0E03               	movlw	3
  3140   000ABE  6E39               	movwf	(__TimerDelay_ms@u16CopyDelay+1)^0,c
  3141   000AC0  0EE8               	movlw	232
  3142   000AC2  6E38               	movwf	__TimerDelay_ms@u16CopyDelay^0,c
  3143   000AC4  EC70  F013         	call	__TimerDelay_ms	;wreg free
  3144   000AC8                     
  3145                           ;application.c: 245:                         led_turn_on(&GUEST_Led);
  3146   000AC8  0E2D               	movlw	low _GUEST_Led
  3147   000ACA  6E3B               	movwf	led_turn_on@led^0,c
  3148   000ACC  0E00               	movlw	high _GUEST_Led
  3149   000ACE  6E3C               	movwf	(led_turn_on@led+1)^0,c
  3150   000AD0  EC71  F010         	call	_led_turn_on	;wreg free
  3151   000AD4                     
  3152                           ;application.c: 246:                         Timer1_Init(&Timer1Obj);
  3153   000AD4  0E26               	movlw	low _Timer1Obj
  3154   000AD6  6E33               	movwf	Timer1_Init@_timer^0,c
  3155   000AD8  0E00               	movlw	high _Timer1Obj
  3156   000ADA  6E34               	movwf	(Timer1_Init@_timer+1)^0,c
  3157   000ADC  EC87  F00E         	call	_Timer1_Init	;wreg free
  3158   000AE0                     
  3159                           ;application.c: 247:                         lcd_4bit_send_command(&Lcd_Obj,0x01);
  3160   000AE0  0E1A               	movlw	low _Lcd_Obj
  3161   000AE2  6E3F               	movwf	lcd_4bit_send_command@_lcd^0,c
  3162   000AE4  0E00               	movlw	high _Lcd_Obj
  3163   000AE6  6E40               	movwf	(lcd_4bit_send_command@_lcd+1)^0,c
  3164   000AE8  0E01               	movlw	1
  3165   000AEA  6E41               	movwf	lcd_4bit_send_command@command^0,c
  3166   000AEC  EC94  F011         	call	_lcd_4bit_send_command	;wreg free
  3167                           
  3168                           ;application.c: 248:                     }
  3169   000AF0  EFC7  F005         	goto	l6907
  3170   000AF4                     l6883:
  3171                           
  3172                           ;application.c: 250:                         PassTriesCount++;
  3173   000AF4  0100               	movlb	0	; () banked
  3174   000AF6  2BB0               	incf	main@PassTriesCount& (0+255),f,b
  3175   000AF8                     
  3176                           ; BSR set to: 0
  3177                           ;application.c: 251:                         u8LoginMode=(uint8)0;
  3178   000AF8  0E00               	movlw	0
  3179   000AFA  6FB4               	movwf	main@u8LoginMode& (0+255),b
  3180   000AFC                     
  3181                           ; BSR set to: 0
  3182                           ;application.c: 252:                         lcd_4bit_send_command(&Lcd_Obj,0x01);
  3183   000AFC  0E1A               	movlw	low _Lcd_Obj
  3184   000AFE  6E3F               	movwf	lcd_4bit_send_command@_lcd^0,c
  3185   000B00  0E00               	movlw	high _Lcd_Obj
  3186   000B02  6E40               	movwf	(lcd_4bit_send_command@_lcd+1)^0,c
  3187   000B04  0E01               	movlw	1
  3188   000B06  6E41               	movwf	lcd_4bit_send_command@command^0,c
  3189   000B08  EC94  F011         	call	_lcd_4bit_send_command	;wreg free
  3190   000B0C                     
  3191                           ;application.c: 253:                         lcd_4bit_send_string_data(&Lcd_Obj,"Wrong P
      +                          ass");
  3192   000B0C  0E1A               	movlw	low _Lcd_Obj
  3193   000B0E  6E43               	movwf	lcd_4bit_send_string_data@_lcd^0,c
  3194   000B10  0E00               	movlw	high _Lcd_Obj
  3195   000B12  6E44               	movwf	(lcd_4bit_send_string_data@_lcd+1)^0,c
  3196   000B14  0EB4               	movlw	low STR_24
  3197   000B16  6E45               	movwf	lcd_4bit_send_string_data@str^0,c
  3198   000B18  0EFF               	movlw	high STR_24
  3199   000B1A  6E46               	movwf	(lcd_4bit_send_string_data@str+1)^0,c
  3200   000B1C  ECF0  F012         	call	_lcd_4bit_send_string_data	;wreg free
  3201   000B20                     
  3202                           ;application.c: 254:                         set_cursor_4bit_mode(&Lcd_Obj,2,1);
  3203   000B20  0E1A               	movlw	low _Lcd_Obj
  3204   000B22  6E43               	movwf	set_cursor_4bit_mode@_lcd^0,c
  3205   000B24  0E00               	movlw	high _Lcd_Obj
  3206   000B26  6E44               	movwf	(set_cursor_4bit_mode@_lcd+1)^0,c
  3207   000B28  0E02               	movlw	2
  3208   000B2A  6E45               	movwf	set_cursor_4bit_mode@row^0,c
  3209   000B2C  0E01               	movlw	1
  3210   000B2E  6E46               	movwf	set_cursor_4bit_mode@column^0,c
  3211   000B30  ECCC  F00D         	call	_set_cursor_4bit_mode	;wreg free
  3212   000B34                     
  3213                           ;application.c: 255:                         lcd_4bit_send_string_data(&Lcd_Obj,"Tries L
      +                          eft");
  3214   000B34  0E1A               	movlw	low _Lcd_Obj
  3215   000B36  6E43               	movwf	lcd_4bit_send_string_data@_lcd^0,c
  3216   000B38  0E00               	movlw	high _Lcd_Obj
  3217   000B3A  6E44               	movwf	(lcd_4bit_send_string_data@_lcd+1)^0,c
  3218   000B3C  0EBF               	movlw	low STR_25
  3219   000B3E  6E45               	movwf	lcd_4bit_send_string_data@str^0,c
  3220   000B40  0EFF               	movlw	high STR_25
  3221   000B42  6E46               	movwf	(lcd_4bit_send_string_data@str+1)^0,c
  3222   000B44  ECF0  F012         	call	_lcd_4bit_send_string_data	;wreg free
  3223   000B48                     
  3224                           ;application.c: 256:                         lcd_4bit_send_char_data(&Lcd_Obj,(uint8)3 -
      +                          PassTriesCount+(uint8)'0');
  3225   000B48  0E1A               	movlw	low _Lcd_Obj
  3226   000B4A  6E3F               	movwf	lcd_4bit_send_char_data@_lcd^0,c
  3227   000B4C  0E00               	movlw	high _Lcd_Obj
  3228   000B4E  6E40               	movwf	(lcd_4bit_send_char_data@_lcd+1)^0,c
  3229   000B50  0100               	movlb	0	; () banked
  3230   000B52  51B0               	movf	main@PassTriesCount& (0+255),w,b
  3231   000B54  0833               	sublw	51
  3232   000B56  6E41               	movwf	lcd_4bit_send_char_data@data^0,c
  3233   000B58  EC22  F011         	call	_lcd_4bit_send_char_data	;wreg free
  3234   000B5C                     
  3235                           ;application.c: 257:                         _TimerDelay_ms(1000);
  3236   000B5C  0E03               	movlw	3
  3237   000B5E  6E39               	movwf	(__TimerDelay_ms@u16CopyDelay+1)^0,c
  3238   000B60  0EE8               	movlw	232
  3239   000B62  6E38               	movwf	__TimerDelay_ms@u16CopyDelay^0,c
  3240   000B64  EC70  F013         	call	__TimerDelay_ms	;wreg free
  3241   000B68                     
  3242                           ;application.c: 258:                         lcd_4bit_send_command(&Lcd_Obj,0x01);
  3243   000B68  0E1A               	movlw	low _Lcd_Obj
  3244   000B6A  6E3F               	movwf	lcd_4bit_send_command@_lcd^0,c
  3245   000B6C  0E00               	movlw	high _Lcd_Obj
  3246   000B6E  6E40               	movwf	(lcd_4bit_send_command@_lcd+1)^0,c
  3247   000B70  0E01               	movlw	1
  3248   000B72  6E41               	movwf	lcd_4bit_send_command@command^0,c
  3249   000B74  EC94  F011         	call	_lcd_4bit_send_command	;wreg free
  3250   000B78                     
  3251                           ;application.c: 259:                         if(PassTriesCount >= (uint8)3){
  3252   000B78  0E02               	movlw	2
  3253   000B7A  0100               	movlb	0	; () banked
  3254   000B7C  65B0               	cpfsgt	main@PassTriesCount& (0+255),b
  3255   000B7E  EFC3  F005         	goto	u5751
  3256   000B82  EFC5  F005         	goto	u5750
  3257   000B86                     u5751:
  3258   000B86  EFC7  F005         	goto	l6907
  3259   000B8A                     u5750:
  3260   000B8A  EF79  F004         	goto	l6825
  3261   000B8E                     l6907:
  3262                           
  3263                           ;application.c: 214:                     while(u8LoginMode != (uint8)2){
  3264   000B8E  0E02               	movlw	2
  3265   000B90  0100               	movlb	0	; () banked
  3266   000B92  19B4               	xorwf	main@u8LoginMode& (0+255),w,b
  3267   000B94  A4D8               	btfss	status,2,c
  3268   000B96  EFCF  F005         	goto	u5761
  3269   000B9A  EFD1  F005         	goto	u5760
  3270   000B9E                     u5761:
  3271   000B9E  EF91  F004         	goto	l809
  3272   000BA2                     u5760:
  3273   000BA2  EFE8  F005         	goto	l6913
  3274   000BA6                     l6911:
  3275                           
  3276                           ; BSR set to: 0
  3277   000BA6  51B5               	movf	main@u8KeyPadPressed& (0+255),w,b
  3278   000BA8  6E53               	movwf	??_main^0,c
  3279   000BAA  6A54               	clrf	(??_main+1)^0,c
  3280                           
  3281                           ; Switch on 2 bytes has been partitioned into a top level switch of size 1, and 1 sub-sw
      +                          itches
  3282                           ; Switch size 1, requested type "simple"
  3283                           ; Number of cases is 1, Range of values is 0 to 0
  3284                           ; switch strategies available:
  3285                           ; Name         Instructions Cycles
  3286                           ; simple_byte            4     3 (average)
  3287                           ;	Chosen strategy is simple_byte
  3288   000BAC  5054               	movf	(??_main+1)^0,w,c
  3289   000BAE  0A00               	xorlw	0	; case 0
  3290   000BB0  B4D8               	btfsc	status,2,c
  3291   000BB2  EFDD  F005         	goto	l7291
  3292   000BB6  EFE8  F005         	goto	l6913
  3293   000BBA                     l7291:
  3294                           
  3295                           ; BSR set to: 0
  3296                           ; Switch size 1, requested type "simple"
  3297                           ; Number of cases is 2, Range of values is 48 to 49
  3298                           ; switch strategies available:
  3299                           ; Name         Instructions Cycles
  3300                           ; simple_byte            7     4 (average)
  3301                           ;	Chosen strategy is simple_byte
  3302   000BBA  5053               	movf	??_main^0,w,c
  3303   000BBC  0A30               	xorlw	48	; case 48
  3304   000BBE  B4D8               	btfsc	status,2,c
  3305   000BC0  EF86  F004         	goto	l6829
  3306   000BC4  0A01               	xorlw	1	; case 49
  3307   000BC6  B4D8               	btfsc	status,2,c
  3308   000BC8  EFC7  F005         	goto	l6907
  3309   000BCC  EFE8  F005         	goto	l6913
  3310   000BD0                     l6913:
  3311                           
  3312                           ;application.c: 125:         while(u8LoginMode==(uint8)0){
  3313   000BD0  0100               	movlb	0	; () banked
  3314   000BD2  51B4               	movf	main@u8LoginMode& (0+255),w,b
  3315   000BD4  B4D8               	btfsc	status,2,c
  3316   000BD6  EFEF  F005         	goto	u5771
  3317   000BDA  EFF1  F005         	goto	u5770
  3318   000BDE                     u5771:
  3319   000BDE  EF6C  F002         	goto	l6699
  3320   000BE2                     u5770:
  3321   000BE2                     l6915:
  3322                           
  3323                           ;application.c: 270:         uint8 ShowMenu=(uint8)1;
  3324   000BE2  0E01               	movlw	1
  3325   000BE4  0100               	movlb	0	; () banked
  3326   000BE6  6FB2               	movwf	main@ShowMenu& (0+255),b
  3327                           
  3328                           ;application.c: 272:         while(FlagTimeOut != (uint8)1){
  3329   000BE8  EF97  F009         	goto	l7161
  3330   000BEC                     l822:
  3331                           
  3332                           ; BSR set to: 0
  3333                           ;application.c: 273:             u8KeyPadPressed=0XFF;
  3334   000BEC  69B5               	setf	main@u8KeyPadPressed& (0+255),b
  3335                           
  3336                           ;application.c: 274:             switch(ShowMenu){
  3337   000BEE  EF62  F009         	goto	l7159
  3338   000BF2                     l6917:
  3339                           
  3340                           ; BSR set to: 0
  3341                           ;application.c: 278:                         lcd_4bit_send_command(&Lcd_Obj,0x01);
  3342   000BF2  0E1A               	movlw	low _Lcd_Obj
  3343   000BF4  6E3F               	movwf	lcd_4bit_send_command@_lcd^0,c
  3344   000BF6  0E00               	movlw	high _Lcd_Obj
  3345   000BF8  6E40               	movwf	(lcd_4bit_send_command@_lcd+1)^0,c
  3346   000BFA  0E01               	movlw	1
  3347   000BFC  6E41               	movwf	lcd_4bit_send_command@command^0,c
  3348   000BFE  EC94  F011         	call	_lcd_4bit_send_command	;wreg free
  3349   000C02                     
  3350                           ;application.c: 279:                         lcd_4bit_send_string_data(&Lcd_Obj,"1:Room1
      +                           2:Room2");
  3351   000C02  0E1A               	movlw	low _Lcd_Obj
  3352   000C04  6E43               	movwf	lcd_4bit_send_string_data@_lcd^0,c
  3353   000C06  0E00               	movlw	high _Lcd_Obj
  3354   000C08  6E44               	movwf	(lcd_4bit_send_string_data@_lcd+1)^0,c
  3355   000C0A  0E8B               	movlw	low STR_32
  3356   000C0C  6E45               	movwf	lcd_4bit_send_string_data@str^0,c
  3357   000C0E  0EFE               	movlw	high STR_32
  3358   000C10  6E46               	movwf	(lcd_4bit_send_string_data@str+1)^0,c
  3359   000C12  ECF0  F012         	call	_lcd_4bit_send_string_data	;wreg free
  3360   000C16                     
  3361                           ;application.c: 280:                         set_cursor_4bit_mode(&Lcd_Obj,2,1);
  3362   000C16  0E1A               	movlw	low _Lcd_Obj
  3363   000C18  6E43               	movwf	set_cursor_4bit_mode@_lcd^0,c
  3364   000C1A  0E00               	movlw	high _Lcd_Obj
  3365   000C1C  6E44               	movwf	(set_cursor_4bit_mode@_lcd+1)^0,c
  3366   000C1E  0E02               	movlw	2
  3367   000C20  6E45               	movwf	set_cursor_4bit_mode@row^0,c
  3368   000C22  0E01               	movlw	1
  3369   000C24  6E46               	movwf	set_cursor_4bit_mode@column^0,c
  3370   000C26  ECCC  F00D         	call	_set_cursor_4bit_mode	;wreg free
  3371   000C2A                     
  3372                           ;application.c: 281:                         if(u8LoginMode==(uint8)1){
  3373   000C2A  0100               	movlb	0	; () banked
  3374   000C2C  05B4               	decf	main@u8LoginMode& (0+255),w,b
  3375   000C2E  A4D8               	btfss	status,2,c
  3376   000C30  EF1C  F006         	goto	u5781
  3377   000C34  EF1E  F006         	goto	u5780
  3378   000C38                     u5781:
  3379   000C38  EF2A  F006         	goto	l6927
  3380   000C3C                     u5780:
  3381   000C3C                     
  3382                           ; BSR set to: 0
  3383                           ;application.c: 282:                             lcd_4bit_send_string_data(&Lcd_Obj,"3:R
      +                          oom3 4:More");
  3384   000C3C  0E1A               	movlw	low _Lcd_Obj
  3385   000C3E  6E43               	movwf	lcd_4bit_send_string_data@_lcd^0,c
  3386   000C40  0E00               	movlw	high _Lcd_Obj
  3387   000C42  6E44               	movwf	(lcd_4bit_send_string_data@_lcd+1)^0,c
  3388   000C44  0EEB               	movlw	low STR_33
  3389   000C46  6E45               	movwf	lcd_4bit_send_string_data@str^0,c
  3390   000C48  0EFE               	movlw	high STR_33
  3391   000C4A  6E46               	movwf	(lcd_4bit_send_string_data@str+1)^0,c
  3392   000C4C  ECF0  F012         	call	_lcd_4bit_send_string_data	;wreg free
  3393                           
  3394                           ;application.c: 283:                         }
  3395   000C50  EF3D  F006         	goto	l827
  3396   000C54                     l6927:
  3397                           
  3398                           ; BSR set to: 0
  3399   000C54  0E02               	movlw	2
  3400   000C56  19B4               	xorwf	main@u8LoginMode& (0+255),w,b
  3401   000C58  A4D8               	btfss	status,2,c
  3402   000C5A  EF31  F006         	goto	u5791
  3403   000C5E  EF33  F006         	goto	u5790
  3404   000C62                     u5791:
  3405   000C62  EF3D  F006         	goto	l827
  3406   000C66                     u5790:
  3407   000C66                     
  3408                           ; BSR set to: 0
  3409                           ;application.c: 285:                             lcd_4bit_send_string_data(&Lcd_Obj,"3:R
      +                          oom3 4:Room4");
  3410   000C66  0E1A               	movlw	low _Lcd_Obj
  3411   000C68  6E43               	movwf	lcd_4bit_send_string_data@_lcd^0,c
  3412   000C6A  0E00               	movlw	high _Lcd_Obj
  3413   000C6C  6E44               	movwf	(lcd_4bit_send_string_data@_lcd+1)^0,c
  3414   000C6E  0E9B               	movlw	low STR_34
  3415   000C70  6E45               	movwf	lcd_4bit_send_string_data@str^0,c
  3416   000C72  0EFE               	movlw	high STR_34
  3417   000C74  6E46               	movwf	(lcd_4bit_send_string_data@str+1)^0,c
  3418   000C76  ECF0  F012         	call	_lcd_4bit_send_string_data	;wreg free
  3419   000C7A                     l827:
  3420                           
  3421                           ;application.c: 287:                         u8KeyPadPressed=u8GetPressedValue(u8LoginMo
      +                          de);
  3422   000C7A  0100               	movlb	0	; () banked
  3423   000C7C  51B4               	movf	main@u8LoginMode& (0+255),w,b
  3424   000C7E  EC74  F00F         	call	_u8GetPressedValue
  3425   000C82  0100               	movlb	0	; () banked
  3426   000C84  6FB5               	movwf	main@u8KeyPadPressed& (0+255),b
  3427   000C86                     
  3428                           ; BSR set to: 0
  3429                           ;application.c: 288:                         _TimerDelay_ms(100);
  3430   000C86  0E00               	movlw	0
  3431   000C88  6E39               	movwf	(__TimerDelay_ms@u16CopyDelay+1)^0,c
  3432   000C8A  0E64               	movlw	100
  3433   000C8C  6E38               	movwf	__TimerDelay_ms@u16CopyDelay^0,c
  3434   000C8E  EC70  F013         	call	__TimerDelay_ms	;wreg free
  3435   000C92                     
  3436                           ;application.c: 289:                         if(u8KeyPadPressed==(uint8)'1'){
  3437   000C92  0E31               	movlw	49
  3438   000C94  0100               	movlb	0	; () banked
  3439   000C96  19B5               	xorwf	main@u8KeyPadPressed& (0+255),w,b
  3440   000C98  A4D8               	btfss	status,2,c
  3441   000C9A  EF51  F006         	goto	u5801
  3442   000C9E  EF53  F006         	goto	u5800
  3443   000CA2                     u5801:
  3444   000CA2  EF57  F006         	goto	l6937
  3445   000CA6                     u5800:
  3446   000CA6                     
  3447                           ; BSR set to: 0
  3448                           ;application.c: 290:                             ShowMenu=(uint8)3;
  3449   000CA6  0E03               	movlw	3
  3450   000CA8  6FB2               	movwf	main@ShowMenu& (0+255),b
  3451                           
  3452                           ;application.c: 291:                         }
  3453   000CAA  EFBE  F006         	goto	l6965
  3454   000CAE                     l6937:
  3455                           
  3456                           ; BSR set to: 0
  3457   000CAE  0E32               	movlw	50
  3458   000CB0  19B5               	xorwf	main@u8KeyPadPressed& (0+255),w,b
  3459   000CB2  A4D8               	btfss	status,2,c
  3460   000CB4  EF5E  F006         	goto	u5811
  3461   000CB8  EF60  F006         	goto	u5810
  3462   000CBC                     u5811:
  3463   000CBC  EF64  F006         	goto	l6941
  3464   000CC0                     u5810:
  3465   000CC0                     
  3466                           ; BSR set to: 0
  3467                           ;application.c: 293:                             ShowMenu=(uint8)4;
  3468   000CC0  0E04               	movlw	4
  3469   000CC2  6FB2               	movwf	main@ShowMenu& (0+255),b
  3470                           
  3471                           ;application.c: 294:                         }
  3472   000CC4  EFBE  F006         	goto	l6965
  3473   000CC8                     l6941:
  3474                           
  3475                           ; BSR set to: 0
  3476   000CC8  0E33               	movlw	51
  3477   000CCA  19B5               	xorwf	main@u8KeyPadPressed& (0+255),w,b
  3478   000CCC  A4D8               	btfss	status,2,c
  3479   000CCE  EF6B  F006         	goto	u5821
  3480   000CD2  EF6D  F006         	goto	u5820
  3481   000CD6                     u5821:
  3482   000CD6  EF71  F006         	goto	l6945
  3483   000CDA                     u5820:
  3484   000CDA                     
  3485                           ; BSR set to: 0
  3486                           ;application.c: 296:                             ShowMenu=(uint8)5;
  3487   000CDA  0E05               	movlw	5
  3488   000CDC  6FB2               	movwf	main@ShowMenu& (0+255),b
  3489                           
  3490                           ;application.c: 297:                         }
  3491   000CDE  EFBE  F006         	goto	l6965
  3492   000CE2                     l6945:
  3493                           
  3494                           ; BSR set to: 0
  3495   000CE2  0E34               	movlw	52
  3496   000CE4  19B5               	xorwf	main@u8KeyPadPressed& (0+255),w,b
  3497   000CE6  A4D8               	btfss	status,2,c
  3498   000CE8  EF78  F006         	goto	u5831
  3499   000CEC  EF7A  F006         	goto	u5830
  3500   000CF0                     u5831:
  3501   000CF0  EF86  F006         	goto	l6951
  3502   000CF4                     u5830:
  3503   000CF4                     
  3504                           ; BSR set to: 0
  3505   000CF4  05B4               	decf	main@u8LoginMode& (0+255),w,b
  3506   000CF6  A4D8               	btfss	status,2,c
  3507   000CF8  EF80  F006         	goto	u5841
  3508   000CFC  EF82  F006         	goto	u5840
  3509   000D00                     u5841:
  3510   000D00  EF86  F006         	goto	l6951
  3511   000D04                     u5840:
  3512   000D04                     
  3513                           ; BSR set to: 0
  3514                           ;application.c: 299:                             ShowMenu=(uint8)2;
  3515   000D04  0E02               	movlw	2
  3516   000D06  6FB2               	movwf	main@ShowMenu& (0+255),b
  3517                           
  3518                           ;application.c: 300:                         }
  3519   000D08  EFBE  F006         	goto	l6965
  3520   000D0C                     l6951:
  3521                           
  3522                           ; BSR set to: 0
  3523   000D0C  0E34               	movlw	52
  3524   000D0E  19B5               	xorwf	main@u8KeyPadPressed& (0+255),w,b
  3525   000D10  A4D8               	btfss	status,2,c
  3526   000D12  EF8D  F006         	goto	u5851
  3527   000D16  EF8F  F006         	goto	u5850
  3528   000D1A                     u5851:
  3529   000D1A  EF9C  F006         	goto	l6957
  3530   000D1E                     u5850:
  3531   000D1E                     
  3532                           ; BSR set to: 0
  3533   000D1E  0E02               	movlw	2
  3534   000D20  19B4               	xorwf	main@u8LoginMode& (0+255),w,b
  3535   000D22  A4D8               	btfss	status,2,c
  3536   000D24  EF96  F006         	goto	u5861
  3537   000D28  EF98  F006         	goto	u5860
  3538   000D2C                     u5861:
  3539   000D2C  EF9C  F006         	goto	l6957
  3540   000D30                     u5860:
  3541   000D30                     
  3542                           ; BSR set to: 0
  3543                           ;application.c: 302:                              ShowMenu=(uint8)6;
  3544   000D30  0E06               	movlw	6
  3545   000D32  6FB2               	movwf	main@ShowMenu& (0+255),b
  3546                           
  3547                           ;application.c: 303:                         }
  3548   000D34  EFBE  F006         	goto	l6965
  3549   000D38                     l6957:
  3550                           
  3551                           ; BSR set to: 0
  3552   000D38  29B5               	incf	main@u8KeyPadPressed& (0+255),w,b
  3553   000D3A  B4D8               	btfsc	status,2,c
  3554   000D3C  EFA2  F006         	goto	u5871
  3555   000D40  EFA4  F006         	goto	u5870
  3556   000D44                     u5871:
  3557   000D44  EFBE  F006         	goto	l834
  3558   000D48                     u5870:
  3559   000D48                     
  3560                           ; BSR set to: 0
  3561                           ;application.c: 305:                             lcd_4bit_send_command(&Lcd_Obj,0x01);
  3562   000D48  0E1A               	movlw	low _Lcd_Obj
  3563   000D4A  6E3F               	movwf	lcd_4bit_send_command@_lcd^0,c
  3564   000D4C  0E00               	movlw	high _Lcd_Obj
  3565   000D4E  6E40               	movwf	(lcd_4bit_send_command@_lcd+1)^0,c
  3566   000D50  0E01               	movlw	1
  3567   000D52  6E41               	movwf	lcd_4bit_send_command@command^0,c
  3568   000D54  EC94  F011         	call	_lcd_4bit_send_command	;wreg free
  3569   000D58                     
  3570                           ;application.c: 306:                             lcd_4bit_send_string_data(&Lcd_Obj,"Wro
      +                          ng Input");
  3571   000D58  0E1A               	movlw	low _Lcd_Obj
  3572   000D5A  6E43               	movwf	lcd_4bit_send_string_data@_lcd^0,c
  3573   000D5C  0E00               	movlw	high _Lcd_Obj
  3574   000D5E  6E44               	movwf	(lcd_4bit_send_string_data@_lcd+1)^0,c
  3575   000D60  0E7C               	movlw	low STR_19
  3576   000D62  6E45               	movwf	lcd_4bit_send_string_data@str^0,c
  3577   000D64  0EFF               	movlw	high STR_19
  3578   000D66  6E46               	movwf	(lcd_4bit_send_string_data@str+1)^0,c
  3579   000D68  ECF0  F012         	call	_lcd_4bit_send_string_data	;wreg free
  3580   000D6C                     
  3581                           ;application.c: 307:                             _TimerDelay_ms(500);
  3582   000D6C  0E01               	movlw	1
  3583   000D6E  6E39               	movwf	(__TimerDelay_ms@u16CopyDelay+1)^0,c
  3584   000D70  0EF4               	movlw	244
  3585   000D72  6E38               	movwf	__TimerDelay_ms@u16CopyDelay^0,c
  3586   000D74  EC70  F013         	call	__TimerDelay_ms	;wreg free
  3587   000D78  EFBE  F006         	goto	l6965
  3588   000D7C                     l834:
  3589   000D7C                     l6965:
  3590                           
  3591                           ;application.c: 309:                     }while(((u8KeyPadPressed < '1') || (u8KeyPadPre
      +                          ssed > '4')) && (FlagTimeOut == (uint8)0));
  3592   000D7C  0E30               	movlw	48
  3593   000D7E  0100               	movlb	0	; () banked
  3594   000D80  65B5               	cpfsgt	main@u8KeyPadPressed& (0+255),b
  3595   000D82  EFC5  F006         	goto	u5881
  3596   000D86  EFC7  F006         	goto	u5880
  3597   000D8A                     u5881:
  3598   000D8A  EFCF  F006         	goto	l6969
  3599   000D8E                     u5880:
  3600   000D8E                     
  3601                           ; BSR set to: 0
  3602   000D8E  0E34               	movlw	52
  3603   000D90  65B5               	cpfsgt	main@u8KeyPadPressed& (0+255),b
  3604   000D92  EFCD  F006         	goto	u5891
  3605   000D96  EFCF  F006         	goto	u5890
  3606   000D9A                     u5891:
  3607   000D9A  EF97  F009         	goto	l845
  3608   000D9E                     u5890:
  3609   000D9E                     l6969:
  3610                           
  3611                           ; BSR set to: 0
  3612   000D9E  5063               	movf	_FlagTimeOut^0,w,c
  3613   000DA0  B4D8               	btfsc	status,2,c
  3614   000DA2  EFD5  F006         	goto	u5901
  3615   000DA6  EFD7  F006         	goto	u5900
  3616   000DAA                     u5901:
  3617   000DAA  EFF9  F005         	goto	l6917
  3618   000DAE                     u5900:
  3619   000DAE  EF97  F009         	goto	l7161
  3620   000DB2                     l6971:
  3621                           
  3622                           ; BSR set to: 0
  3623                           ;application.c: 313:                     lcd_4bit_send_command(&Lcd_Obj,0x01);
  3624   000DB2  0E1A               	movlw	low _Lcd_Obj
  3625   000DB4  6E3F               	movwf	lcd_4bit_send_command@_lcd^0,c
  3626   000DB6  0E00               	movlw	high _Lcd_Obj
  3627   000DB8  6E40               	movwf	(lcd_4bit_send_command@_lcd+1)^0,c
  3628   000DBA  0E01               	movlw	1
  3629   000DBC  6E41               	movwf	lcd_4bit_send_command@command^0,c
  3630   000DBE  EC94  F011         	call	_lcd_4bit_send_command	;wreg free
  3631   000DC2                     
  3632                           ;application.c: 314:                     lcd_4bit_send_string_data(&Lcd_Obj,"1:Room4 2:T
      +                          V");
  3633   000DC2  0E1A               	movlw	low _Lcd_Obj
  3634   000DC4  6E43               	movwf	lcd_4bit_send_string_data@_lcd^0,c
  3635   000DC6  0E00               	movlw	high _Lcd_Obj
  3636   000DC8  6E44               	movwf	(lcd_4bit_send_string_data@_lcd+1)^0,c
  3637   000DCA  0E31               	movlw	low STR_36
  3638   000DCC  6E45               	movwf	lcd_4bit_send_string_data@str^0,c
  3639   000DCE  0EFF               	movlw	high STR_36
  3640   000DD0  6E46               	movwf	(lcd_4bit_send_string_data@str+1)^0,c
  3641   000DD2  ECF0  F012         	call	_lcd_4bit_send_string_data	;wreg free
  3642   000DD6                     
  3643                           ;application.c: 315:                     set_cursor_4bit_mode(&Lcd_Obj,2,1);
  3644   000DD6  0E1A               	movlw	low _Lcd_Obj
  3645   000DD8  6E43               	movwf	set_cursor_4bit_mode@_lcd^0,c
  3646   000DDA  0E00               	movlw	high _Lcd_Obj
  3647   000DDC  6E44               	movwf	(set_cursor_4bit_mode@_lcd+1)^0,c
  3648   000DDE  0E02               	movlw	2
  3649   000DE0  6E45               	movwf	set_cursor_4bit_mode@row^0,c
  3650   000DE2  0E01               	movlw	1
  3651   000DE4  6E46               	movwf	set_cursor_4bit_mode@column^0,c
  3652   000DE6  ECCC  F00D         	call	_set_cursor_4bit_mode	;wreg free
  3653                           
  3654                           ;application.c: 316:                     lcd_4bit_send_string_data(&Lcd_Obj,"3:AirCond 4
      +                          :RET");
  3655   000DEA  0E1A               	movlw	low _Lcd_Obj
  3656   000DEC  6E43               	movwf	lcd_4bit_send_string_data@_lcd^0,c
  3657   000DEE  0E00               	movlw	high _Lcd_Obj
  3658   000DF0  6E44               	movwf	(lcd_4bit_send_string_data@_lcd+1)^0,c
  3659   000DF2  0EBB               	movlw	low STR_37
  3660   000DF4  6E45               	movwf	lcd_4bit_send_string_data@str^0,c
  3661   000DF6  0EFE               	movlw	high STR_37
  3662   000DF8  6E46               	movwf	(lcd_4bit_send_string_data@str+1)^0,c
  3663   000DFA  ECF0  F012         	call	_lcd_4bit_send_string_data	;wreg free
  3664                           
  3665                           ;application.c: 317:                     u8KeyPadPressed=u8GetPressedValue(u8LoginMode);
  3666   000DFE  0100               	movlb	0	; () banked
  3667   000E00  51B4               	movf	main@u8LoginMode& (0+255),w,b
  3668   000E02  EC74  F00F         	call	_u8GetPressedValue
  3669   000E06  0100               	movlb	0	; () banked
  3670   000E08  6FB5               	movwf	main@u8KeyPadPressed& (0+255),b
  3671   000E0A                     
  3672                           ; BSR set to: 0
  3673                           ;application.c: 318:                     _TimerDelay_ms(100);
  3674   000E0A  0E00               	movlw	0
  3675   000E0C  6E39               	movwf	(__TimerDelay_ms@u16CopyDelay+1)^0,c
  3676   000E0E  0E64               	movlw	100
  3677   000E10  6E38               	movwf	__TimerDelay_ms@u16CopyDelay^0,c
  3678   000E12  EC70  F013         	call	__TimerDelay_ms	;wreg free
  3679   000E16                     
  3680                           ;application.c: 319:                     if(u8KeyPadPressed==(uint8)'1'){
  3681   000E16  0E31               	movlw	49
  3682   000E18  0100               	movlb	0	; () banked
  3683   000E1A  19B5               	xorwf	main@u8KeyPadPressed& (0+255),w,b
  3684   000E1C  A4D8               	btfss	status,2,c
  3685   000E1E  EF13  F007         	goto	u5911
  3686   000E22  EF15  F007         	goto	u5910
  3687   000E26                     u5911:
  3688   000E26  EF19  F007         	goto	l6983
  3689   000E2A                     u5910:
  3690   000E2A                     
  3691                           ; BSR set to: 0
  3692                           ;application.c: 320:                             ShowMenu=(uint8)6;
  3693   000E2A  0E06               	movlw	6
  3694   000E2C  6FB2               	movwf	main@ShowMenu& (0+255),b
  3695                           
  3696                           ;application.c: 321:                         }
  3697   000E2E  EF62  F007         	goto	l7003
  3698   000E32                     l6983:
  3699                           
  3700                           ; BSR set to: 0
  3701   000E32  0E32               	movlw	50
  3702   000E34  19B5               	xorwf	main@u8KeyPadPressed& (0+255),w,b
  3703   000E36  A4D8               	btfss	status,2,c
  3704   000E38  EF20  F007         	goto	u5921
  3705   000E3C  EF22  F007         	goto	u5920
  3706   000E40                     u5921:
  3707   000E40  EF26  F007         	goto	l6987
  3708   000E44                     u5920:
  3709   000E44                     
  3710                           ; BSR set to: 0
  3711                           ;application.c: 323:                             ShowMenu=(uint8)7;
  3712   000E44  0E07               	movlw	7
  3713   000E46  6FB2               	movwf	main@ShowMenu& (0+255),b
  3714                           
  3715                           ;application.c: 324:                         }
  3716   000E48  EF62  F007         	goto	l7003
  3717   000E4C                     l6987:
  3718                           
  3719                           ; BSR set to: 0
  3720   000E4C  0E33               	movlw	51
  3721   000E4E  19B5               	xorwf	main@u8KeyPadPressed& (0+255),w,b
  3722   000E50  A4D8               	btfss	status,2,c
  3723   000E52  EF2D  F007         	goto	u5931
  3724   000E56  EF2F  F007         	goto	u5930
  3725   000E5A                     u5931:
  3726   000E5A  EF33  F007         	goto	l6991
  3727   000E5E                     u5930:
  3728   000E5E                     
  3729                           ; BSR set to: 0
  3730                           ;application.c: 326:                             ShowMenu=(uint8)8;
  3731   000E5E  0E08               	movlw	8
  3732   000E60  6FB2               	movwf	main@ShowMenu& (0+255),b
  3733                           
  3734                           ;application.c: 327:                         }
  3735   000E62  EF62  F007         	goto	l7003
  3736   000E66                     l6991:
  3737                           
  3738                           ; BSR set to: 0
  3739   000E66  0E34               	movlw	52
  3740   000E68  19B5               	xorwf	main@u8KeyPadPressed& (0+255),w,b
  3741   000E6A  A4D8               	btfss	status,2,c
  3742   000E6C  EF3A  F007         	goto	u5941
  3743   000E70  EF3C  F007         	goto	u5940
  3744   000E74                     u5941:
  3745   000E74  EF40  F007         	goto	l6995
  3746   000E78                     u5940:
  3747   000E78                     
  3748                           ; BSR set to: 0
  3749                           ;application.c: 329:                             ShowMenu=(uint8)1;
  3750   000E78  0E01               	movlw	1
  3751   000E7A  6FB2               	movwf	main@ShowMenu& (0+255),b
  3752                           
  3753                           ;application.c: 330:                         }
  3754   000E7C  EF62  F007         	goto	l7003
  3755   000E80                     l6995:
  3756                           
  3757                           ; BSR set to: 0
  3758   000E80  29B5               	incf	main@u8KeyPadPressed& (0+255),w,b
  3759   000E82  B4D8               	btfsc	status,2,c
  3760   000E84  EF46  F007         	goto	u5951
  3761   000E88  EF48  F007         	goto	u5950
  3762   000E8C                     u5951:
  3763   000E8C  EF62  F007         	goto	l851
  3764   000E90                     u5950:
  3765   000E90                     
  3766                           ; BSR set to: 0
  3767                           ;application.c: 332:                             lcd_4bit_send_command(&Lcd_Obj,0x01);
  3768   000E90  0E1A               	movlw	low _Lcd_Obj
  3769   000E92  6E3F               	movwf	lcd_4bit_send_command@_lcd^0,c
  3770   000E94  0E00               	movlw	high _Lcd_Obj
  3771   000E96  6E40               	movwf	(lcd_4bit_send_command@_lcd+1)^0,c
  3772   000E98  0E01               	movlw	1
  3773   000E9A  6E41               	movwf	lcd_4bit_send_command@command^0,c
  3774   000E9C  EC94  F011         	call	_lcd_4bit_send_command	;wreg free
  3775   000EA0                     
  3776                           ;application.c: 333:                             lcd_4bit_send_string_data(&Lcd_Obj,"Wro
      +                          ng Input");
  3777   000EA0  0E1A               	movlw	low _Lcd_Obj
  3778   000EA2  6E43               	movwf	lcd_4bit_send_string_data@_lcd^0,c
  3779   000EA4  0E00               	movlw	high _Lcd_Obj
  3780   000EA6  6E44               	movwf	(lcd_4bit_send_string_data@_lcd+1)^0,c
  3781   000EA8  0E7C               	movlw	low STR_19
  3782   000EAA  6E45               	movwf	lcd_4bit_send_string_data@str^0,c
  3783   000EAC  0EFF               	movlw	high STR_19
  3784   000EAE  6E46               	movwf	(lcd_4bit_send_string_data@str+1)^0,c
  3785   000EB0  ECF0  F012         	call	_lcd_4bit_send_string_data	;wreg free
  3786   000EB4                     
  3787                           ;application.c: 334:                             _TimerDelay_ms(500);
  3788   000EB4  0E01               	movlw	1
  3789   000EB6  6E39               	movwf	(__TimerDelay_ms@u16CopyDelay+1)^0,c
  3790   000EB8  0EF4               	movlw	244
  3791   000EBA  6E38               	movwf	__TimerDelay_ms@u16CopyDelay^0,c
  3792   000EBC  EC70  F013         	call	__TimerDelay_ms	;wreg free
  3793   000EC0  EF62  F007         	goto	l7003
  3794   000EC4                     l851:
  3795   000EC4                     l7003:
  3796                           
  3797                           ;application.c: 336:                     }while(((u8KeyPadPressed < '1') || (u8KeyPadPre
      +                          ssed > '4')) && (FlagTimeOut == (uint8)0));
  3798   000EC4  0E30               	movlw	48
  3799   000EC6  0100               	movlb	0	; () banked
  3800   000EC8  65B5               	cpfsgt	main@u8KeyPadPressed& (0+255),b
  3801   000ECA  EF69  F007         	goto	u5961
  3802   000ECE  EF6B  F007         	goto	u5960
  3803   000ED2                     u5961:
  3804   000ED2  EF73  F007         	goto	l7007
  3805   000ED6                     u5960:
  3806   000ED6                     
  3807                           ; BSR set to: 0
  3808   000ED6  0E34               	movlw	52
  3809   000ED8  65B5               	cpfsgt	main@u8KeyPadPressed& (0+255),b
  3810   000EDA  EF71  F007         	goto	u5971
  3811   000EDE  EF73  F007         	goto	u5970
  3812   000EE2                     u5971:
  3813   000EE2  EF97  F009         	goto	l845
  3814   000EE6                     u5970:
  3815   000EE6                     l7007:
  3816                           
  3817                           ; BSR set to: 0
  3818   000EE6  5063               	movf	_FlagTimeOut^0,w,c
  3819   000EE8  B4D8               	btfsc	status,2,c
  3820   000EEA  EF79  F007         	goto	u5981
  3821   000EEE  EF7B  F007         	goto	u5980
  3822   000EF2                     u5981:
  3823   000EF2  EFD9  F006         	goto	l6971
  3824   000EF6                     u5980:
  3825   000EF6  EF97  F009         	goto	l7161
  3826   000EFA                     l7009:
  3827                           
  3828                           ; BSR set to: 0
  3829                           ;application.c: 340:                     lcd_4bit_send_command(&Lcd_Obj,0x01);
  3830   000EFA  0E1A               	movlw	low _Lcd_Obj
  3831   000EFC  6E3F               	movwf	lcd_4bit_send_command@_lcd^0,c
  3832   000EFE  0E00               	movlw	high _Lcd_Obj
  3833   000F00  6E40               	movwf	(lcd_4bit_send_command@_lcd+1)^0,c
  3834   000F02  0E01               	movlw	1
  3835   000F04  6E41               	movwf	lcd_4bit_send_command@command^0,c
  3836   000F06  EC94  F011         	call	_lcd_4bit_send_command	;wreg free
  3837   000F0A                     
  3838                           ;application.c: 341:                     lcd_4bit_send_string_data(&Lcd_Obj,"1:Set Tempe
      +                          rature");
  3839   000F0A  0E1A               	movlw	low _Lcd_Obj
  3840   000F0C  6E43               	movwf	lcd_4bit_send_string_data@_lcd^0,c
  3841   000F0E  0E00               	movlw	high _Lcd_Obj
  3842   000F10  6E44               	movwf	(lcd_4bit_send_string_data@_lcd+1)^0,c
  3843   000F12  0E15               	movlw	low STR_39
  3844   000F14  6E45               	movwf	lcd_4bit_send_string_data@str^0,c
  3845   000F16  0EFE               	movlw	high STR_39
  3846   000F18  6E46               	movwf	(lcd_4bit_send_string_data@str+1)^0,c
  3847   000F1A  ECF0  F012         	call	_lcd_4bit_send_string_data	;wreg free
  3848   000F1E                     
  3849                           ;application.c: 342:                     set_cursor_4bit_mode(&Lcd_Obj,2,1);
  3850   000F1E  0E1A               	movlw	low _Lcd_Obj
  3851   000F20  6E43               	movwf	set_cursor_4bit_mode@_lcd^0,c
  3852   000F22  0E00               	movlw	high _Lcd_Obj
  3853   000F24  6E44               	movwf	(set_cursor_4bit_mode@_lcd+1)^0,c
  3854   000F26  0E02               	movlw	2
  3855   000F28  6E45               	movwf	set_cursor_4bit_mode@row^0,c
  3856   000F2A  0E01               	movlw	1
  3857   000F2C  6E46               	movwf	set_cursor_4bit_mode@column^0,c
  3858   000F2E  ECCC  F00D         	call	_set_cursor_4bit_mode	;wreg free
  3859                           
  3860                           ;application.c: 343:                     lcd_4bit_send_string_data(&Lcd_Obj,"2:Control 0
      +                          :RET");
  3861   000F32  0E1A               	movlw	low _Lcd_Obj
  3862   000F34  6E43               	movwf	lcd_4bit_send_string_data@_lcd^0,c
  3863   000F36  0E00               	movlw	high _Lcd_Obj
  3864   000F38  6E44               	movwf	(lcd_4bit_send_string_data@_lcd+1)^0,c
  3865   000F3A  0EAB               	movlw	low STR_40
  3866   000F3C  6E45               	movwf	lcd_4bit_send_string_data@str^0,c
  3867   000F3E  0EFE               	movlw	high STR_40
  3868   000F40  6E46               	movwf	(lcd_4bit_send_string_data@str+1)^0,c
  3869   000F42  ECF0  F012         	call	_lcd_4bit_send_string_data	;wreg free
  3870                           
  3871                           ;application.c: 344:                     u8KeyPadPressed=u8GetPressedValue(u8LoginMode);
  3872   000F46  0100               	movlb	0	; () banked
  3873   000F48  51B4               	movf	main@u8LoginMode& (0+255),w,b
  3874   000F4A  EC74  F00F         	call	_u8GetPressedValue
  3875   000F4E  0100               	movlb	0	; () banked
  3876   000F50  6FB5               	movwf	main@u8KeyPadPressed& (0+255),b
  3877   000F52                     
  3878                           ; BSR set to: 0
  3879                           ;application.c: 345:                     _TimerDelay_ms(100);
  3880   000F52  0E00               	movlw	0
  3881   000F54  6E39               	movwf	(__TimerDelay_ms@u16CopyDelay+1)^0,c
  3882   000F56  0E64               	movlw	100
  3883   000F58  6E38               	movwf	__TimerDelay_ms@u16CopyDelay^0,c
  3884   000F5A  EC70  F013         	call	__TimerDelay_ms	;wreg free
  3885   000F5E                     
  3886                           ;application.c: 346:                     if(u8KeyPadPressed==(uint8)'1'){
  3887   000F5E  0E31               	movlw	49
  3888   000F60  0100               	movlb	0	; () banked
  3889   000F62  19B5               	xorwf	main@u8KeyPadPressed& (0+255),w,b
  3890   000F64  A4D8               	btfss	status,2,c
  3891   000F66  EFB7  F007         	goto	u5991
  3892   000F6A  EFB9  F007         	goto	u5990
  3893   000F6E                     u5991:
  3894   000F6E  EFBD  F007         	goto	l7021
  3895   000F72                     u5990:
  3896   000F72                     
  3897                           ; BSR set to: 0
  3898                           ;application.c: 347:                             ShowMenu=(uint8)10;
  3899   000F72  0E0A               	movlw	10
  3900   000F74  6FB2               	movwf	main@ShowMenu& (0+255),b
  3901                           
  3902                           ;application.c: 348:                         }
  3903   000F76  EFF9  F007         	goto	l7037
  3904   000F7A                     l7021:
  3905                           
  3906                           ; BSR set to: 0
  3907   000F7A  0E32               	movlw	50
  3908   000F7C  19B5               	xorwf	main@u8KeyPadPressed& (0+255),w,b
  3909   000F7E  A4D8               	btfss	status,2,c
  3910   000F80  EFC4  F007         	goto	u6001
  3911   000F84  EFC6  F007         	goto	u6000
  3912   000F88                     u6001:
  3913   000F88  EFCA  F007         	goto	l7025
  3914   000F8C                     u6000:
  3915   000F8C                     
  3916                           ; BSR set to: 0
  3917                           ;application.c: 350:                             ShowMenu=(uint8)9;
  3918   000F8C  0E09               	movlw	9
  3919   000F8E  6FB2               	movwf	main@ShowMenu& (0+255),b
  3920                           
  3921                           ;application.c: 351:                         }
  3922   000F90  EFF9  F007         	goto	l7037
  3923   000F94                     l7025:
  3924                           
  3925                           ; BSR set to: 0
  3926   000F94  0E30               	movlw	48
  3927   000F96  19B5               	xorwf	main@u8KeyPadPressed& (0+255),w,b
  3928   000F98  A4D8               	btfss	status,2,c
  3929   000F9A  EFD1  F007         	goto	u6011
  3930   000F9E  EFD3  F007         	goto	u6010
  3931   000FA2                     u6011:
  3932   000FA2  EFD7  F007         	goto	l7029
  3933   000FA6                     u6010:
  3934   000FA6                     
  3935                           ; BSR set to: 0
  3936                           ;application.c: 353:                             ShowMenu=(uint8)2;
  3937   000FA6  0E02               	movlw	2
  3938   000FA8  6FB2               	movwf	main@ShowMenu& (0+255),b
  3939                           
  3940                           ;application.c: 354:                         }
  3941   000FAA  EFF9  F007         	goto	l7037
  3942   000FAE                     l7029:
  3943                           
  3944                           ; BSR set to: 0
  3945   000FAE  29B5               	incf	main@u8KeyPadPressed& (0+255),w,b
  3946   000FB0  B4D8               	btfsc	status,2,c
  3947   000FB2  EFDD  F007         	goto	u6021
  3948   000FB6  EFDF  F007         	goto	u6020
  3949   000FBA                     u6021:
  3950   000FBA  EFF9  F007         	goto	l867
  3951   000FBE                     u6020:
  3952   000FBE                     
  3953                           ; BSR set to: 0
  3954                           ;application.c: 356:                             lcd_4bit_send_command(&Lcd_Obj,0x01);
  3955   000FBE  0E1A               	movlw	low _Lcd_Obj
  3956   000FC0  6E3F               	movwf	lcd_4bit_send_command@_lcd^0,c
  3957   000FC2  0E00               	movlw	high _Lcd_Obj
  3958   000FC4  6E40               	movwf	(lcd_4bit_send_command@_lcd+1)^0,c
  3959   000FC6  0E01               	movlw	1
  3960   000FC8  6E41               	movwf	lcd_4bit_send_command@command^0,c
  3961   000FCA  EC94  F011         	call	_lcd_4bit_send_command	;wreg free
  3962   000FCE                     
  3963                           ;application.c: 357:                             lcd_4bit_send_string_data(&Lcd_Obj,"Wro
      +                          ng Input");
  3964   000FCE  0E1A               	movlw	low _Lcd_Obj
  3965   000FD0  6E43               	movwf	lcd_4bit_send_string_data@_lcd^0,c
  3966   000FD2  0E00               	movlw	high _Lcd_Obj
  3967   000FD4  6E44               	movwf	(lcd_4bit_send_string_data@_lcd+1)^0,c
  3968   000FD6  0E7C               	movlw	low STR_19
  3969   000FD8  6E45               	movwf	lcd_4bit_send_string_data@str^0,c
  3970   000FDA  0EFF               	movlw	high STR_19
  3971   000FDC  6E46               	movwf	(lcd_4bit_send_string_data@str+1)^0,c
  3972   000FDE  ECF0  F012         	call	_lcd_4bit_send_string_data	;wreg free
  3973   000FE2                     
  3974                           ;application.c: 358:                             _TimerDelay_ms(500);
  3975   000FE2  0E01               	movlw	1
  3976   000FE4  6E39               	movwf	(__TimerDelay_ms@u16CopyDelay+1)^0,c
  3977   000FE6  0EF4               	movlw	244
  3978   000FE8  6E38               	movwf	__TimerDelay_ms@u16CopyDelay^0,c
  3979   000FEA  EC70  F013         	call	__TimerDelay_ms	;wreg free
  3980   000FEE  EFF9  F007         	goto	l7037
  3981   000FF2                     l867:
  3982   000FF2                     l7037:
  3983                           
  3984                           ;application.c: 360:                     }while(((u8KeyPadPressed < '0') || (u8KeyPadPre
      +                          ssed > '2')) && (FlagTimeOut == (uint8)0));
  3985   000FF2  0E2F               	movlw	47
  3986   000FF4  0100               	movlb	0	; () banked
  3987   000FF6  65B5               	cpfsgt	main@u8KeyPadPressed& (0+255),b
  3988   000FF8  EF00  F008         	goto	u6031
  3989   000FFC  EF02  F008         	goto	u6030
  3990   001000                     u6031:
  3991   001000  EF0A  F008         	goto	l7041
  3992   001004                     u6030:
  3993   001004                     
  3994                           ; BSR set to: 0
  3995   001004  0E32               	movlw	50
  3996   001006  65B5               	cpfsgt	main@u8KeyPadPressed& (0+255),b
  3997   001008  EF08  F008         	goto	u6041
  3998   00100C  EF0A  F008         	goto	u6040
  3999   001010                     u6041:
  4000   001010  EF97  F009         	goto	l845
  4001   001014                     u6040:
  4002   001014                     l7041:
  4003                           
  4004                           ; BSR set to: 0
  4005   001014  5063               	movf	_FlagTimeOut^0,w,c
  4006   001016  B4D8               	btfsc	status,2,c
  4007   001018  EF10  F008         	goto	u6051
  4008   00101C  EF12  F008         	goto	u6050
  4009   001020                     u6051:
  4010   001020  EF7D  F007         	goto	l7009
  4011   001024                     u6050:
  4012   001024  EF97  F009         	goto	l7161
  4013   001028                     l7043:
  4014                           
  4015                           ; BSR set to: 0
  4016                           ;application.c: 363:                     vMenuOption((uint8)3,u8LoginMode);
  4017   001028  C0B4  F04A         	movff	main@u8LoginMode,vMenuOption@u8LonginMode
  4018   00102C  0E03               	movlw	3
  4019   00102E  ECA3  F009         	call	_vMenuOption
  4020   001032  EFF1  F005         	goto	l6915
  4021   001036                     l7047:
  4022                           
  4023                           ; BSR set to: 0
  4024                           ;application.c: 367:                     vMenuOption((uint8)4,u8LoginMode);
  4025   001036  C0B4  F04A         	movff	main@u8LoginMode,vMenuOption@u8LonginMode
  4026   00103A  0E04               	movlw	4
  4027   00103C  ECA3  F009         	call	_vMenuOption
  4028   001040  EFF1  F005         	goto	l6915
  4029   001044                     l7051:
  4030                           
  4031                           ; BSR set to: 0
  4032                           ;application.c: 371:                     vMenuOption((uint8)5,u8LoginMode);
  4033   001044  C0B4  F04A         	movff	main@u8LoginMode,vMenuOption@u8LonginMode
  4034   001048  0E05               	movlw	5
  4035   00104A  ECA3  F009         	call	_vMenuOption
  4036   00104E  EFF1  F005         	goto	l6915
  4037   001052                     l7055:
  4038                           
  4039                           ; BSR set to: 0
  4040                           ;application.c: 375:                     vMenuOption((uint8)6,u8LoginMode);
  4041   001052  C0B4  F04A         	movff	main@u8LoginMode,vMenuOption@u8LonginMode
  4042   001056  0E06               	movlw	6
  4043   001058  ECA3  F009         	call	_vMenuOption
  4044   00105C                     
  4045                           ;application.c: 376:                     if(u8LoginMode==(uint8)2){
  4046   00105C  0E02               	movlw	2
  4047   00105E  0100               	movlb	0	; () banked
  4048   001060  19B4               	xorwf	main@u8LoginMode& (0+255),w,b
  4049   001062  A4D8               	btfss	status,2,c
  4050   001064  EF36  F008         	goto	u6061
  4051   001068  EF38  F008         	goto	u6060
  4052   00106C                     u6061:
  4053   00106C  EF3A  F008         	goto	l7061
  4054   001070                     u6060:
  4055   001070  EFF1  F005         	goto	l6915
  4056   001074                     l7061:
  4057                           
  4058                           ; BSR set to: 0
  4059   001074  05B4               	decf	main@u8LoginMode& (0+255),w,b
  4060   001076  A4D8               	btfss	status,2,c
  4061   001078  EF40  F008         	goto	u6071
  4062   00107C  EF42  F008         	goto	u6070
  4063   001080                     u6071:
  4064   001080  EF97  F009         	goto	l845
  4065   001084                     u6070:
  4066   001084                     l7063:
  4067                           
  4068                           ;application.c: 380:                     ShowMenu=(uint8)2;
  4069   001084  0E02               	movlw	2
  4070   001086  0100               	movlb	0	; () banked
  4071   001088  6FB2               	movwf	main@ShowMenu& (0+255),b
  4072   00108A  EF97  F009         	goto	l7161
  4073   00108E                     l7065:
  4074                           
  4075                           ; BSR set to: 0
  4076                           ;application.c: 384:                     vMenuOption((uint8)7,u8LoginMode);
  4077   00108E  C0B4  F04A         	movff	main@u8LoginMode,vMenuOption@u8LonginMode
  4078   001092  0E07               	movlw	7
  4079   001094  ECA3  F009         	call	_vMenuOption
  4080   001098  EF42  F008         	goto	l7063
  4081   00109C                     l7069:
  4082                           
  4083                           ; BSR set to: 0
  4084                           ;application.c: 388:                     vMenuOption((uint8)9,u8LoginMode);
  4085   00109C  C0B4  F04A         	movff	main@u8LoginMode,vMenuOption@u8LonginMode
  4086   0010A0  0E09               	movlw	9
  4087   0010A2  ECA3  F009         	call	_vMenuOption
  4088   0010A6                     l7071:
  4089                           
  4090                           ;application.c: 389:                     ShowMenu=(uint8)8;
  4091   0010A6  0E08               	movlw	8
  4092   0010A8  0100               	movlb	0	; () banked
  4093   0010AA  6FB2               	movwf	main@ShowMenu& (0+255),b
  4094                           
  4095                           ;application.c: 390:                     break;
  4096   0010AC  EF97  F009         	goto	l7161
  4097   0010B0                     l7073:
  4098                           
  4099                           ; BSR set to: 0
  4100                           ;application.c: 392:                     Temperature=0;
  4101   0010B0  0E00               	movlw	0
  4102   0010B2  6FAF               	movwf	main@Temperature& (0+255),b
  4103                           
  4104                           ;application.c: 393:                     while(Temperature==0 && FlagTimeOut==(uint8)0){
  4105   0010B4  EF4F  F009         	goto	l7151
  4106   0010B8                     l7075:
  4107                           
  4108                           ; BSR set to: 0
  4109                           ;application.c: 394:                         lcd_4bit_send_command(&Lcd_Obj,0x01);
  4110   0010B8  0E1A               	movlw	low _Lcd_Obj
  4111   0010BA  6E3F               	movwf	lcd_4bit_send_command@_lcd^0,c
  4112   0010BC  0E00               	movlw	high _Lcd_Obj
  4113   0010BE  6E40               	movwf	(lcd_4bit_send_command@_lcd+1)^0,c
  4114   0010C0  0E01               	movlw	1
  4115   0010C2  6E41               	movwf	lcd_4bit_send_command@command^0,c
  4116   0010C4  EC94  F011         	call	_lcd_4bit_send_command	;wreg free
  4117   0010C8                     
  4118                           ;application.c: 395:                         lcd_4bit_send_string_data(&Lcd_Obj,"Set Tem
      +                          p.:__");
  4119   0010C8  0E1A               	movlw	low _Lcd_Obj
  4120   0010CA  6E43               	movwf	lcd_4bit_send_string_data@_lcd^0,c
  4121   0010CC  0E00               	movlw	high _Lcd_Obj
  4122   0010CE  6E44               	movwf	(lcd_4bit_send_string_data@_lcd+1)^0,c
  4123   0010D0  0E3E               	movlw	low STR_42
  4124   0010D2  6E45               	movwf	lcd_4bit_send_string_data@str^0,c
  4125   0010D4  0EFF               	movlw	high STR_42
  4126   0010D6  6E46               	movwf	(lcd_4bit_send_string_data@str+1)^0,c
  4127   0010D8  ECF0  F012         	call	_lcd_4bit_send_string_data	;wreg free
  4128   0010DC                     
  4129                           ;application.c: 396:                         lcd_4bit_send_char_data(&Lcd_Obj,(uint8)0XD
      +                          F);
  4130   0010DC  0E1A               	movlw	low _Lcd_Obj
  4131   0010DE  6E3F               	movwf	lcd_4bit_send_char_data@_lcd^0,c
  4132   0010E0  0E00               	movlw	high _Lcd_Obj
  4133   0010E2  6E40               	movwf	(lcd_4bit_send_char_data@_lcd+1)^0,c
  4134   0010E4  0EDF               	movlw	223
  4135   0010E6  6E41               	movwf	lcd_4bit_send_char_data@data^0,c
  4136   0010E8  EC22  F011         	call	_lcd_4bit_send_char_data	;wreg free
  4137   0010EC                     
  4138                           ;application.c: 397:                         lcd_4bit_send_char_data(&Lcd_Obj,'C');
  4139   0010EC  0E1A               	movlw	low _Lcd_Obj
  4140   0010EE  6E3F               	movwf	lcd_4bit_send_char_data@_lcd^0,c
  4141   0010F0  0E00               	movlw	high _Lcd_Obj
  4142   0010F2  6E40               	movwf	(lcd_4bit_send_char_data@_lcd+1)^0,c
  4143   0010F4  0E43               	movlw	67
  4144   0010F6  6E41               	movwf	lcd_4bit_send_char_data@data^0,c
  4145   0010F8  EC22  F011         	call	_lcd_4bit_send_char_data	;wreg free
  4146   0010FC                     
  4147                           ;application.c: 398:                         set_cursor_4bit_mode(&Lcd_Obj,1,11);
  4148   0010FC  0E1A               	movlw	low _Lcd_Obj
  4149   0010FE  6E43               	movwf	set_cursor_4bit_mode@_lcd^0,c
  4150   001100  0E00               	movlw	high _Lcd_Obj
  4151   001102  6E44               	movwf	(set_cursor_4bit_mode@_lcd+1)^0,c
  4152   001104  0E01               	movlw	1
  4153   001106  6E45               	movwf	set_cursor_4bit_mode@row^0,c
  4154   001108  0E0B               	movlw	11
  4155   00110A  6E46               	movwf	set_cursor_4bit_mode@column^0,c
  4156   00110C  ECCC  F00D         	call	_set_cursor_4bit_mode	;wreg free
  4157   001110                     
  4158                           ;application.c: 399:                         _TimerDelay_ms(200);
  4159   001110  0E00               	movlw	0
  4160   001112  6E39               	movwf	(__TimerDelay_ms@u16CopyDelay+1)^0,c
  4161   001114  0EC8               	movlw	200
  4162   001116  6E38               	movwf	__TimerDelay_ms@u16CopyDelay^0,c
  4163   001118  EC70  F013         	call	__TimerDelay_ms	;wreg free
  4164   00111C                     
  4165                           ;application.c: 402:                         u8KeyPadPressed=u8GetPressedValue(u8LoginMo
      +                          de);
  4166   00111C  0100               	movlb	0	; () banked
  4167   00111E  51B4               	movf	main@u8LoginMode& (0+255),w,b
  4168   001120  EC74  F00F         	call	_u8GetPressedValue
  4169   001124  0100               	movlb	0	; () banked
  4170   001126  6FB5               	movwf	main@u8KeyPadPressed& (0+255),b
  4171                           
  4172                           ;application.c: 403:                         _TimerDelay_ms(300);
  4173   001128  0E01               	movlw	1
  4174   00112A  6E39               	movwf	(__TimerDelay_ms@u16CopyDelay+1)^0,c
  4175   00112C  0E2C               	movlw	44
  4176   00112E  6E38               	movwf	__TimerDelay_ms@u16CopyDelay^0,c
  4177   001130  EC70  F013         	call	__TimerDelay_ms	;wreg free
  4178   001134                     
  4179                           ;application.c: 404:                         if(FlagTimeOut==(uint8)1){
  4180   001134  0463               	decf	_FlagTimeOut^0,w,c
  4181   001136  A4D8               	btfss	status,2,c
  4182   001138  EFA0  F008         	goto	u6081
  4183   00113C  EFA2  F008         	goto	u6080
  4184   001140                     u6081:
  4185   001140  EFA4  F008         	goto	l7093
  4186   001144                     u6080:
  4187   001144  EF53  F008         	goto	l7071
  4188   001148                     l7093:
  4189                           
  4190                           ;application.c: 407:                         if(u8KeyPadPressed < '0' || u8KeyPadPressed
      +                           > '9'){
  4191   001148  0E2F               	movlw	47
  4192   00114A  0100               	movlb	0	; () banked
  4193   00114C  65B5               	cpfsgt	main@u8KeyPadPressed& (0+255),b
  4194   00114E  EFAB  F008         	goto	u6091
  4195   001152  EFAD  F008         	goto	u6090
  4196   001156                     u6091:
  4197   001156  EFB5  F008         	goto	l7097
  4198   00115A                     u6090:
  4199   00115A                     
  4200                           ; BSR set to: 0
  4201   00115A  0E39               	movlw	57
  4202   00115C  65B5               	cpfsgt	main@u8KeyPadPressed& (0+255),b
  4203   00115E  EFB3  F008         	goto	u6101
  4204   001162  EFB5  F008         	goto	u6100
  4205   001166                     u6101:
  4206   001166  EFCF  F008         	goto	l7105
  4207   00116A                     u6100:
  4208   00116A                     l7097:
  4209                           
  4210                           ; BSR set to: 0
  4211                           ;application.c: 408:                             lcd_4bit_send_command(&Lcd_Obj,0x01);
  4212   00116A  0E1A               	movlw	low _Lcd_Obj
  4213   00116C  6E3F               	movwf	lcd_4bit_send_command@_lcd^0,c
  4214   00116E  0E00               	movlw	high _Lcd_Obj
  4215   001170  6E40               	movwf	(lcd_4bit_send_command@_lcd+1)^0,c
  4216   001172  0E01               	movlw	1
  4217   001174  6E41               	movwf	lcd_4bit_send_command@command^0,c
  4218   001176  EC94  F011         	call	_lcd_4bit_send_command	;wreg free
  4219   00117A                     
  4220                           ;application.c: 409:                             lcd_4bit_send_string_data(&Lcd_Obj,"Wro
      +                          ng Input");
  4221   00117A  0E1A               	movlw	low _Lcd_Obj
  4222   00117C  6E43               	movwf	lcd_4bit_send_string_data@_lcd^0,c
  4223   00117E  0E00               	movlw	high _Lcd_Obj
  4224   001180  6E44               	movwf	(lcd_4bit_send_string_data@_lcd+1)^0,c
  4225   001182  0E7C               	movlw	low STR_19
  4226   001184  6E45               	movwf	lcd_4bit_send_string_data@str^0,c
  4227   001186  0EFF               	movlw	high STR_19
  4228   001188  6E46               	movwf	(lcd_4bit_send_string_data@str+1)^0,c
  4229   00118A  ECF0  F012         	call	_lcd_4bit_send_string_data	;wreg free
  4230   00118E                     l7101:
  4231                           
  4232                           ;application.c: 410:                             _TimerDelay_ms(500);
  4233   00118E  0E01               	movlw	1
  4234   001190  6E39               	movwf	(__TimerDelay_ms@u16CopyDelay+1)^0,c
  4235   001192  0EF4               	movlw	244
  4236   001194  6E38               	movwf	__TimerDelay_ms@u16CopyDelay^0,c
  4237   001196  EC70  F013         	call	__TimerDelay_ms	;wreg free
  4238                           
  4239                           ;application.c: 411:                             continue;
  4240   00119A  EF4F  F009         	goto	l7151
  4241   00119E                     l7105:
  4242                           
  4243                           ; BSR set to: 0
  4244                           ;application.c: 414:                             lcd_4bit_send_char_data(&Lcd_Obj,u8KeyP
      +                          adPressed);
  4245   00119E  0E1A               	movlw	low _Lcd_Obj
  4246   0011A0  6E3F               	movwf	lcd_4bit_send_char_data@_lcd^0,c
  4247   0011A2  0E00               	movlw	high _Lcd_Obj
  4248   0011A4  6E40               	movwf	(lcd_4bit_send_char_data@_lcd+1)^0,c
  4249   0011A6  C0B5  F041         	movff	main@u8KeyPadPressed,lcd_4bit_send_char_data@data
  4250   0011AA  EC22  F011         	call	_lcd_4bit_send_char_data	;wreg free
  4251   0011AE                     
  4252                           ;application.c: 415:                             TempTens=u8KeyPadPressed-(uint8)'0';
  4253   0011AE  0100               	movlb	0	; () banked
  4254   0011B0  51B5               	movf	main@u8KeyPadPressed& (0+255),w,b
  4255   0011B2  0FD0               	addlw	208
  4256   0011B4  6FAD               	movwf	main@TempTens& (0+255),b
  4257   0011B6                     
  4258                           ; BSR set to: 0
  4259                           ;application.c: 416:                             u8KeyPadPressed=0XFF;
  4260   0011B6  69B5               	setf	main@u8KeyPadPressed& (0+255),b
  4261   0011B8                     
  4262                           ; BSR set to: 0
  4263                           ;application.c: 419:                         u8KeyPadPressed=u8GetPressedValue(u8LoginMo
      +                          de);
  4264   0011B8  51B4               	movf	main@u8LoginMode& (0+255),w,b
  4265   0011BA  EC74  F00F         	call	_u8GetPressedValue
  4266   0011BE  0100               	movlb	0	; () banked
  4267   0011C0  6FB5               	movwf	main@u8KeyPadPressed& (0+255),b
  4268   0011C2                     
  4269                           ; BSR set to: 0
  4270                           ;application.c: 420:                         _TimerDelay_ms(300);
  4271   0011C2  0E01               	movlw	1
  4272   0011C4  6E39               	movwf	(__TimerDelay_ms@u16CopyDelay+1)^0,c
  4273   0011C6  0E2C               	movlw	44
  4274   0011C8  6E38               	movwf	__TimerDelay_ms@u16CopyDelay^0,c
  4275   0011CA  EC70  F013         	call	__TimerDelay_ms	;wreg free
  4276   0011CE                     
  4277                           ;application.c: 421:                         if(FlagTimeOut==(uint8)1){
  4278   0011CE  0463               	decf	_FlagTimeOut^0,w,c
  4279   0011D0  A4D8               	btfss	status,2,c
  4280   0011D2  EFED  F008         	goto	u6111
  4281   0011D6  EFEF  F008         	goto	u6110
  4282   0011DA                     u6111:
  4283   0011DA  EFF1  F008         	goto	l7119
  4284   0011DE                     u6110:
  4285   0011DE  EF53  F008         	goto	l7071
  4286   0011E2                     l7119:
  4287                           
  4288                           ;application.c: 424:                         if(u8KeyPadPressed < '0' || u8KeyPadPressed
      +                           > '9'){
  4289   0011E2  0E2F               	movlw	47
  4290   0011E4  0100               	movlb	0	; () banked
  4291   0011E6  65B5               	cpfsgt	main@u8KeyPadPressed& (0+255),b
  4292   0011E8  EFF8  F008         	goto	u6121
  4293   0011EC  EFFA  F008         	goto	u6120
  4294   0011F0                     u6121:
  4295   0011F0  EF02  F009         	goto	l7123
  4296   0011F4                     u6120:
  4297   0011F4                     
  4298                           ; BSR set to: 0
  4299   0011F4  0E39               	movlw	57
  4300   0011F6  65B5               	cpfsgt	main@u8KeyPadPressed& (0+255),b
  4301   0011F8  EF00  F009         	goto	u6131
  4302   0011FC  EF02  F009         	goto	u6130
  4303   001200                     u6131:
  4304   001200  EF16  F009         	goto	l7131
  4305   001204                     u6130:
  4306   001204                     l7123:
  4307                           
  4308                           ; BSR set to: 0
  4309                           ;application.c: 425:                             lcd_4bit_send_command(&Lcd_Obj,0x01);
  4310   001204  0E1A               	movlw	low _Lcd_Obj
  4311   001206  6E3F               	movwf	lcd_4bit_send_command@_lcd^0,c
  4312   001208  0E00               	movlw	high _Lcd_Obj
  4313   00120A  6E40               	movwf	(lcd_4bit_send_command@_lcd+1)^0,c
  4314   00120C  0E01               	movlw	1
  4315   00120E  6E41               	movwf	lcd_4bit_send_command@command^0,c
  4316   001210  EC94  F011         	call	_lcd_4bit_send_command	;wreg free
  4317   001214                     
  4318                           ;application.c: 426:                             lcd_4bit_send_string_data(&Lcd_Obj,"Wro
      +                          ng Input");
  4319   001214  0E1A               	movlw	low _Lcd_Obj
  4320   001216  6E43               	movwf	lcd_4bit_send_string_data@_lcd^0,c
  4321   001218  0E00               	movlw	high _Lcd_Obj
  4322   00121A  6E44               	movwf	(lcd_4bit_send_string_data@_lcd+1)^0,c
  4323   00121C  0E7C               	movlw	low STR_19
  4324   00121E  6E45               	movwf	lcd_4bit_send_string_data@str^0,c
  4325   001220  0EFF               	movlw	high STR_19
  4326   001222  6E46               	movwf	(lcd_4bit_send_string_data@str+1)^0,c
  4327   001224  ECF0  F012         	call	_lcd_4bit_send_string_data	;wreg free
  4328   001228  EFC7  F008         	goto	l7101
  4329   00122C                     l7131:
  4330                           
  4331                           ; BSR set to: 0
  4332                           ;application.c: 431:                             lcd_4bit_send_char_data(&Lcd_Obj,u8KeyP
      +                          adPressed);
  4333   00122C  0E1A               	movlw	low _Lcd_Obj
  4334   00122E  6E3F               	movwf	lcd_4bit_send_char_data@_lcd^0,c
  4335   001230  0E00               	movlw	high _Lcd_Obj
  4336   001232  6E40               	movwf	(lcd_4bit_send_char_data@_lcd+1)^0,c
  4337   001234  C0B5  F041         	movff	main@u8KeyPadPressed,lcd_4bit_send_char_data@data
  4338   001238  EC22  F011         	call	_lcd_4bit_send_char_data	;wreg free
  4339   00123C                     
  4340                           ;application.c: 432:                             TempOnes=u8KeyPadPressed-(uint8)'0';
  4341   00123C  0100               	movlb	0	; () banked
  4342   00123E  51B5               	movf	main@u8KeyPadPressed& (0+255),w,b
  4343   001240  0FD0               	addlw	208
  4344   001242  6FAC               	movwf	main@TempOnes& (0+255),b
  4345   001244                     
  4346                           ; BSR set to: 0
  4347                           ;application.c: 433:                             u8KeyPadPressed=0XFF;
  4348   001244  69B5               	setf	main@u8KeyPadPressed& (0+255),b
  4349   001246                     
  4350                           ; BSR set to: 0
  4351                           ;application.c: 435:                         Temperature=TempTens*10+TempOnes;
  4352   001246  51AD               	movf	main@TempTens& (0+255),w,b
  4353   001248  0D0A               	mullw	10
  4354   00124A  50F3               	movf	243,w,c
  4355   00124C  25AC               	addwf	main@TempOnes& (0+255),w,b
  4356   00124E  6FAF               	movwf	main@Temperature& (0+255),b
  4357   001250                     
  4358                           ; BSR set to: 0
  4359                           ;application.c: 436:                         u8SpiTranmitRecieve(0X40);
  4360   001250  0E40               	movlw	64
  4361   001252  ECC1  F013         	call	_u8SpiTranmitRecieve
  4362   001256                     
  4363                           ;application.c: 437:                         _TimerDelay_ms(200);
  4364   001256  0E00               	movlw	0
  4365   001258  6E39               	movwf	(__TimerDelay_ms@u16CopyDelay+1)^0,c
  4366   00125A  0EC8               	movlw	200
  4367   00125C  6E38               	movwf	__TimerDelay_ms@u16CopyDelay^0,c
  4368   00125E  EC70  F013         	call	__TimerDelay_ms	;wreg free
  4369                           
  4370                           ;application.c: 438:                         u8SpiTranmitRecieve(Temperature);
  4371   001262  0100               	movlb	0	; () banked
  4372   001264  51AF               	movf	main@Temperature& (0+255),w,b
  4373   001266  ECC1  F013         	call	_u8SpiTranmitRecieve
  4374   00126A                     
  4375                           ;application.c: 439:                         _TimerDelay_ms(200);
  4376   00126A  0E00               	movlw	0
  4377   00126C  6E39               	movwf	(__TimerDelay_ms@u16CopyDelay+1)^0,c
  4378   00126E  0EC8               	movlw	200
  4379   001270  6E38               	movwf	__TimerDelay_ms@u16CopyDelay^0,c
  4380   001272  EC70  F013         	call	__TimerDelay_ms	;wreg free
  4381   001276                     
  4382                           ;application.c: 440:                          lcd_4bit_send_command(&Lcd_Obj,0x01);
  4383   001276  0E1A               	movlw	low _Lcd_Obj
  4384   001278  6E3F               	movwf	lcd_4bit_send_command@_lcd^0,c
  4385   00127A  0E00               	movlw	high _Lcd_Obj
  4386   00127C  6E40               	movwf	(lcd_4bit_send_command@_lcd+1)^0,c
  4387   00127E  0E01               	movlw	1
  4388   001280  6E41               	movwf	lcd_4bit_send_command@command^0,c
  4389   001282  EC94  F011         	call	_lcd_4bit_send_command	;wreg free
  4390   001286                     
  4391                           ;application.c: 441:                          lcd_4bit_send_string_data(&Lcd_Obj,"Temper
      +                          ature Sent");
  4392   001286  0E1A               	movlw	low _Lcd_Obj
  4393   001288  6E43               	movwf	lcd_4bit_send_string_data@_lcd^0,c
  4394   00128A  0E00               	movlw	high _Lcd_Obj
  4395   00128C  6E44               	movwf	(lcd_4bit_send_string_data@_lcd+1)^0,c
  4396   00128E  0E38               	movlw	low STR_45
  4397   001290  6E45               	movwf	lcd_4bit_send_string_data@str^0,c
  4398   001292  0EFE               	movlw	high STR_45
  4399   001294  6E46               	movwf	(lcd_4bit_send_string_data@str+1)^0,c
  4400   001296  ECF0  F012         	call	_lcd_4bit_send_string_data	;wreg free
  4401   00129A  EFC7  F008         	goto	l7101
  4402   00129E                     l7151:
  4403                           
  4404                           ;application.c: 393:                     while(Temperature==0 && FlagTimeOut==(uint8)0){
  4405   00129E  0100               	movlb	0	; () banked
  4406   0012A0  51AF               	movf	main@Temperature& (0+255),w,b
  4407   0012A2  A4D8               	btfss	status,2,c
  4408   0012A4  EF56  F009         	goto	u6141
  4409   0012A8  EF58  F009         	goto	u6140
  4410   0012AC                     u6141:
  4411   0012AC  EF53  F008         	goto	l7071
  4412   0012B0                     u6140:
  4413   0012B0                     
  4414                           ; BSR set to: 0
  4415   0012B0  5063               	movf	_FlagTimeOut^0,w,c
  4416   0012B2  B4D8               	btfsc	status,2,c
  4417   0012B4  EF5E  F009         	goto	u6151
  4418   0012B8  EF60  F009         	goto	u6150
  4419   0012BC                     u6151:
  4420   0012BC  EF5C  F008         	goto	l7075
  4421   0012C0                     u6150:
  4422   0012C0  EF53  F008         	goto	l7071
  4423   0012C4                     l7159:
  4424                           
  4425                           ; BSR set to: 0
  4426   0012C4  51B2               	movf	main@ShowMenu& (0+255),w,b
  4427   0012C6  6E53               	movwf	??_main^0,c
  4428   0012C8  6A54               	clrf	(??_main+1)^0,c
  4429                           
  4430                           ; Switch on 2 bytes has been partitioned into a top level switch of size 1, and 1 sub-sw
      +                          itches
  4431                           ; Switch size 1, requested type "simple"
  4432                           ; Number of cases is 1, Range of values is 0 to 0
  4433                           ; switch strategies available:
  4434                           ; Name         Instructions Cycles
  4435                           ; simple_byte            4     3 (average)
  4436                           ;	Chosen strategy is simple_byte
  4437   0012CA  5054               	movf	(??_main+1)^0,w,c
  4438   0012CC  0A00               	xorlw	0	; case 0
  4439   0012CE  B4D8               	btfsc	status,2,c
  4440   0012D0  EF6C  F009         	goto	l7293
  4441   0012D4  EF97  F009         	goto	l7161
  4442   0012D8                     l7293:
  4443                           
  4444                           ; BSR set to: 0
  4445                           ; Switch size 1, requested type "simple"
  4446                           ; Number of cases is 10, Range of values is 1 to 10
  4447                           ; switch strategies available:
  4448                           ; Name         Instructions Cycles
  4449                           ; simple_byte           31    16 (average)
  4450                           ;	Chosen strategy is simple_byte
  4451   0012D8  5053               	movf	??_main^0,w,c
  4452   0012DA  0A01               	xorlw	1	; case 1
  4453   0012DC  B4D8               	btfsc	status,2,c
  4454   0012DE  EFF9  F005         	goto	l6917
  4455   0012E2  0A03               	xorlw	3	; case 2
  4456   0012E4  B4D8               	btfsc	status,2,c
  4457   0012E6  EFD9  F006         	goto	l6971
  4458   0012EA  0A01               	xorlw	1	; case 3
  4459   0012EC  B4D8               	btfsc	status,2,c
  4460   0012EE  EF14  F008         	goto	l7043
  4461   0012F2  0A07               	xorlw	7	; case 4
  4462   0012F4  B4D8               	btfsc	status,2,c
  4463   0012F6  EF1B  F008         	goto	l7047
  4464   0012FA  0A01               	xorlw	1	; case 5
  4465   0012FC  B4D8               	btfsc	status,2,c
  4466   0012FE  EF22  F008         	goto	l7051
  4467   001302  0A03               	xorlw	3	; case 6
  4468   001304  B4D8               	btfsc	status,2,c
  4469   001306  EF29  F008         	goto	l7055
  4470   00130A  0A01               	xorlw	1	; case 7
  4471   00130C  B4D8               	btfsc	status,2,c
  4472   00130E  EF47  F008         	goto	l7065
  4473   001312  0A0F               	xorlw	15	; case 8
  4474   001314  B4D8               	btfsc	status,2,c
  4475   001316  EF7D  F007         	goto	l7009
  4476   00131A  0A01               	xorlw	1	; case 9
  4477   00131C  B4D8               	btfsc	status,2,c
  4478   00131E  EF4E  F008         	goto	l7069
  4479   001322  0A03               	xorlw	3	; case 10
  4480   001324  B4D8               	btfsc	status,2,c
  4481   001326  EF58  F008         	goto	l7073
  4482   00132A  EF97  F009         	goto	l7161
  4483   00132E                     l845:
  4484   00132E                     l7161:
  4485                           
  4486                           ; BSR set to: 0
  4487                           ;application.c: 272:         while(FlagTimeOut != (uint8)1){
  4488   00132E  0463               	decf	_FlagTimeOut^0,w,c
  4489   001330  A4D8               	btfss	status,2,c
  4490   001332  EF9D  F009         	goto	u6161
  4491   001336  EF9F  F009         	goto	u6160
  4492   00133A                     u6161:
  4493   00133A  EFF6  F005         	goto	l822
  4494   00133E                     u6160:
  4495   00133E  EF2A  F002         	goto	l6673
  4496   001342  EF07  F000         	goto	start
  4497   001346                     __end_of_main:
  4498                           	callstack 0
  4499                           
  4500 ;; *************** function _vWriteBlockOnEEPROM *****************
  4501 ;; Defined at:
  4502 ;;		line 465 in file "application.c"
  4503 ;; Parameters:    Size  Location     Type
  4504 ;;  u16TheStartA    2    6[COMRAM] unsigned short 
  4505 ;;  Pass            2    8[COMRAM] PTR unsigned char 
  4506 ;;		 -> main@Pass(4), 
  4507 ;;  Size            1   10[COMRAM] unsigned char 
  4508 ;; Auto vars:     Size  Location     Type
  4509 ;;  LOC_Iterator    2   14[COMRAM] int 
  4510 ;; Return value:  Size  Location     Type
  4511 ;;                  1    wreg      void 
  4512 ;; Registers used:
  4513 ;;		wreg, fsr2l, fsr2h, status,2, status,0, cstack
  4514 ;; Tracked objects:
  4515 ;;		On entry : 0/0
  4516 ;;		On exit  : 0/0
  4517 ;;		Unchanged: 0/0
  4518 ;; Data sizes:     COMRAM   BANK0   BANK1   BANK2   BANK3   BANK4   BANK5   BANK6   BANK7   BANK8   BANK9  BANK10  BANK1
      +1  BANK12  BANK13  BANK14  BANK15
  4519 ;;      Params:         5       0       0       0       0       0       0       0       0       0       0       0       
      +0       0       0       0       0
  4520 ;;      Locals:         2       0       0       0       0       0       0       0       0       0       0       0       
      +0       0       0       0       0
  4521 ;;      Temps:          3       0       0       0       0       0       0       0       0       0       0       0       
      +0       0       0       0       0
  4522 ;;      Totals:        10       0       0       0       0       0       0       0       0       0       0       0       
      +0       0       0       0       0
  4523 ;;Total ram usage:       10 bytes
  4524 ;; Hardware stack levels used: 1
  4525 ;; Hardware stack levels required when called: 4
  4526 ;; This function calls:
  4527 ;;		_eeprom_WriteDataByte
  4528 ;; This function is called by:
  4529 ;;		_main
  4530 ;; This function uses a non-reentrant model
  4531 ;;
  4532                           
  4533                           	psect	text1
  4534   0024D0                     __ptext1:
  4535                           	callstack 0
  4536   0024D0                     _vWriteBlockOnEEPROM:
  4537                           	callstack 26
  4538   0024D0                     
  4539                           ;application.c: 466:     int LOC_Iterator=0;
  4540   0024D0  0E00               	movlw	0
  4541   0024D2  6E3E               	movwf	(vWriteBlockOnEEPROM@LOC_Iterator+1)^0,c
  4542   0024D4  0E00               	movlw	0
  4543   0024D6  6E3D               	movwf	vWriteBlockOnEEPROM@LOC_Iterator^0,c
  4544                           
  4545                           ;application.c: 467:     for(LOC_Iterator=0;LOC_Iterator<Size;LOC_Iterator++){
  4546   0024D8  0E00               	movlw	0
  4547   0024DA  6E3E               	movwf	(vWriteBlockOnEEPROM@LOC_Iterator+1)^0,c
  4548   0024DC  0E00               	movlw	0
  4549   0024DE  6E3D               	movwf	vWriteBlockOnEEPROM@LOC_Iterator^0,c
  4550   0024E0  EF84  F012         	goto	l6267
  4551   0024E4                     l6263:
  4552                           
  4553                           ;application.c: 468:         eeprom_WriteDataByte((u16TheStartAddress +LOC_Iterator),*(P
      +                          ass+LOC_Iterator));
  4554   0024E4  5035               	movf	vWriteBlockOnEEPROM@u16TheStartAddress^0,w,c
  4555   0024E6  243D               	addwf	vWriteBlockOnEEPROM@LOC_Iterator^0,w,c
  4556   0024E8  6E31               	movwf	eeprom_WriteDataByte@badd^0,c
  4557   0024EA  5036               	movf	(vWriteBlockOnEEPROM@u16TheStartAddress+1)^0,w,c
  4558   0024EC  203E               	addwfc	(vWriteBlockOnEEPROM@LOC_Iterator+1)^0,w,c
  4559   0024EE  6E32               	movwf	(eeprom_WriteDataByte@badd+1)^0,c
  4560   0024F0  503D               	movf	vWriteBlockOnEEPROM@LOC_Iterator^0,w,c
  4561   0024F2  2437               	addwf	vWriteBlockOnEEPROM@Pass^0,w,c
  4562   0024F4  6ED9               	movwf	fsr2l,c
  4563   0024F6  503E               	movf	(vWriteBlockOnEEPROM@LOC_Iterator+1)^0,w,c
  4564   0024F8  2038               	addwfc	(vWriteBlockOnEEPROM@Pass+1)^0,w,c
  4565   0024FA  6EDA               	movwf	fsr2h,c
  4566   0024FC  50DF               	movf	indf2,w,c
  4567   0024FE  6E33               	movwf	eeprom_WriteDataByte@data^0,c
  4568   002500  ECE7  F013         	call	_eeprom_WriteDataByte	;wreg free
  4569   002504                     
  4570                           ;application.c: 469:     }
  4571   002504  4A3D               	infsnz	vWriteBlockOnEEPROM@LOC_Iterator^0,f,c
  4572   002506  2A3E               	incf	(vWriteBlockOnEEPROM@LOC_Iterator+1)^0,f,c
  4573   002508                     l6267:
  4574   002508  5039               	movf	vWriteBlockOnEEPROM@Size^0,w,c
  4575   00250A  6E3A               	movwf	??_vWriteBlockOnEEPROM^0,c
  4576   00250C  6A3B               	clrf	(??_vWriteBlockOnEEPROM+1)^0,c
  4577   00250E  503A               	movf	??_vWriteBlockOnEEPROM^0,w,c
  4578   002510  5C3D               	subwf	vWriteBlockOnEEPROM@LOC_Iterator^0,w,c
  4579   002512  503E               	movf	(vWriteBlockOnEEPROM@LOC_Iterator+1)^0,w,c
  4580   002514  0A80               	xorlw	128
  4581   002516  6E3C               	movwf	(??_vWriteBlockOnEEPROM+2)^0,c
  4582   002518  503B               	movf	(??_vWriteBlockOnEEPROM+1)^0,w,c
  4583   00251A  0A80               	xorlw	128
  4584   00251C  583C               	subwfb	(??_vWriteBlockOnEEPROM+2)^0,w,c
  4585   00251E  A0D8               	btfss	status,0,c
  4586   002520  EF94  F012         	goto	u5271
  4587   002524  EF96  F012         	goto	u5270
  4588   002528                     u5271:
  4589   002528  EF72  F012         	goto	l6263
  4590   00252C                     u5270:
  4591   00252C  0012               	return		;funcret
  4592   00252E                     __end_of_vWriteBlockOnEEPROM:
  4593                           	callstack 0
  4594                           
  4595 ;; *************** function _eeprom_WriteDataByte *****************
  4596 ;; Defined at:
  4597 ;;		line 17 in file "MCAL_LAYER/EEPROM/hal_eeprom.c"
  4598 ;; Parameters:    Size  Location     Type
  4599 ;;  badd            2    2[COMRAM] unsigned short 
  4600 ;;  data            1    4[COMRAM] unsigned char 
  4601 ;; Auto vars:     Size  Location     Type
  4602 ;;  interrupt_st    1    5[COMRAM] unsigned char 
  4603 ;;  ret             1    0        unsigned char 
  4604 ;; Return value:  Size  Location     Type
  4605 ;;                  1    wreg      unsigned char 
  4606 ;; Registers used:
  4607 ;;		wreg, status,2, status,0
  4608 ;; Tracked objects:
  4609 ;;		On entry : 0/0
  4610 ;;		On exit  : 0/0
  4611 ;;		Unchanged: 0/0
  4612 ;; Data sizes:     COMRAM   BANK0   BANK1   BANK2   BANK3   BANK4   BANK5   BANK6   BANK7   BANK8   BANK9  BANK10  BANK1
      +1  BANK12  BANK13  BANK14  BANK15
  4613 ;;      Params:         3       0       0       0       0       0       0       0       0       0       0       0       
      +0       0       0       0       0
  4614 ;;      Locals:         1       0       0       0       0       0       0       0       0       0       0       0       
      +0       0       0       0       0
  4615 ;;      Temps:          0       0       0       0       0       0       0       0       0       0       0       0       
      +0       0       0       0       0
  4616 ;;      Totals:         4       0       0       0       0       0       0       0       0       0       0       0       
      +0       0       0       0       0
  4617 ;;Total ram usage:        4 bytes
  4618 ;; Hardware stack levels used: 1
  4619 ;; Hardware stack levels required when called: 3
  4620 ;; This function calls:
  4621 ;;		Nothing
  4622 ;; This function is called by:
  4623 ;;		_main
  4624 ;;		_vWriteBlockOnEEPROM
  4625 ;; This function uses a non-reentrant model
  4626 ;;
  4627                           
  4628                           	psect	text2
  4629   0027CE                     __ptext2:
  4630                           	callstack 0
  4631   0027CE                     _eeprom_WriteDataByte:
  4632                           	callstack 26
  4633   0027CE                     
  4634                           ;MCAL_LAYER/EEPROM/hal_eeprom.c: 20:       uint8 interrupt_status=INTCONbits.GIE;
  4635   0027CE  0E00               	movlw	0
  4636   0027D0  BEF2               	btfsc	242,7,c	;volatile
  4637   0027D2  0E01               	movlw	1
  4638   0027D4  6E34               	movwf	eeprom_WriteDataByte@interrupt_status^0,c
  4639   0027D6                     
  4640                           ;MCAL_LAYER/EEPROM/hal_eeprom.c: 22:       EEADRH=(uint8)((badd >>8)&0x03);
  4641   0027D6  5032               	movf	(eeprom_WriteDataByte@badd+1)^0,w,c
  4642   0027D8  0B03               	andlw	3
  4643   0027DA  6EAA               	movwf	170,c	;volatile
  4644   0027DC                     
  4645                           ;MCAL_LAYER/EEPROM/hal_eeprom.c: 23:       EEADR= (uint8)((badd)&0xFF);
  4646   0027DC  C031  FFA9         	movff	eeprom_WriteDataByte@badd,4009	;volatile
  4647   0027E0                     
  4648                           ;MCAL_LAYER/EEPROM/hal_eeprom.c: 25:       EEDATA=data;
  4649   0027E0  C033  FFA8         	movff	eeprom_WriteDataByte@data,4008	;volatile
  4650   0027E4                     
  4651                           ;MCAL_LAYER/EEPROM/hal_eeprom.c: 27:       EECON1bits.EEPGD=0;
  4652   0027E4  9EA6               	bcf	166,7,c	;volsfr
  4653   0027E6                     
  4654                           ;MCAL_LAYER/EEPROM/hal_eeprom.c: 29:       EECON1bits.CFGS=0;
  4655   0027E6  9CA6               	bcf	166,6,c	;volsfr
  4656   0027E8                     
  4657                           ;MCAL_LAYER/EEPROM/hal_eeprom.c: 31:       EECON1bits.WREN=1;
  4658   0027E8  84A6               	bsf	166,2,c	;volsfr
  4659   0027EA                     
  4660                           ;MCAL_LAYER/EEPROM/hal_eeprom.c: 33:       (INTCONbits.GIE=0);
  4661   0027EA  9EF2               	bcf	242,7,c	;volatile
  4662   0027EC                     
  4663                           ;MCAL_LAYER/EEPROM/hal_eeprom.c: 35:       EECON2=0x55;
  4664   0027EC  0E55               	movlw	85
  4665   0027EE  6EA7               	movwf	167,c	;volsfr
  4666   0027F0                     
  4667                           ;MCAL_LAYER/EEPROM/hal_eeprom.c: 36:       EECON2=0xAA;
  4668   0027F0  0EAA               	movlw	170
  4669   0027F2  6EA7               	movwf	167,c	;volsfr
  4670   0027F4                     
  4671                           ;MCAL_LAYER/EEPROM/hal_eeprom.c: 38:       EECON1bits.WR=1;
  4672   0027F4  82A6               	bsf	166,1,c	;volsfr
  4673   0027F6                     l288:
  4674   0027F6  B2A6               	btfsc	166,1,c	;volsfr
  4675   0027F8  EF00  F014         	goto	u4771
  4676   0027FC  EF02  F014         	goto	u4770
  4677   002800                     u4771:
  4678   002800  EFFB  F013         	goto	l288
  4679   002804                     u4770:
  4680   002804                     
  4681                           ;MCAL_LAYER/EEPROM/hal_eeprom.c: 42:       EECON1bits.WREN=0;
  4682   002804  94A6               	bcf	166,2,c	;volsfr
  4683                           
  4684                           ;MCAL_LAYER/EEPROM/hal_eeprom.c: 44:       INTCONbits.GIE=interrupt_status;
  4685   002806  B034               	btfsc	eeprom_WriteDataByte@interrupt_status^0,0,c
  4686   002808  D002               	bra	u4785
  4687   00280A  9EF2               	bcf	242,7,c	;volatile
  4688   00280C  D001               	bra	u4786
  4689   00280E                     u4785:
  4690   00280E  8EF2               	bsf	242,7,c	;volatile
  4691   002810                     u4786:
  4692   002810  0012               	return		;funcret
  4693   002812                     __end_of_eeprom_WriteDataByte:
  4694                           	callstack 0
  4695                           
  4696 ;; *************** function _vReadBlockOnEEPROM *****************
  4697 ;; Defined at:
  4698 ;;		line 472 in file "application.c"
  4699 ;; Parameters:    Size  Location     Type
  4700 ;;  u16TheStartA    2    6[COMRAM] unsigned short 
  4701 ;;  Pass            2    8[COMRAM] PTR unsigned char 
  4702 ;;		 -> main@PassStored(4), 
  4703 ;;  Size            1   10[COMRAM] unsigned char 
  4704 ;; Auto vars:     Size  Location     Type
  4705 ;;  LOC_Iterator    2   14[COMRAM] int 
  4706 ;; Return value:  Size  Location     Type
  4707 ;;                  1    wreg      void 
  4708 ;; Registers used:
  4709 ;;		wreg, fsr2l, fsr2h, status,2, status,0, cstack
  4710 ;; Tracked objects:
  4711 ;;		On entry : 0/0
  4712 ;;		On exit  : 0/0
  4713 ;;		Unchanged: 0/0
  4714 ;; Data sizes:     COMRAM   BANK0   BANK1   BANK2   BANK3   BANK4   BANK5   BANK6   BANK7   BANK8   BANK9  BANK10  BANK1
      +1  BANK12  BANK13  BANK14  BANK15
  4715 ;;      Params:         5       0       0       0       0       0       0       0       0       0       0       0       
      +0       0       0       0       0
  4716 ;;      Locals:         2       0       0       0       0       0       0       0       0       0       0       0       
      +0       0       0       0       0
  4717 ;;      Temps:          3       0       0       0       0       0       0       0       0       0       0       0       
      +0       0       0       0       0
  4718 ;;      Totals:        10       0       0       0       0       0       0       0       0       0       0       0       
      +0       0       0       0       0
  4719 ;;Total ram usage:       10 bytes
  4720 ;; Hardware stack levels used: 1
  4721 ;; Hardware stack levels required when called: 4
  4722 ;; This function calls:
  4723 ;;		_eeprom_ReadDataByte
  4724 ;; This function is called by:
  4725 ;;		_main
  4726 ;; This function uses a non-reentrant model
  4727 ;;
  4728                           
  4729                           	psect	text3
  4730   00252E                     __ptext3:
  4731                           	callstack 0
  4732   00252E                     _vReadBlockOnEEPROM:
  4733                           	callstack 26
  4734   00252E                     
  4735                           ;application.c: 473:     int LOC_Iterator=0;
  4736   00252E  0E00               	movlw	0
  4737   002530  6E3E               	movwf	(vReadBlockOnEEPROM@LOC_Iterator+1)^0,c
  4738   002532  0E00               	movlw	0
  4739   002534  6E3D               	movwf	vReadBlockOnEEPROM@LOC_Iterator^0,c
  4740                           
  4741                           ;application.c: 474:     for(LOC_Iterator=0;LOC_Iterator<Size;LOC_Iterator++){
  4742   002536  0E00               	movlw	0
  4743   002538  6E3E               	movwf	(vReadBlockOnEEPROM@LOC_Iterator+1)^0,c
  4744   00253A  0E00               	movlw	0
  4745   00253C  6E3D               	movwf	vReadBlockOnEEPROM@LOC_Iterator^0,c
  4746   00253E  EFB1  F012         	goto	l6275
  4747   002542                     l6271:
  4748                           
  4749                           ;application.c: 475:         eeprom_ReadDataByte((u16TheStartAddress +LOC_Iterator),(Pas
      +                          s+LOC_Iterator));
  4750   002542  5035               	movf	vReadBlockOnEEPROM@u16TheStartAddress^0,w,c
  4751   002544  243D               	addwf	vReadBlockOnEEPROM@LOC_Iterator^0,w,c
  4752   002546  6E31               	movwf	eeprom_ReadDataByte@badd^0,c
  4753   002548  5036               	movf	(vReadBlockOnEEPROM@u16TheStartAddress+1)^0,w,c
  4754   00254A  203E               	addwfc	(vReadBlockOnEEPROM@LOC_Iterator+1)^0,w,c
  4755   00254C  6E32               	movwf	(eeprom_ReadDataByte@badd+1)^0,c
  4756   00254E  503D               	movf	vReadBlockOnEEPROM@LOC_Iterator^0,w,c
  4757   002550  2437               	addwf	vReadBlockOnEEPROM@Pass^0,w,c
  4758   002552  6E33               	movwf	eeprom_ReadDataByte@data^0,c
  4759   002554  503E               	movf	(vReadBlockOnEEPROM@LOC_Iterator+1)^0,w,c
  4760   002556  2038               	addwfc	(vReadBlockOnEEPROM@Pass+1)^0,w,c
  4761   002558  6E34               	movwf	(eeprom_ReadDataByte@data+1)^0,c
  4762   00255A  ECC3  F014         	call	_eeprom_ReadDataByte	;wreg free
  4763   00255E                     
  4764                           ;application.c: 476:     }
  4765   00255E  4A3D               	infsnz	vReadBlockOnEEPROM@LOC_Iterator^0,f,c
  4766   002560  2A3E               	incf	(vReadBlockOnEEPROM@LOC_Iterator+1)^0,f,c
  4767   002562                     l6275:
  4768   002562  5039               	movf	vReadBlockOnEEPROM@Size^0,w,c
  4769   002564  6E3A               	movwf	??_vReadBlockOnEEPROM^0,c
  4770   002566  6A3B               	clrf	(??_vReadBlockOnEEPROM+1)^0,c
  4771   002568  503A               	movf	??_vReadBlockOnEEPROM^0,w,c
  4772   00256A  5C3D               	subwf	vReadBlockOnEEPROM@LOC_Iterator^0,w,c
  4773   00256C  503E               	movf	(vReadBlockOnEEPROM@LOC_Iterator+1)^0,w,c
  4774   00256E  0A80               	xorlw	128
  4775   002570  6E3C               	movwf	(??_vReadBlockOnEEPROM+2)^0,c
  4776   002572  503B               	movf	(??_vReadBlockOnEEPROM+1)^0,w,c
  4777   002574  0A80               	xorlw	128
  4778   002576  583C               	subwfb	(??_vReadBlockOnEEPROM+2)^0,w,c
  4779   002578  A0D8               	btfss	status,0,c
  4780   00257A  EFC1  F012         	goto	u5281
  4781   00257E  EFC3  F012         	goto	u5280
  4782   002582                     u5281:
  4783   002582  EFA1  F012         	goto	l6271
  4784   002586                     u5280:
  4785   002586  0012               	return		;funcret
  4786   002588                     __end_of_vReadBlockOnEEPROM:
  4787                           	callstack 0
  4788                           
  4789 ;; *************** function _vMenuOption *****************
  4790 ;; Defined at:
  4791 ;;		line 26 in file "menu.c"
  4792 ;; Parameters:    Size  Location     Type
  4793 ;;  u8SelectedRo    1    wreg     const unsigned char 
  4794 ;;  u8LonginMode    1   27[COMRAM] const unsigned char 
  4795 ;; Auto vars:     Size  Location     Type
  4796 ;;  u8SelectedRo    1   30[COMRAM] const unsigned char 
  4797 ;;  u8keyPressed    1   35[COMRAM] unsigned char 
  4798 ;;  u8StatusCode    1   34[COMRAM] unsigned char 
  4799 ;;  u8TurnoffCod    1   33[COMRAM] unsigned char 
  4800 ;;  u8TurnOnCode    1   32[COMRAM] unsigned char 
  4801 ;;  u8Response      1   31[COMRAM] unsigned char 
  4802 ;; Return value:  Size  Location     Type
  4803 ;;                  1    wreg      void 
  4804 ;; Registers used:
  4805 ;;		wreg, fsr2l, fsr2h, status,2, status,0, tblptrl, tblptrh, tblptru, prodl, prodh, cstack
  4806 ;; Tracked objects:
  4807 ;;		On entry : 0/0
  4808 ;;		On exit  : 0/0
  4809 ;;		Unchanged: 0/0
  4810 ;; Data sizes:     COMRAM   BANK0   BANK1   BANK2   BANK3   BANK4   BANK5   BANK6   BANK7   BANK8   BANK9  BANK10  BANK1
      +1  BANK12  BANK13  BANK14  BANK15
  4811 ;;      Params:         1       0       0       0       0       0       0       0       0       0       0       0       
      +0       0       0       0       0
  4812 ;;      Locals:         6       0       0       0       0       0       0       0       0       0       0       0       
      +0       0       0       0       0
  4813 ;;      Temps:          2       0       0       0       0       0       0       0       0       0       0       0       
      +0       0       0       0       0
  4814 ;;      Totals:         9       0       0       0       0       0       0       0       0       0       0       0       
      +0       0       0       0       0
  4815 ;;Total ram usage:        9 bytes
  4816 ;; Hardware stack levels used: 1
  4817 ;; Hardware stack levels required when called: 7
  4818 ;; This function calls:
  4819 ;;		__TimerDelay_ms
  4820 ;;		_lcd_4bit_send_command
  4821 ;;		_lcd_4bit_send_string_data
  4822 ;;		_set_cursor_4bit_mode
  4823 ;;		_u8GetPressedValue
  4824 ;;		_u8SpiTranmitRecieve
  4825 ;; This function is called by:
  4826 ;;		_main
  4827 ;; This function uses a non-reentrant model
  4828 ;;
  4829                           
  4830                           	psect	text4
  4831   001346                     __ptext4:
  4832                           	callstack 0
  4833   001346                     _vMenuOption:
  4834                           	callstack 23
  4835                           
  4836                           ;incstack = 0
  4837                           ;vMenuOption@u8SelectedRoom stored from wreg
  4838   001346  6E4D               	movwf	vMenuOption@u8SelectedRoom^0,c
  4839   001348                     
  4840                           ;menu.c: 27:     uint8 u8StatusCode=0;
  4841   001348  0E00               	movlw	0
  4842   00134A  6E51               	movwf	vMenuOption@u8StatusCode^0,c
  4843                           
  4844                           ;menu.c: 28:     uint8 u8TurnOnCode=0;
  4845   00134C  0E00               	movlw	0
  4846   00134E  6E4F               	movwf	vMenuOption@u8TurnOnCode^0,c
  4847                           
  4848                           ;menu.c: 29:     uint8 u8TurnoffCode=0;
  4849   001350  0E00               	movlw	0
  4850   001352  6E50               	movwf	vMenuOption@u8TurnoffCode^0,c
  4851   001354                     l6297:
  4852                           
  4853                           ;menu.c: 33:      lcd_4bit_send_command(&Lcd_Obj,0x01);
  4854   001354  0E1A               	movlw	low _Lcd_Obj
  4855   001356  6E3F               	movwf	lcd_4bit_send_command@_lcd^0,c
  4856   001358  0E00               	movlw	high _Lcd_Obj
  4857   00135A  6E40               	movwf	(lcd_4bit_send_command@_lcd+1)^0,c
  4858   00135C  0E01               	movlw	1
  4859   00135E  6E41               	movwf	lcd_4bit_send_command@command^0,c
  4860   001360  EC94  F011         	call	_lcd_4bit_send_command	;wreg free
  4861                           
  4862                           ;menu.c: 34:      switch(u8SelectedRoom){
  4863   001364  EF20  F00A         	goto	l6325
  4864   001368                     l6299:
  4865                           
  4866                           ;menu.c: 36:             u8StatusCode=0X11;
  4867   001368  0E11               	movlw	17
  4868   00136A  6E51               	movwf	vMenuOption@u8StatusCode^0,c
  4869                           
  4870                           ;menu.c: 37:             u8TurnOnCode=0X21;
  4871   00136C  0E21               	movlw	33
  4872   00136E  6E4F               	movwf	vMenuOption@u8TurnOnCode^0,c
  4873                           
  4874                           ;menu.c: 38:             u8TurnoffCode=0X31;
  4875   001370  0E31               	movlw	49
  4876   001372  6E50               	movwf	vMenuOption@u8TurnoffCode^0,c
  4877   001374                     
  4878                           ;menu.c: 39:             lcd_4bit_send_string_data(&Lcd_Obj,"Room1 S:");
  4879   001374  0E1A               	movlw	low _Lcd_Obj
  4880   001376  6E43               	movwf	lcd_4bit_send_string_data@_lcd^0,c
  4881   001378  0E00               	movlw	high _Lcd_Obj
  4882   00137A  6E44               	movwf	(lcd_4bit_send_string_data@_lcd+1)^0,c
  4883   00137C  0ECA               	movlw	low STR_46
  4884   00137E  6E45               	movwf	lcd_4bit_send_string_data@str^0,c
  4885   001380  0EFF               	movlw	high STR_46
  4886   001382  6E46               	movwf	(lcd_4bit_send_string_data@str+1)^0,c
  4887   001384  ECF0  F012         	call	_lcd_4bit_send_string_data	;wreg free
  4888                           
  4889                           ;menu.c: 40:             break;
  4890   001388  EF45  F00A         	goto	l6327
  4891   00138C                     l6303:
  4892                           
  4893                           ;menu.c: 42:             u8StatusCode=0X12;
  4894   00138C  0E12               	movlw	18
  4895   00138E  6E51               	movwf	vMenuOption@u8StatusCode^0,c
  4896                           
  4897                           ;menu.c: 43:             u8TurnOnCode=0X22;
  4898   001390  0E22               	movlw	34
  4899   001392  6E4F               	movwf	vMenuOption@u8TurnOnCode^0,c
  4900                           
  4901                           ;menu.c: 44:             u8TurnoffCode=0X32;
  4902   001394  0E32               	movlw	50
  4903   001396  6E50               	movwf	vMenuOption@u8TurnoffCode^0,c
  4904   001398                     
  4905                           ;menu.c: 45:             lcd_4bit_send_string_data(&Lcd_Obj,"Room2 S:");
  4906   001398  0E1A               	movlw	low _Lcd_Obj
  4907   00139A  6E43               	movwf	lcd_4bit_send_string_data@_lcd^0,c
  4908   00139C  0E00               	movlw	high _Lcd_Obj
  4909   00139E  6E44               	movwf	(lcd_4bit_send_string_data@_lcd+1)^0,c
  4910   0013A0  0ED3               	movlw	low STR_47
  4911   0013A2  6E45               	movwf	lcd_4bit_send_string_data@str^0,c
  4912   0013A4  0EFF               	movlw	high STR_47
  4913   0013A6  6E46               	movwf	(lcd_4bit_send_string_data@str+1)^0,c
  4914   0013A8  ECF0  F012         	call	_lcd_4bit_send_string_data	;wreg free
  4915                           
  4916                           ;menu.c: 46:             break;
  4917   0013AC  EF45  F00A         	goto	l6327
  4918   0013B0                     l6307:
  4919                           
  4920                           ;menu.c: 48:             u8StatusCode=0X13;
  4921   0013B0  0E13               	movlw	19
  4922   0013B2  6E51               	movwf	vMenuOption@u8StatusCode^0,c
  4923                           
  4924                           ;menu.c: 49:             u8TurnOnCode=0X23;
  4925   0013B4  0E23               	movlw	35
  4926   0013B6  6E4F               	movwf	vMenuOption@u8TurnOnCode^0,c
  4927                           
  4928                           ;menu.c: 50:             u8TurnoffCode=0X33;
  4929   0013B8  0E33               	movlw	51
  4930   0013BA  6E50               	movwf	vMenuOption@u8TurnoffCode^0,c
  4931   0013BC                     
  4932                           ;menu.c: 51:             lcd_4bit_send_string_data(&Lcd_Obj,"Room3 S:");
  4933   0013BC  0E1A               	movlw	low _Lcd_Obj
  4934   0013BE  6E43               	movwf	lcd_4bit_send_string_data@_lcd^0,c
  4935   0013C0  0E00               	movlw	high _Lcd_Obj
  4936   0013C2  6E44               	movwf	(lcd_4bit_send_string_data@_lcd+1)^0,c
  4937   0013C4  0EDC               	movlw	low STR_48
  4938   0013C6  6E45               	movwf	lcd_4bit_send_string_data@str^0,c
  4939   0013C8  0EFF               	movlw	high STR_48
  4940   0013CA  6E46               	movwf	(lcd_4bit_send_string_data@str+1)^0,c
  4941   0013CC  ECF0  F012         	call	_lcd_4bit_send_string_data	;wreg free
  4942                           
  4943                           ;menu.c: 52:             break;
  4944   0013D0  EF45  F00A         	goto	l6327
  4945   0013D4                     l6311:
  4946                           
  4947                           ;menu.c: 54:             u8StatusCode=0X14;
  4948   0013D4  0E14               	movlw	20
  4949   0013D6  6E51               	movwf	vMenuOption@u8StatusCode^0,c
  4950                           
  4951                           ;menu.c: 55:             u8TurnOnCode=0X24;
  4952   0013D8  0E24               	movlw	36
  4953   0013DA  6E4F               	movwf	vMenuOption@u8TurnOnCode^0,c
  4954                           
  4955                           ;menu.c: 56:             u8TurnoffCode=0X34;
  4956   0013DC  0E34               	movlw	52
  4957   0013DE  6E50               	movwf	vMenuOption@u8TurnoffCode^0,c
  4958   0013E0                     
  4959                           ;menu.c: 57:             lcd_4bit_send_string_data(&Lcd_Obj,"Room4 S:");
  4960   0013E0  0E1A               	movlw	low _Lcd_Obj
  4961   0013E2  6E43               	movwf	lcd_4bit_send_string_data@_lcd^0,c
  4962   0013E4  0E00               	movlw	high _Lcd_Obj
  4963   0013E6  6E44               	movwf	(lcd_4bit_send_string_data@_lcd+1)^0,c
  4964   0013E8  0EE5               	movlw	low STR_49
  4965   0013EA  6E45               	movwf	lcd_4bit_send_string_data@str^0,c
  4966   0013EC  0EFF               	movlw	high STR_49
  4967   0013EE  6E46               	movwf	(lcd_4bit_send_string_data@str+1)^0,c
  4968   0013F0  ECF0  F012         	call	_lcd_4bit_send_string_data	;wreg free
  4969                           
  4970                           ;menu.c: 58:             break;
  4971   0013F4  EF45  F00A         	goto	l6327
  4972   0013F8                     l6315:
  4973                           
  4974                           ;menu.c: 60:             u8StatusCode=0X15;
  4975   0013F8  0E15               	movlw	21
  4976   0013FA  6E51               	movwf	vMenuOption@u8StatusCode^0,c
  4977                           
  4978                           ;menu.c: 61:             u8TurnOnCode=0X25;
  4979   0013FC  0E25               	movlw	37
  4980   0013FE  6E4F               	movwf	vMenuOption@u8TurnOnCode^0,c
  4981                           
  4982                           ;menu.c: 62:             u8TurnoffCode=0X35;
  4983   001400  0E35               	movlw	53
  4984   001402  6E50               	movwf	vMenuOption@u8TurnoffCode^0,c
  4985   001404                     
  4986                           ;menu.c: 63:             lcd_4bit_send_string_data(&Lcd_Obj,"TV S:");
  4987   001404  0E1A               	movlw	low _Lcd_Obj
  4988   001406  6E43               	movwf	lcd_4bit_send_string_data@_lcd^0,c
  4989   001408  0E00               	movlw	high _Lcd_Obj
  4990   00140A  6E44               	movwf	(lcd_4bit_send_string_data@_lcd+1)^0,c
  4991   00140C  0EEE               	movlw	low STR_50
  4992   00140E  6E45               	movwf	lcd_4bit_send_string_data@str^0,c
  4993   001410  0EFF               	movlw	high STR_50
  4994   001412  6E46               	movwf	(lcd_4bit_send_string_data@str+1)^0,c
  4995   001414  ECF0  F012         	call	_lcd_4bit_send_string_data	;wreg free
  4996                           
  4997                           ;menu.c: 64:             break;
  4998   001418  EF45  F00A         	goto	l6327
  4999   00141C                     l6319:
  5000                           
  5001                           ;menu.c: 66:             u8StatusCode=0X16;
  5002   00141C  0E16               	movlw	22
  5003   00141E  6E51               	movwf	vMenuOption@u8StatusCode^0,c
  5004                           
  5005                           ;menu.c: 67:             u8TurnOnCode=0X26;
  5006   001420  0E26               	movlw	38
  5007   001422  6E4F               	movwf	vMenuOption@u8TurnOnCode^0,c
  5008                           
  5009                           ;menu.c: 68:             u8TurnoffCode=0X36;
  5010   001424  0E36               	movlw	54
  5011   001426  6E50               	movwf	vMenuOption@u8TurnoffCode^0,c
  5012   001428                     
  5013                           ;menu.c: 69:             lcd_4bit_send_string_data(&Lcd_Obj,"AIR COND. S:");
  5014   001428  0E1A               	movlw	low _Lcd_Obj
  5015   00142A  6E43               	movwf	lcd_4bit_send_string_data@_lcd^0,c
  5016   00142C  0E00               	movlw	high _Lcd_Obj
  5017   00142E  6E44               	movwf	(lcd_4bit_send_string_data@_lcd+1)^0,c
  5018   001430  0E24               	movlw	low STR_51
  5019   001432  6E45               	movwf	lcd_4bit_send_string_data@str^0,c
  5020   001434  0EFF               	movlw	high STR_51
  5021   001436  6E46               	movwf	(lcd_4bit_send_string_data@str+1)^0,c
  5022   001438  ECF0  F012         	call	_lcd_4bit_send_string_data	;wreg free
  5023                           
  5024                           ;menu.c: 70:             break;
  5025   00143C  EF45  F00A         	goto	l6327
  5026   001440                     l6325:
  5027   001440  504D               	movf	vMenuOption@u8SelectedRoom^0,w,c
  5028   001442  6E4B               	movwf	??_vMenuOption^0,c
  5029   001444  6A4C               	clrf	(??_vMenuOption+1)^0,c
  5030                           
  5031                           ; Switch on 2 bytes has been partitioned into a top level switch of size 1, and 1 sub-sw
      +                          itches
  5032                           ; Switch size 1, requested type "simple"
  5033                           ; Number of cases is 1, Range of values is 0 to 0
  5034                           ; switch strategies available:
  5035                           ; Name         Instructions Cycles
  5036                           ; simple_byte            4     3 (average)
  5037                           ;	Chosen strategy is simple_byte
  5038   001446  504C               	movf	(??_vMenuOption+1)^0,w,c
  5039   001448  0A00               	xorlw	0	; case 0
  5040   00144A  B4D8               	btfsc	status,2,c
  5041   00144C  EF2A  F00A         	goto	l7295
  5042   001450  EF45  F00A         	goto	l6327
  5043   001454                     l7295:
  5044                           
  5045                           ; Switch size 1, requested type "simple"
  5046                           ; Number of cases is 6, Range of values is 3 to 9
  5047                           ; switch strategies available:
  5048                           ; Name         Instructions Cycles
  5049                           ; simple_byte           19    10 (average)
  5050                           ;	Chosen strategy is simple_byte
  5051   001454  504B               	movf	??_vMenuOption^0,w,c
  5052   001456  0A03               	xorlw	3	; case 3
  5053   001458  B4D8               	btfsc	status,2,c
  5054   00145A  EFB4  F009         	goto	l6299
  5055   00145E  0A07               	xorlw	7	; case 4
  5056   001460  B4D8               	btfsc	status,2,c
  5057   001462  EFC6  F009         	goto	l6303
  5058   001466  0A01               	xorlw	1	; case 5
  5059   001468  B4D8               	btfsc	status,2,c
  5060   00146A  EFD8  F009         	goto	l6307
  5061   00146E  0A03               	xorlw	3	; case 6
  5062   001470  B4D8               	btfsc	status,2,c
  5063   001472  EFEA  F009         	goto	l6311
  5064   001476  0A01               	xorlw	1	; case 7
  5065   001478  B4D8               	btfsc	status,2,c
  5066   00147A  EFFC  F009         	goto	l6315
  5067   00147E  0A0E               	xorlw	14	; case 9
  5068   001480  B4D8               	btfsc	status,2,c
  5069   001482  EF0E  F00A         	goto	l6319
  5070   001486  EF45  F00A         	goto	l6327
  5071   00148A                     l6327:
  5072                           
  5073                           ;menu.c: 73:           u8SpiTranmitRecieve(u8StatusCode);
  5074   00148A  5051               	movf	vMenuOption@u8StatusCode^0,w,c
  5075   00148C  ECC1  F013         	call	_u8SpiTranmitRecieve
  5076   001490                     
  5077                           ;menu.c: 74:           _TimerDelay_ms(100);
  5078   001490  0E00               	movlw	0
  5079   001492  6E39               	movwf	(__TimerDelay_ms@u16CopyDelay+1)^0,c
  5080   001494  0E64               	movlw	100
  5081   001496  6E38               	movwf	__TimerDelay_ms@u16CopyDelay^0,c
  5082   001498  EC70  F013         	call	__TimerDelay_ms	;wreg free
  5083   00149C                     
  5084                           ;menu.c: 75:           u8Response=u8SpiTranmitRecieve(u8StatusCode);
  5085   00149C  5051               	movf	vMenuOption@u8StatusCode^0,w,c
  5086   00149E  ECC1  F013         	call	_u8SpiTranmitRecieve
  5087   0014A2  6E4E               	movwf	vMenuOption@u8Response^0,c
  5088   0014A4                     
  5089                           ;menu.c: 76:           if(u8Response==0X01){
  5090   0014A4  044E               	decf	vMenuOption@u8Response^0,w,c
  5091   0014A6  A4D8               	btfss	status,2,c
  5092   0014A8  EF58  F00A         	goto	u5311
  5093   0014AC  EF5A  F00A         	goto	u5310
  5094   0014B0                     u5311:
  5095   0014B0  EF66  F00A         	goto	l6337
  5096   0014B4                     u5310:
  5097   0014B4                     
  5098                           ;menu.c: 77:               lcd_4bit_send_string_data(&Lcd_Obj,"ON");
  5099   0014B4  0E1A               	movlw	low _Lcd_Obj
  5100   0014B6  6E43               	movwf	lcd_4bit_send_string_data@_lcd^0,c
  5101   0014B8  0E00               	movlw	high _Lcd_Obj
  5102   0014BA  6E44               	movwf	(lcd_4bit_send_string_data@_lcd+1)^0,c
  5103   0014BC  0EF8               	movlw	low STR_52
  5104   0014BE  6E45               	movwf	lcd_4bit_send_string_data@str^0,c
  5105   0014C0  0EFF               	movlw	high STR_52
  5106   0014C2  6E46               	movwf	(lcd_4bit_send_string_data@str+1)^0,c
  5107   0014C4  ECF0  F012         	call	_lcd_4bit_send_string_data	;wreg free
  5108                           
  5109                           ;menu.c: 78:           }
  5110   0014C8  EF78  F00A         	goto	l6341
  5111   0014CC                     l6337:
  5112   0014CC  504E               	movf	vMenuOption@u8Response^0,w,c
  5113   0014CE  A4D8               	btfss	status,2,c
  5114   0014D0  EF6C  F00A         	goto	u5321
  5115   0014D4  EF6E  F00A         	goto	u5320
  5116   0014D8                     u5321:
  5117   0014D8  EF78  F00A         	goto	l6341
  5118   0014DC                     u5320:
  5119   0014DC                     
  5120                           ;menu.c: 80:               lcd_4bit_send_string_data(&Lcd_Obj,"OFF");
  5121   0014DC  0E1A               	movlw	low _Lcd_Obj
  5122   0014DE  6E43               	movwf	lcd_4bit_send_string_data@_lcd^0,c
  5123   0014E0  0E00               	movlw	high _Lcd_Obj
  5124   0014E2  6E44               	movwf	(lcd_4bit_send_string_data@_lcd+1)^0,c
  5125   0014E4  0EF4               	movlw	low STR_53
  5126   0014E6  6E45               	movwf	lcd_4bit_send_string_data@str^0,c
  5127   0014E8  0EFF               	movlw	high STR_53
  5128   0014EA  6E46               	movwf	(lcd_4bit_send_string_data@str+1)^0,c
  5129   0014EC  ECF0  F012         	call	_lcd_4bit_send_string_data	;wreg free
  5130   0014F0                     l6341:
  5131                           
  5132                           ;menu.c: 83:           set_cursor_4bit_mode(&Lcd_Obj,2,1);
  5133   0014F0  0E1A               	movlw	low _Lcd_Obj
  5134   0014F2  6E43               	movwf	set_cursor_4bit_mode@_lcd^0,c
  5135   0014F4  0E00               	movlw	high _Lcd_Obj
  5136   0014F6  6E44               	movwf	(set_cursor_4bit_mode@_lcd+1)^0,c
  5137   0014F8  0E02               	movlw	2
  5138   0014FA  6E45               	movwf	set_cursor_4bit_mode@row^0,c
  5139   0014FC  0E01               	movlw	1
  5140   0014FE  6E46               	movwf	set_cursor_4bit_mode@column^0,c
  5141   001500  ECCC  F00D         	call	_set_cursor_4bit_mode	;wreg free
  5142   001504                     
  5143                           ;menu.c: 84:           lcd_4bit_send_string_data(&Lcd_Obj,"1-ON 2-OFF 0-RET");
  5144   001504  0E1A               	movlw	low _Lcd_Obj
  5145   001506  6E43               	movwf	lcd_4bit_send_string_data@_lcd^0,c
  5146   001508  0E00               	movlw	high _Lcd_Obj
  5147   00150A  6E44               	movwf	(lcd_4bit_send_string_data@_lcd+1)^0,c
  5148   00150C  0E27               	movlw	low STR_54
  5149   00150E  6E45               	movwf	lcd_4bit_send_string_data@str^0,c
  5150   001510  0EFE               	movlw	high STR_54
  5151   001512  6E46               	movwf	(lcd_4bit_send_string_data@str+1)^0,c
  5152   001514  ECF0  F012         	call	_lcd_4bit_send_string_data	;wreg free
  5153   001518                     
  5154                           ;menu.c: 85:           u8keyPressed=u8GetPressedValue(u8LonginMode);
  5155   001518  504A               	movf	vMenuOption@u8LonginMode^0,w,c
  5156   00151A  EC74  F00F         	call	_u8GetPressedValue
  5157   00151E  6E52               	movwf	vMenuOption@u8keyPressed^0,c
  5158   001520                     
  5159                           ;menu.c: 86:           _TimerDelay_ms(100);
  5160   001520  0E00               	movlw	0
  5161   001522  6E39               	movwf	(__TimerDelay_ms@u16CopyDelay+1)^0,c
  5162   001524  0E64               	movlw	100
  5163   001526  6E38               	movwf	__TimerDelay_ms@u16CopyDelay^0,c
  5164   001528  EC70  F013         	call	__TimerDelay_ms	;wreg free
  5165   00152C                     
  5166                           ;menu.c: 87:           if(u8keyPressed=='1'){
  5167   00152C  0E31               	movlw	49
  5168   00152E  1852               	xorwf	vMenuOption@u8keyPressed^0,w,c
  5169   001530  A4D8               	btfss	status,2,c
  5170   001532  EF9D  F00A         	goto	u5331
  5171   001536  EF9F  F00A         	goto	u5330
  5172   00153A                     u5331:
  5173   00153A  EFA4  F00A         	goto	l6353
  5174   00153E                     u5330:
  5175   00153E                     
  5176                           ;menu.c: 88:               u8SpiTranmitRecieve(u8TurnOnCode);
  5177   00153E  504F               	movf	vMenuOption@u8TurnOnCode^0,w,c
  5178   001540  ECC1  F013         	call	_u8SpiTranmitRecieve
  5179                           
  5180                           ;menu.c: 89:           }
  5181   001544  EFDB  F00A         	goto	l6367
  5182   001548                     l6353:
  5183   001548  0E32               	movlw	50
  5184   00154A  1852               	xorwf	vMenuOption@u8keyPressed^0,w,c
  5185   00154C  A4D8               	btfss	status,2,c
  5186   00154E  EFAB  F00A         	goto	u5341
  5187   001552  EFAD  F00A         	goto	u5340
  5188   001556                     u5341:
  5189   001556  EFB2  F00A         	goto	l6357
  5190   00155A                     u5340:
  5191   00155A                     
  5192                           ;menu.c: 91:               u8SpiTranmitRecieve(u8TurnoffCode);
  5193   00155A  5050               	movf	vMenuOption@u8TurnoffCode^0,w,c
  5194   00155C  ECC1  F013         	call	_u8SpiTranmitRecieve
  5195                           
  5196                           ;menu.c: 92:           }
  5197   001560  EFDB  F00A         	goto	l6367
  5198   001564                     l6357:
  5199   001564  2852               	incf	vMenuOption@u8keyPressed^0,w,c
  5200   001566  B4D8               	btfsc	status,2,c
  5201   001568  EFB8  F00A         	goto	u5351
  5202   00156C  EFBA  F00A         	goto	u5350
  5203   001570                     u5351:
  5204   001570  EFDB  F00A         	goto	l6367
  5205   001574                     u5350:
  5206   001574  0E30               	movlw	48
  5207   001576  1852               	xorwf	vMenuOption@u8keyPressed^0,w,c
  5208   001578  B4D8               	btfsc	status,2,c
  5209   00157A  EFC1  F00A         	goto	u5361
  5210   00157E  EFC3  F00A         	goto	u5360
  5211   001582                     u5361:
  5212   001582  EFDB  F00A         	goto	l6367
  5213   001586                     u5360:
  5214   001586                     
  5215                           ;menu.c: 94:               lcd_4bit_send_command(&Lcd_Obj,0x01);
  5216   001586  0E1A               	movlw	low _Lcd_Obj
  5217   001588  6E3F               	movwf	lcd_4bit_send_command@_lcd^0,c
  5218   00158A  0E00               	movlw	high _Lcd_Obj
  5219   00158C  6E40               	movwf	(lcd_4bit_send_command@_lcd+1)^0,c
  5220   00158E  0E01               	movlw	1
  5221   001590  6E41               	movwf	lcd_4bit_send_command@command^0,c
  5222   001592  EC94  F011         	call	_lcd_4bit_send_command	;wreg free
  5223   001596                     
  5224                           ;menu.c: 95:               lcd_4bit_send_string_data(&Lcd_Obj,"Wrong Input");
  5225   001596  0E1A               	movlw	low _Lcd_Obj
  5226   001598  6E43               	movwf	lcd_4bit_send_string_data@_lcd^0,c
  5227   00159A  0E00               	movlw	high _Lcd_Obj
  5228   00159C  6E44               	movwf	(lcd_4bit_send_string_data@_lcd+1)^0,c
  5229   00159E  0E7C               	movlw	low STR_19
  5230   0015A0  6E45               	movwf	lcd_4bit_send_string_data@str^0,c
  5231   0015A2  0EFF               	movlw	high STR_19
  5232   0015A4  6E46               	movwf	(lcd_4bit_send_string_data@str+1)^0,c
  5233   0015A6  ECF0  F012         	call	_lcd_4bit_send_string_data	;wreg free
  5234   0015AA                     
  5235                           ;menu.c: 96:               _TimerDelay_ms(500);
  5236   0015AA  0E01               	movlw	1
  5237   0015AC  6E39               	movwf	(__TimerDelay_ms@u16CopyDelay+1)^0,c
  5238   0015AE  0EF4               	movlw	244
  5239   0015B0  6E38               	movwf	__TimerDelay_ms@u16CopyDelay^0,c
  5240   0015B2  EC70  F013         	call	__TimerDelay_ms	;wreg free
  5241   0015B6                     l6367:
  5242                           
  5243                           ;menu.c: 98:     }while(((u8keyPressed < '0') || (u8keyPressed > '2')) && (FlagTimeOut =
      +                          = (uint8)0));
  5244   0015B6  0E2F               	movlw	47
  5245   0015B8  6452               	cpfsgt	vMenuOption@u8keyPressed^0,c
  5246   0015BA  EFE1  F00A         	goto	u5371
  5247   0015BE  EFE3  F00A         	goto	u5370
  5248   0015C2                     u5371:
  5249   0015C2  EFEB  F00A         	goto	l6371
  5250   0015C6                     u5370:
  5251   0015C6  0E32               	movlw	50
  5252   0015C8  6452               	cpfsgt	vMenuOption@u8keyPressed^0,c
  5253   0015CA  EFE9  F00A         	goto	u5381
  5254   0015CE  EFEB  F00A         	goto	u5380
  5255   0015D2                     u5381:
  5256   0015D2  EFF3  F00A         	goto	l999
  5257   0015D6                     u5380:
  5258   0015D6                     l6371:
  5259   0015D6  5063               	movf	_FlagTimeOut^0,w,c
  5260   0015D8  B4D8               	btfsc	status,2,c
  5261   0015DA  EFF1  F00A         	goto	u5391
  5262   0015DE  EFF3  F00A         	goto	u5390
  5263   0015E2                     u5391:
  5264   0015E2  EFAA  F009         	goto	l6297
  5265   0015E6                     u5390:
  5266   0015E6                     l999:
  5267   0015E6  0012               	return		;funcret
  5268   0015E8                     __end_of_vMenuOption:
  5269                           	callstack 0
  5270                           
  5271 ;; *************** function _u8SpiTranmitRecieve *****************
  5272 ;; Defined at:
  5273 ;;		line 113 in file "menu.c"
  5274 ;; Parameters:    Size  Location     Type
  5275 ;;  u8Data          1    wreg     unsigned char 
  5276 ;; Auto vars:     Size  Location     Type
  5277 ;;  u8Data          1   12[COMRAM] unsigned char 
  5278 ;;  Loc_Data        1   13[COMRAM] unsigned char 
  5279 ;; Return value:  Size  Location     Type
  5280 ;;                  1    wreg      unsigned char 
  5281 ;; Registers used:
  5282 ;;		wreg, fsr2l, fsr2h, status,2, status,0, prodl, prodh, cstack
  5283 ;; Tracked objects:
  5284 ;;		On entry : 0/0
  5285 ;;		On exit  : 0/0
  5286 ;;		Unchanged: 0/0
  5287 ;; Data sizes:     COMRAM   BANK0   BANK1   BANK2   BANK3   BANK4   BANK5   BANK6   BANK7   BANK8   BANK9  BANK10  BANK1
      +1  BANK12  BANK13  BANK14  BANK15
  5288 ;;      Params:         0       0       0       0       0       0       0       0       0       0       0       0       
      +0       0       0       0       0
  5289 ;;      Locals:         2       0       0       0       0       0       0       0       0       0       0       0       
      +0       0       0       0       0
  5290 ;;      Temps:          0       0       0       0       0       0       0       0       0       0       0       0       
      +0       0       0       0       0
  5291 ;;      Totals:         2       0       0       0       0       0       0       0       0       0       0       0       
      +0       0       0       0       0
  5292 ;;Total ram usage:        2 bytes
  5293 ;; Hardware stack levels used: 1
  5294 ;; Hardware stack levels required when called: 4
  5295 ;; This function calls:
  5296 ;;		_gpio_Pin_Write_Logic
  5297 ;; This function is called by:
  5298 ;;		_main
  5299 ;;		_vMenuOption
  5300 ;; This function uses a non-reentrant model
  5301 ;;
  5302                           
  5303                           	psect	text5
  5304   002782                     __ptext5:
  5305                           	callstack 0
  5306   002782                     _u8SpiTranmitRecieve:
  5307                           	callstack 25
  5308                           
  5309                           ;incstack = 0
  5310                           ;u8SpiTranmitRecieve@u8Data stored from wreg
  5311   002782  6E3B               	movwf	u8SpiTranmitRecieve@u8Data^0,c
  5312   002784                     
  5313                           ;menu.c: 115:     gpio_Pin_Write_Logic(&PIN_SelectChannel,GPIO_LOW);
  5314   002784  0E2B               	movlw	low _PIN_SelectChannel
  5315   002786  6E31               	movwf	gpio_Pin_Write_Logic@pin_config^0,c
  5316   002788  0E00               	movlw	high _PIN_SelectChannel
  5317   00278A  6E32               	movwf	(gpio_Pin_Write_Logic@pin_config+1)^0,c
  5318   00278C  0E00               	movlw	0
  5319   00278E  6E33               	movwf	gpio_Pin_Write_Logic@logic^0,c
  5320   002790  EC96  F00B         	call	_gpio_Pin_Write_Logic	;wreg free
  5321   002794                     
  5322                           ;menu.c: 116:     SSPBUF=u8Data;
  5323   002794  C03B  FFC9         	movff	u8SpiTranmitRecieve@u8Data,4041	;volatile
  5324   002798                     l1013:
  5325   002798  B69E               	btfsc	158,3,c	;volatile
  5326   00279A  EFD1  F013         	goto	u5061
  5327   00279E  EFD3  F013         	goto	u5060
  5328   0027A2                     u5061:
  5329   0027A2  EFDA  F013         	goto	l1017
  5330   0027A6                     u5060:
  5331   0027A6  A0C7               	btfss	199,0,c	;volatile
  5332   0027A8  EFD8  F013         	goto	u5071
  5333   0027AC  EFDA  F013         	goto	u5070
  5334   0027B0                     u5071:
  5335   0027B0  EFCC  F013         	goto	l1013
  5336   0027B4                     u5070:
  5337   0027B4                     l1017:
  5338                           
  5339                           ;menu.c: 118:     PIR1bits.SSPIF=0;
  5340   0027B4  969E               	bcf	158,3,c	;volatile
  5341                           
  5342                           ;menu.c: 119:     Loc_Data=SSPBUF;
  5343   0027B6  CFC9 F03C          	movff	4041,u8SpiTranmitRecieve@Loc_Data	;volatile
  5344   0027BA                     
  5345                           ;menu.c: 120:     gpio_Pin_Write_Logic(&PIN_SelectChannel,GPIO_HIGH);
  5346   0027BA  0E2B               	movlw	low _PIN_SelectChannel
  5347   0027BC  6E31               	movwf	gpio_Pin_Write_Logic@pin_config^0,c
  5348   0027BE  0E00               	movlw	high _PIN_SelectChannel
  5349   0027C0  6E32               	movwf	(gpio_Pin_Write_Logic@pin_config+1)^0,c
  5350   0027C2  0E01               	movlw	1
  5351   0027C4  6E33               	movwf	gpio_Pin_Write_Logic@logic^0,c
  5352   0027C6  EC96  F00B         	call	_gpio_Pin_Write_Logic	;wreg free
  5353   0027CA                     
  5354                           ;menu.c: 121:     return Loc_Data;
  5355   0027CA  503C               	movf	u8SpiTranmitRecieve@Loc_Data^0,w,c
  5356   0027CC  0012               	return		;funcret
  5357   0027CE                     __end_of_u8SpiTranmitRecieve:
  5358                           	callstack 0
  5359                           
  5360 ;; *************** function _u8GetPressedValue *****************
  5361 ;; Defined at:
  5362 ;;		line 101 in file "menu.c"
  5363 ;; Parameters:    Size  Location     Type
  5364 ;;  u8LoginMode     1    wreg     const unsigned char 
  5365 ;; Auto vars:     Size  Location     Type
  5366 ;;  u8LoginMode     1   22[COMRAM] const unsigned char 
  5367 ;;  u8LockeyPres    1   23[COMRAM] unsigned char 
  5368 ;; Return value:  Size  Location     Type
  5369 ;;                  1    wreg      unsigned char 
  5370 ;; Registers used:
  5371 ;;		wreg, fsr2l, fsr2h, status,2, status,0, tblptrl, tblptrh, tblptru, prodl, prodh, cstack
  5372 ;; Tracked objects:
  5373 ;;		On entry : 0/0
  5374 ;;		On exit  : 0/0
  5375 ;;		Unchanged: 0/0
  5376 ;; Data sizes:     COMRAM   BANK0   BANK1   BANK2   BANK3   BANK4   BANK5   BANK6   BANK7   BANK8   BANK9  BANK10  BANK1
      +1  BANK12  BANK13  BANK14  BANK15
  5377 ;;      Params:         0       0       0       0       0       0       0       0       0       0       0       0       
      +0       0       0       0       0
  5378 ;;      Locals:         2       0       0       0       0       0       0       0       0       0       0       0       
      +0       0       0       0       0
  5379 ;;      Temps:          0       0       0       0       0       0       0       0       0       0       0       0       
      +0       0       0       0       0
  5380 ;;      Totals:         2       0       0       0       0       0       0       0       0       0       0       0       
      +0       0       0       0       0
  5381 ;;Total ram usage:        2 bytes
  5382 ;; Hardware stack levels used: 1
  5383 ;; Hardware stack levels required when called: 5
  5384 ;; This function calls:
  5385 ;;		_keypad_get_value
  5386 ;; This function is called by:
  5387 ;;		_main
  5388 ;;		_vMenuOption
  5389 ;; This function uses a non-reentrant model
  5390 ;;
  5391                           
  5392                           	psect	text6
  5393   001EE8                     __ptext6:
  5394                           	callstack 0
  5395   001EE8                     _u8GetPressedValue:
  5396                           	callstack 24
  5397                           
  5398                           ;incstack = 0
  5399                           ;u8GetPressedValue@u8LoginMode stored from wreg
  5400   001EE8  6E45               	movwf	u8GetPressedValue@u8LoginMode^0,c
  5401   001EEA                     
  5402                           ;menu.c: 102:     uint8 u8LockeyPressed=0XFF;
  5403   001EEA  6846               	setf	u8GetPressedValue@u8LockeyPressed^0,c
  5404                           
  5405                           ;menu.c: 103:     while (u8LockeyPressed == 0XFF){
  5406   001EEC  EFAD  F00F         	goto	l5993
  5407   001EF0                     l5981:
  5408                           
  5409                           ;menu.c: 104:         if((SessionCounter >= (uint16)3000 && u8LoginMode==(uint8)1) || (S
      +                          essionCounter >= (uint16)2000 && u8LoginMode==(uint8)2)){
  5410   001EF0  0EB8               	movlw	184
  5411   001EF2  5C55               	subwf	_SessionCounter^0,w,c	;volatile
  5412   001EF4  0E0B               	movlw	11
  5413   001EF6  5856               	subwfb	(_SessionCounter+1)^0,w,c	;volatile
  5414   001EF8  A0D8               	btfss	status,0,c
  5415   001EFA  EF81  F00F         	goto	u5011
  5416   001EFE  EF83  F00F         	goto	u5010
  5417   001F02                     u5011:
  5418   001F02  EF8B  F00F         	goto	l5985
  5419   001F06                     u5010:
  5420   001F06  0445               	decf	u8GetPressedValue@u8LoginMode^0,w,c
  5421   001F08  B4D8               	btfsc	status,2,c
  5422   001F0A  EF89  F00F         	goto	u5021
  5423   001F0E  EF8B  F00F         	goto	u5020
  5424   001F12                     u5021:
  5425   001F12  EF9F  F00F         	goto	l5989
  5426   001F16                     u5020:
  5427   001F16                     l5985:
  5428   001F16  0ED0               	movlw	208
  5429   001F18  5C55               	subwf	_SessionCounter^0,w,c	;volatile
  5430   001F1A  0E07               	movlw	7
  5431   001F1C  5856               	subwfb	(_SessionCounter+1)^0,w,c	;volatile
  5432   001F1E  A0D8               	btfss	status,0,c
  5433   001F20  EF94  F00F         	goto	u5031
  5434   001F24  EF96  F00F         	goto	u5030
  5435   001F28                     u5031:
  5436   001F28  EFA3  F00F         	goto	l5991
  5437   001F2C                     u5030:
  5438   001F2C  0E02               	movlw	2
  5439   001F2E  1845               	xorwf	u8GetPressedValue@u8LoginMode^0,w,c
  5440   001F30  A4D8               	btfss	status,2,c
  5441   001F32  EF9D  F00F         	goto	u5041
  5442   001F36  EF9F  F00F         	goto	u5040
  5443   001F3A                     u5041:
  5444   001F3A  EFA3  F00F         	goto	l5991
  5445   001F3E                     u5040:
  5446   001F3E                     l5989:
  5447                           
  5448                           ;menu.c: 105:             FlagTimeOut=(uint8)1;
  5449   001F3E  0E01               	movlw	1
  5450   001F40  6E63               	movwf	_FlagTimeOut^0,c
  5451                           
  5452                           ;menu.c: 106:             break;
  5453   001F42  EFB5  F00F         	goto	l5995
  5454   001F46                     l5991:
  5455                           
  5456                           ;menu.c: 108:         keypad_get_value(&Keypad_Obj,&u8LockeyPressed);
  5457   001F46  0E12               	movlw	low _Keypad_Obj
  5458   001F48  6E3B               	movwf	keypad_get_value@_keypad_obj^0,c
  5459   001F4A  0E00               	movlw	high _Keypad_Obj
  5460   001F4C  6E3C               	movwf	(keypad_get_value@_keypad_obj+1)^0,c
  5461   001F4E  0E46               	movlw	low u8GetPressedValue@u8LockeyPressed
  5462   001F50  6E3D               	movwf	keypad_get_value@value^0,c
  5463   001F52  0E00               	movlw	high u8GetPressedValue@u8LockeyPressed
  5464   001F54  6E3E               	movwf	(keypad_get_value@value+1)^0,c
  5465   001F56  EC48  F00D         	call	_keypad_get_value	;wreg free
  5466   001F5A                     l5993:
  5467                           
  5468                           ;menu.c: 103:     while (u8LockeyPressed == 0XFF){
  5469   001F5A  2846               	incf	u8GetPressedValue@u8LockeyPressed^0,w,c
  5470   001F5C  B4D8               	btfsc	status,2,c
  5471   001F5E  EFB3  F00F         	goto	u5051
  5472   001F62  EFB5  F00F         	goto	u5050
  5473   001F66                     u5051:
  5474   001F66  EF78  F00F         	goto	l5981
  5475   001F6A                     u5050:
  5476   001F6A                     l5995:
  5477                           
  5478                           ;menu.c: 110:     return u8LockeyPressed;
  5479   001F6A  5046               	movf	u8GetPressedValue@u8LockeyPressed^0,w,c
  5480   001F6C  0012               	return		;funcret
  5481   001F6E                     __end_of_u8GetPressedValue:
  5482                           	callstack 0
  5483                           
  5484 ;; *************** function _keypad_get_value *****************
  5485 ;; Defined at:
  5486 ;;		line 50 in file "ECU_LAYER/key_pad/ecu_keypad.c"
  5487 ;; Parameters:    Size  Location     Type
  5488 ;;  _keypad_obj     2   12[COMRAM] PTR const struct .
  5489 ;;		 -> Keypad_Obj(8), 
  5490 ;;  value           2   14[COMRAM] PTR unsigned char 
  5491 ;;		 -> u8GetPressedValue@u8LockeyPressed(1), main@u8KeyPadPressed(1), 
  5492 ;; Auto vars:     Size  Location     Type
  5493 ;;  counter_colu    1   21[COMRAM] unsigned char 
  5494 ;;  counter_rows    1   20[COMRAM] unsigned char 
  5495 ;;  l_counter       1   19[COMRAM] unsigned char 
  5496 ;;  column_logic    1   18[COMRAM] unsigned char 
  5497 ;;  ret             1    0        unsigned char 
  5498 ;; Return value:  Size  Location     Type
  5499 ;;                  1    wreg      unsigned char 
  5500 ;; Registers used:
  5501 ;;		wreg, fsr2l, fsr2h, status,2, status,0, tblptrl, tblptrh, tblptru, prodl, prodh, cstack
  5502 ;; Tracked objects:
  5503 ;;		On entry : 0/0
  5504 ;;		On exit  : 0/0
  5505 ;;		Unchanged: 0/0
  5506 ;; Data sizes:     COMRAM   BANK0   BANK1   BANK2   BANK3   BANK4   BANK5   BANK6   BANK7   BANK8   BANK9  BANK10  BANK1
      +1  BANK12  BANK13  BANK14  BANK15
  5507 ;;      Params:         4       0       0       0       0       0       0       0       0       0       0       0       
      +0       0       0       0       0
  5508 ;;      Locals:         4       0       0       0       0       0       0       0       0       0       0       0       
      +0       0       0       0       0
  5509 ;;      Temps:          2       0       0       0       0       0       0       0       0       0       0       0       
      +0       0       0       0       0
  5510 ;;      Totals:        10       0       0       0       0       0       0       0       0       0       0       0       
      +0       0       0       0       0
  5511 ;;Total ram usage:       10 bytes
  5512 ;; Hardware stack levels used: 1
  5513 ;; Hardware stack levels required when called: 4
  5514 ;; This function calls:
  5515 ;;		_gpio_Pin_Read_Logic
  5516 ;;		_gpio_Pin_Write_Logic
  5517 ;; This function is called by:
  5518 ;;		_main
  5519 ;;		_u8GetPressedValue
  5520 ;; This function uses a non-reentrant model
  5521 ;;
  5522                           
  5523                           	psect	text7
  5524   001A90                     __ptext7:
  5525                           	callstack 0
  5526   001A90                     _keypad_get_value:
  5527                           	callstack 24
  5528   001A90                     
  5529                           ;ECU_LAYER/key_pad/ecu_keypad.c: 52:         uint8 counter_rows=0,counter_colums=0;
  5530   001A90  0E00               	movlw	0
  5531   001A92  6E43               	movwf	keypad_get_value@counter_rows^0,c
  5532   001A94  0E00               	movlw	0
  5533   001A96  6E44               	movwf	keypad_get_value@counter_colums^0,c
  5534                           
  5535                           ;ECU_LAYER/key_pad/ecu_keypad.c: 53:         uint8 l_counter=0;
  5536   001A98  0E00               	movlw	0
  5537   001A9A  6E42               	movwf	keypad_get_value@l_counter^0,c
  5538                           
  5539                           ;ECU_LAYER/key_pad/ecu_keypad.c: 54:         uint8 column_logic_pin=0;
  5540   001A9C  0E00               	movlw	0
  5541   001A9E  6E41               	movwf	keypad_get_value@column_logic_pin^0,c
  5542   001AA0                     
  5543                           ;ECU_LAYER/key_pad/ecu_keypad.c: 55:         if ((((void*)0)==_keypad_obj) || (((void*)0
      +                          )==value)){
  5544   001AA0  503B               	movf	keypad_get_value@_keypad_obj^0,w,c
  5545   001AA2  103C               	iorwf	(keypad_get_value@_keypad_obj+1)^0,w,c
  5546   001AA4  B4D8               	btfsc	status,2,c
  5547   001AA6  EF57  F00D         	goto	u4601
  5548   001AAA  EF59  F00D         	goto	u4600
  5549   001AAE                     u4601:
  5550   001AAE  EF62  F00D         	goto	l5671
  5551   001AB2                     u4600:
  5552   001AB2  503D               	movf	keypad_get_value@value^0,w,c
  5553   001AB4  103E               	iorwf	(keypad_get_value@value+1)^0,w,c
  5554   001AB6  A4D8               	btfss	status,2,c
  5555   001AB8  EF60  F00D         	goto	u4611
  5556   001ABC  EF62  F00D         	goto	u4610
  5557   001AC0                     u4611:
  5558   001AC0  EF64  F00D         	goto	l5673
  5559   001AC4                     u4610:
  5560   001AC4                     l5671:
  5561                           
  5562                           ;ECU_LAYER/key_pad/ecu_keypad.c: 57:         }
  5563   001AC4  EFCB  F00D         	goto	l210
  5564   001AC8                     l5673:
  5565                           
  5566                           ;ECU_LAYER/key_pad/ecu_keypad.c: 59:             for (counter_rows=0;counter_rows<4;coun
      +                          ter_rows++){
  5567   001AC8  0E00               	movlw	0
  5568   001ACA  6E43               	movwf	keypad_get_value@counter_rows^0,c
  5569   001ACC                     l5679:
  5570                           
  5571                           ;ECU_LAYER/key_pad/ecu_keypad.c: 61:                 for (l_counter=0;l_counter<4;l_coun
      +                          ter++){
  5572   001ACC  0E00               	movlw	0
  5573   001ACE  6E42               	movwf	keypad_get_value@l_counter^0,c
  5574   001AD0                     l5685:
  5575   001AD0  5042               	movf	keypad_get_value@l_counter^0,w,c
  5576   001AD2  243B               	addwf	keypad_get_value@_keypad_obj^0,w,c
  5577   001AD4  6E31               	movwf	gpio_Pin_Write_Logic@pin_config^0,c
  5578   001AD6  0E00               	movlw	0
  5579   001AD8  203C               	addwfc	(keypad_get_value@_keypad_obj+1)^0,w,c
  5580   001ADA  6E32               	movwf	(gpio_Pin_Write_Logic@pin_config+1)^0,c
  5581   001ADC  0E00               	movlw	0
  5582   001ADE  6E33               	movwf	gpio_Pin_Write_Logic@logic^0,c
  5583   001AE0  EC96  F00B         	call	_gpio_Pin_Write_Logic	;wreg free
  5584   001AE4                     
  5585                           ;ECU_LAYER/key_pad/ecu_keypad.c: 63:                 }
  5586   001AE4  2A42               	incf	keypad_get_value@l_counter^0,f,c
  5587   001AE6  0E03               	movlw	3
  5588   001AE8  6442               	cpfsgt	keypad_get_value@l_counter^0,c
  5589   001AEA  EF79  F00D         	goto	u4621
  5590   001AEE  EF7B  F00D         	goto	u4620
  5591   001AF2                     u4621:
  5592   001AF2  EF68  F00D         	goto	l5685
  5593   001AF6                     u4620:
  5594   001AF6  5043               	movf	keypad_get_value@counter_rows^0,w,c
  5595   001AF8  243B               	addwf	keypad_get_value@_keypad_obj^0,w,c
  5596   001AFA  6E31               	movwf	gpio_Pin_Write_Logic@pin_config^0,c
  5597   001AFC  0E00               	movlw	0
  5598   001AFE  203C               	addwfc	(keypad_get_value@_keypad_obj+1)^0,w,c
  5599   001B00  6E32               	movwf	(gpio_Pin_Write_Logic@pin_config+1)^0,c
  5600   001B02  0E01               	movlw	1
  5601   001B04  6E33               	movwf	gpio_Pin_Write_Logic@logic^0,c
  5602   001B06  EC96  F00B         	call	_gpio_Pin_Write_Logic	;wreg free
  5603   001B0A                     
  5604                           ;ECU_LAYER/key_pad/ecu_keypad.c: 66:             for (counter_colums=0;counter_colums<4;
      +                          counter_colums++){
  5605   001B0A  0E00               	movlw	0
  5606   001B0C  6E44               	movwf	keypad_get_value@counter_colums^0,c
  5607   001B0E                     l5699:
  5608   001B0E  5044               	movf	keypad_get_value@counter_colums^0,w,c
  5609   001B10  243B               	addwf	keypad_get_value@_keypad_obj^0,w,c
  5610   001B12  6E3F               	movwf	??_keypad_get_value^0,c
  5611   001B14  0E00               	movlw	0
  5612   001B16  203C               	addwfc	(keypad_get_value@_keypad_obj+1)^0,w,c
  5613   001B18  6E40               	movwf	(??_keypad_get_value+1)^0,c
  5614   001B1A  0E04               	movlw	4
  5615   001B1C  243F               	addwf	??_keypad_get_value^0,w,c
  5616   001B1E  6E31               	movwf	gpio_Pin_Read_Logic@pin_config^0,c
  5617   001B20  0E00               	movlw	0
  5618   001B22  2040               	addwfc	(??_keypad_get_value+1)^0,w,c
  5619   001B24  6E32               	movwf	(gpio_Pin_Read_Logic@pin_config+1)^0,c
  5620   001B26  0E41               	movlw	low keypad_get_value@column_logic_pin
  5621   001B28  6E33               	movwf	gpio_Pin_Read_Logic@logic^0,c
  5622   001B2A  0E00               	movlw	high keypad_get_value@column_logic_pin
  5623   001B2C  6E34               	movwf	(gpio_Pin_Read_Logic@logic+1)^0,c
  5624   001B2E  EC2B  F00E         	call	_gpio_Pin_Read_Logic	;wreg free
  5625   001B32                     
  5626                           ;ECU_LAYER/key_pad/ecu_keypad.c: 68:                 if (column_logic_pin==GPIO_HIGH){
  5627   001B32  0441               	decf	keypad_get_value@column_logic_pin^0,w,c
  5628   001B34  A4D8               	btfss	status,2,c
  5629   001B36  EF9F  F00D         	goto	u4631
  5630   001B3A  EFA1  F00D         	goto	u4630
  5631   001B3E                     u4631:
  5632   001B3E  EFB9  F00D         	goto	l5705
  5633   001B42                     u4630:
  5634   001B42                     
  5635                           ;ECU_LAYER/key_pad/ecu_keypad.c: 69:                     *value=btn_keypad_values[counte
      +                          r_rows][counter_colums];
  5636   001B42  5043               	movf	keypad_get_value@counter_rows^0,w,c
  5637   001B44  0D04               	mullw	4
  5638   001B46  0E05               	movlw	low _btn_keypad_values
  5639   001B48  24F3               	addwf	243,w,c
  5640   001B4A  6E3F               	movwf	??_keypad_get_value^0,c
  5641   001B4C  0EFE               	movlw	high _btn_keypad_values
  5642   001B4E  20F4               	addwfc	prodh,w,c
  5643   001B50  6E40               	movwf	(??_keypad_get_value+1)^0,c
  5644   001B52  5044               	movf	keypad_get_value@counter_colums^0,w,c
  5645   001B54  263F               	addwf	??_keypad_get_value^0,f,c
  5646   001B56  0E00               	movlw	0
  5647   001B58  2240               	addwfc	(??_keypad_get_value+1)^0,f,c
  5648   001B5A  C03F  FFF6         	movff	??_keypad_get_value,tblptrl
  5649   001B5E  C040  FFF7         	movff	??_keypad_get_value+1,tblptrh
  5650   001B62                     	if	1	;Program memory is < 0x10000, tblptru is always zero
  5651   001B62  6AF8               	clrf	tblptru,c
  5652   001B64                     	endif
  5653   001B64                     	if	0	;tblptru may be non-zero
  5654   001B64                     	endif
  5655   001B64  C03D  FFD9         	movff	keypad_get_value@value,fsr2l
  5656   001B68  C03E  FFDA         	movff	keypad_get_value@value+1,fsr2h
  5657   001B6C  0008               	tblrd		*
  5658   001B6E  CFF5 FFDF          	movff	tablat,indf2
  5659   001B72                     l5705:
  5660                           
  5661                           ;ECU_LAYER/key_pad/ecu_keypad.c: 71:             }
  5662   001B72  2A44               	incf	keypad_get_value@counter_colums^0,f,c
  5663   001B74  0E03               	movlw	3
  5664   001B76  6444               	cpfsgt	keypad_get_value@counter_colums^0,c
  5665   001B78  EFC0  F00D         	goto	u4641
  5666   001B7C  EFC2  F00D         	goto	u4640
  5667   001B80                     u4641:
  5668   001B80  EF87  F00D         	goto	l5699
  5669   001B84                     u4640:
  5670   001B84                     
  5671                           ;ECU_LAYER/key_pad/ecu_keypad.c: 73:             }
  5672   001B84  2A43               	incf	keypad_get_value@counter_rows^0,f,c
  5673   001B86  0E03               	movlw	3
  5674   001B88  6443               	cpfsgt	keypad_get_value@counter_rows^0,c
  5675   001B8A  EFC9  F00D         	goto	u4651
  5676   001B8E  EFCB  F00D         	goto	u4650
  5677   001B92                     u4651:
  5678   001B92  EF66  F00D         	goto	l5679
  5679   001B96                     u4650:
  5680   001B96                     l210:
  5681   001B96  0012               	return		;funcret
  5682   001B98                     __end_of_keypad_get_value:
  5683                           	callstack 0
  5684                           
  5685 ;; *************** function _gpio_Pin_Read_Logic *****************
  5686 ;; Defined at:
  5687 ;;		line 101 in file "MCAL_LAYER/GPIO/hal_gpio.c"
  5688 ;; Parameters:    Size  Location     Type
  5689 ;;  pin_config      2    2[COMRAM] PTR const struct .
  5690 ;;		 -> Keypad_Obj.pin_keypad_colums(4), Keypad_Obj(8), 
  5691 ;;  logic           2    4[COMRAM] PTR enum E2965
  5692 ;;		 -> keypad_get_value@column_logic_pin(1), 
  5693 ;; Auto vars:     Size  Location     Type
  5694 ;;  ret             1   11[COMRAM] unsigned char 
  5695 ;; Return value:  Size  Location     Type
  5696 ;;                  1    wreg      unsigned char 
  5697 ;; Registers used:
  5698 ;;		wreg, fsr2l, fsr2h, status,2, status,0, prodl, prodh
  5699 ;; Tracked objects:
  5700 ;;		On entry : 0/0
  5701 ;;		On exit  : 0/0
  5702 ;;		Unchanged: 0/0
  5703 ;; Data sizes:     COMRAM   BANK0   BANK1   BANK2   BANK3   BANK4   BANK5   BANK6   BANK7   BANK8   BANK9  BANK10  BANK1
      +1  BANK12  BANK13  BANK14  BANK15
  5704 ;;      Params:         4       0       0       0       0       0       0       0       0       0       0       0       
      +0       0       0       0       0
  5705 ;;      Locals:         1       0       0       0       0       0       0       0       0       0       0       0       
      +0       0       0       0       0
  5706 ;;      Temps:          5       0       0       0       0       0       0       0       0       0       0       0       
      +0       0       0       0       0
  5707 ;;      Totals:        10       0       0       0       0       0       0       0       0       0       0       0       
      +0       0       0       0       0
  5708 ;;Total ram usage:       10 bytes
  5709 ;; Hardware stack levels used: 1
  5710 ;; Hardware stack levels required when called: 3
  5711 ;; This function calls:
  5712 ;;		Nothing
  5713 ;; This function is called by:
  5714 ;;		_keypad_get_value
  5715 ;; This function uses a non-reentrant model
  5716 ;;
  5717                           
  5718                           	psect	text8
  5719   001C56                     __ptext8:
  5720                           	callstack 0
  5721   001C56                     _gpio_Pin_Read_Logic:
  5722                           	callstack 24
  5723   001C56                     
  5724                           ;MCAL_LAYER/GPIO/hal_gpio.c: 102:     Std_ReturnType ret=(Std_ReturnType)0x01;
  5725   001C56  0E01               	movlw	1
  5726   001C58  6E3A               	movwf	gpio_Pin_Read_Logic@ret^0,c
  5727   001C5A                     
  5728                           ;MCAL_LAYER/GPIO/hal_gpio.c: 103:     if (((void*)0)==pin_config || ((void*)0)==logic ||
      +                           pin_config->pin > 8 -1){
  5729   001C5A  5031               	movf	gpio_Pin_Read_Logic@pin_config^0,w,c
  5730   001C5C  1032               	iorwf	(gpio_Pin_Read_Logic@pin_config+1)^0,w,c
  5731   001C5E  B4D8               	btfsc	status,2,c
  5732   001C60  EF34  F00E         	goto	u4441
  5733   001C64  EF36  F00E         	goto	u4440
  5734   001C68                     u4441:
  5735   001C68  EF50  F00E         	goto	l5585
  5736   001C6C                     u4440:
  5737   001C6C  5033               	movf	gpio_Pin_Read_Logic@logic^0,w,c
  5738   001C6E  1034               	iorwf	(gpio_Pin_Read_Logic@logic+1)^0,w,c
  5739   001C70  B4D8               	btfsc	status,2,c
  5740   001C72  EF3D  F00E         	goto	u4451
  5741   001C76  EF3F  F00E         	goto	u4450
  5742   001C7A                     u4451:
  5743   001C7A  EF50  F00E         	goto	l5585
  5744   001C7E                     u4450:
  5745   001C7E  C031  FFD9         	movff	gpio_Pin_Read_Logic@pin_config,fsr2l
  5746   001C82  C032  FFDA         	movff	gpio_Pin_Read_Logic@pin_config+1,fsr2h
  5747   001C86  30DF               	rrcf	223,w,c
  5748   001C88  32E8               	rrcf	wreg,f,c
  5749   001C8A  32E8               	rrcf	wreg,f,c
  5750   001C8C  0B07               	andlw	7
  5751   001C8E  6E35               	movwf	??_gpio_Pin_Read_Logic^0,c
  5752   001C90  0E07               	movlw	7
  5753   001C92  6435               	cpfsgt	??_gpio_Pin_Read_Logic^0,c
  5754   001C94  EF4E  F00E         	goto	u4461
  5755   001C98  EF50  F00E         	goto	u4460
  5756   001C9C                     u4461:
  5757   001C9C  EF54  F00E         	goto	l5587
  5758   001CA0                     u4460:
  5759   001CA0                     l5585:
  5760                           
  5761                           ;MCAL_LAYER/GPIO/hal_gpio.c: 104:         ret=(Std_ReturnType)0x00;
  5762   001CA0  0E00               	movlw	0
  5763   001CA2  6E3A               	movwf	gpio_Pin_Read_Logic@ret^0,c
  5764                           
  5765                           ;MCAL_LAYER/GPIO/hal_gpio.c: 105:     }
  5766   001CA4  EF85  F00E         	goto	l5589
  5767   001CA8                     l5587:
  5768                           
  5769                           ;MCAL_LAYER/GPIO/hal_gpio.c: 107:         *logic=((*port_registers[pin_config->port] >> 
      +                          pin_config->pin) & (uint8)1);
  5770   001CA8  C031  FFD9         	movff	gpio_Pin_Read_Logic@pin_config,fsr2l
  5771   001CAC  C032  FFDA         	movff	gpio_Pin_Read_Logic@pin_config+1,fsr2h
  5772   001CB0  30DF               	rrcf	223,w,c
  5773   001CB2  32E8               	rrcf	wreg,f,c
  5774   001CB4  32E8               	rrcf	wreg,f,c
  5775   001CB6  0B07               	andlw	7
  5776   001CB8  6E35               	movwf	??_gpio_Pin_Read_Logic^0,c
  5777   001CBA  C031  FFD9         	movff	gpio_Pin_Read_Logic@pin_config,fsr2l
  5778   001CBE  C032  FFDA         	movff	gpio_Pin_Read_Logic@pin_config+1,fsr2h
  5779   001CC2  50DF               	movf	223,w,c
  5780   001CC4  0B07               	andlw	7
  5781   001CC6  6E36               	movwf	(??_gpio_Pin_Read_Logic+1)^0,c
  5782   001CC8  5036               	movf	(??_gpio_Pin_Read_Logic+1)^0,w,c
  5783   001CCA  0D02               	mullw	2
  5784   001CCC  0E80               	movlw	low _port_registers
  5785   001CCE  24F3               	addwf	243,w,c
  5786   001CD0  6ED9               	movwf	fsr2l,c
  5787   001CD2  0E00               	movlw	high _port_registers
  5788   001CD4  20F4               	addwfc	prodh,w,c
  5789   001CD6  6EDA               	movwf	fsr2h,c
  5790   001CD8  CFDE F037          	movff	postinc2,??_gpio_Pin_Read_Logic+2
  5791   001CDC  CFDD F038          	movff	postdec2,??_gpio_Pin_Read_Logic+3
  5792   001CE0  C037  FFD9         	movff	??_gpio_Pin_Read_Logic+2,fsr2l
  5793   001CE4  C038  FFDA         	movff	??_gpio_Pin_Read_Logic+3,fsr2h
  5794   001CE8  50DF               	movf	indf2,w,c
  5795   001CEA  6E39               	movwf	(??_gpio_Pin_Read_Logic+4)^0,c
  5796   001CEC  2A35               	incf	??_gpio_Pin_Read_Logic^0,f,c
  5797   001CEE  EF7B  F00E         	goto	u4474
  5798   001CF2                     u4475:
  5799   001CF2  90D8               	bcf	status,0,c
  5800   001CF4  3239               	rrcf	(??_gpio_Pin_Read_Logic+4)^0,f,c
  5801   001CF6                     u4474:
  5802   001CF6  2E35               	decfsz	??_gpio_Pin_Read_Logic^0,f,c
  5803   001CF8  EF79  F00E         	goto	u4475
  5804   001CFC  5039               	movf	(??_gpio_Pin_Read_Logic+4)^0,w,c
  5805   001CFE  0B01               	andlw	1
  5806   001D00  C033  FFD9         	movff	gpio_Pin_Read_Logic@logic,fsr2l
  5807   001D04  C034  FFDA         	movff	gpio_Pin_Read_Logic@logic+1,fsr2h
  5808   001D08  6EDF               	movwf	indf2,c
  5809   001D0A                     l5589:
  5810                           
  5811                           ;MCAL_LAYER/GPIO/hal_gpio.c: 109:     return ret;
  5812   001D0A  503A               	movf	gpio_Pin_Read_Logic@ret^0,w,c
  5813   001D0C  0012               	return		;funcret
  5814   001D0E                     __end_of_gpio_Pin_Read_Logic:
  5815                           	callstack 0
  5816                           
  5817 ;; *************** function _set_cursor_4bit_mode *****************
  5818 ;; Defined at:
  5819 ;;		line 426 in file "ECU_LAYER/char_lcd/ecu_char_lcd.c"
  5820 ;; Parameters:    Size  Location     Type
  5821 ;;  _lcd            2   20[COMRAM] PTR const struct .
  5822 ;;		 -> Lcd_Obj(6), 
  5823 ;;  row             1   22[COMRAM] unsigned char 
  5824 ;;  column          1   23[COMRAM] unsigned char 
  5825 ;; Auto vars:     Size  Location     Type
  5826 ;;  ret             1   26[COMRAM] unsigned char 
  5827 ;; Return value:  Size  Location     Type
  5828 ;;                  1    wreg      unsigned char 
  5829 ;; Registers used:
  5830 ;;		wreg, fsr2l, fsr2h, status,2, status,0, prodl, prodh, cstack
  5831 ;; Tracked objects:
  5832 ;;		On entry : 0/0
  5833 ;;		On exit  : 0/0
  5834 ;;		Unchanged: 0/0
  5835 ;; Data sizes:     COMRAM   BANK0   BANK1   BANK2   BANK3   BANK4   BANK5   BANK6   BANK7   BANK8   BANK9  BANK10  BANK1
      +1  BANK12  BANK13  BANK14  BANK15
  5836 ;;      Params:         4       0       0       0       0       0       0       0       0       0       0       0       
      +0       0       0       0       0
  5837 ;;      Locals:         1       0       0       0       0       0       0       0       0       0       0       0       
      +0       0       0       0       0
  5838 ;;      Temps:          2       0       0       0       0       0       0       0       0       0       0       0       
      +0       0       0       0       0
  5839 ;;      Totals:         7       0       0       0       0       0       0       0       0       0       0       0       
      +0       0       0       0       0
  5840 ;;Total ram usage:        7 bytes
  5841 ;; Hardware stack levels used: 1
  5842 ;; Hardware stack levels required when called: 6
  5843 ;; This function calls:
  5844 ;;		_lcd_4bit_send_command
  5845 ;; This function is called by:
  5846 ;;		_main
  5847 ;;		_vMenuOption
  5848 ;;		_lcd_4bit_send_char_data_pos
  5849 ;;		_lcd_4bit_send_string_data_pos
  5850 ;; This function uses a non-reentrant model
  5851 ;;
  5852                           
  5853                           	psect	text9
  5854   001B98                     __ptext9:
  5855                           	callstack 0
  5856   001B98                     _set_cursor_4bit_mode:
  5857                           	callstack 23
  5858   001B98                     
  5859                           ;ECU_LAYER/char_lcd/ecu_char_lcd.c: 427:     Std_ReturnType ret=(Std_ReturnType)0x01;
  5860   001B98  0E01               	movlw	1
  5861   001B9A  6E49               	movwf	set_cursor_4bit_mode@ret^0,c
  5862   001B9C                     
  5863                           ;ECU_LAYER/char_lcd/ecu_char_lcd.c: 428:     column--;
  5864   001B9C  0646               	decf	set_cursor_4bit_mode@column^0,f,c
  5865   001B9E                     
  5866                           ;ECU_LAYER/char_lcd/ecu_char_lcd.c: 429:         if (((void*)0)==_lcd){
  5867   001B9E  5043               	movf	set_cursor_4bit_mode@_lcd^0,w,c
  5868   001BA0  1044               	iorwf	(set_cursor_4bit_mode@_lcd+1)^0,w,c
  5869   001BA2  A4D8               	btfss	status,2,c
  5870   001BA4  EFD6  F00D         	goto	u4681
  5871   001BA8  EFD8  F00D         	goto	u4680
  5872   001BAC                     u4681:
  5873   001BAC  EF0C  F00E         	goto	l5769
  5874   001BB0                     u4680:
  5875   001BB0                     
  5876                           ;ECU_LAYER/char_lcd/ecu_char_lcd.c: 430:             ret=(Std_ReturnType)0x00;
  5877   001BB0  0E00               	movlw	0
  5878   001BB2  6E49               	movwf	set_cursor_4bit_mode@ret^0,c
  5879                           
  5880                           ;ECU_LAYER/char_lcd/ecu_char_lcd.c: 431:         }
  5881   001BB4  EF29  F00E         	goto	l5771
  5882   001BB8                     l5761:
  5883   001BB8  C043  F03F         	movff	set_cursor_4bit_mode@_lcd,lcd_4bit_send_command@_lcd
  5884   001BBC  C044  F040         	movff	set_cursor_4bit_mode@_lcd+1,lcd_4bit_send_command@_lcd+1
  5885   001BC0  5046               	movf	set_cursor_4bit_mode@column^0,w,c
  5886   001BC2  0F80               	addlw	128
  5887   001BC4  6E41               	movwf	lcd_4bit_send_command@command^0,c
  5888   001BC6  EC94  F011         	call	_lcd_4bit_send_command	;wreg free
  5889   001BCA  6E49               	movwf	set_cursor_4bit_mode@ret^0,c
  5890   001BCC  EF29  F00E         	goto	l5771
  5891   001BD0                     l5763:
  5892   001BD0  C043  F03F         	movff	set_cursor_4bit_mode@_lcd,lcd_4bit_send_command@_lcd
  5893   001BD4  C044  F040         	movff	set_cursor_4bit_mode@_lcd+1,lcd_4bit_send_command@_lcd+1
  5894   001BD8  5046               	movf	set_cursor_4bit_mode@column^0,w,c
  5895   001BDA  0FC0               	addlw	192
  5896   001BDC  6E41               	movwf	lcd_4bit_send_command@command^0,c
  5897   001BDE  EC94  F011         	call	_lcd_4bit_send_command	;wreg free
  5898   001BE2  6E49               	movwf	set_cursor_4bit_mode@ret^0,c
  5899   001BE4  EF29  F00E         	goto	l5771
  5900   001BE8                     l5765:
  5901   001BE8  C043  F03F         	movff	set_cursor_4bit_mode@_lcd,lcd_4bit_send_command@_lcd
  5902   001BEC  C044  F040         	movff	set_cursor_4bit_mode@_lcd+1,lcd_4bit_send_command@_lcd+1
  5903   001BF0  5046               	movf	set_cursor_4bit_mode@column^0,w,c
  5904   001BF2  0F94               	addlw	148
  5905   001BF4  6E41               	movwf	lcd_4bit_send_command@command^0,c
  5906   001BF6  EC94  F011         	call	_lcd_4bit_send_command	;wreg free
  5907   001BFA  6E49               	movwf	set_cursor_4bit_mode@ret^0,c
  5908   001BFC  EF29  F00E         	goto	l5771
  5909   001C00                     l5767:
  5910   001C00  C043  F03F         	movff	set_cursor_4bit_mode@_lcd,lcd_4bit_send_command@_lcd
  5911   001C04  C044  F040         	movff	set_cursor_4bit_mode@_lcd+1,lcd_4bit_send_command@_lcd+1
  5912   001C08  5046               	movf	set_cursor_4bit_mode@column^0,w,c
  5913   001C0A  0FD4               	addlw	212
  5914   001C0C  6E41               	movwf	lcd_4bit_send_command@command^0,c
  5915   001C0E  EC94  F011         	call	_lcd_4bit_send_command	;wreg free
  5916   001C12  6E49               	movwf	set_cursor_4bit_mode@ret^0,c
  5917   001C14  EF29  F00E         	goto	l5771
  5918   001C18                     l5769:
  5919   001C18  5045               	movf	set_cursor_4bit_mode@row^0,w,c
  5920   001C1A  6E47               	movwf	??_set_cursor_4bit_mode^0,c
  5921   001C1C  6A48               	clrf	(??_set_cursor_4bit_mode+1)^0,c
  5922                           
  5923                           ; Switch on 2 bytes has been partitioned into a top level switch of size 1, and 1 sub-sw
      +                          itches
  5924                           ; Switch size 1, requested type "simple"
  5925                           ; Number of cases is 1, Range of values is 0 to 0
  5926                           ; switch strategies available:
  5927                           ; Name         Instructions Cycles
  5928                           ; simple_byte            4     3 (average)
  5929                           ;	Chosen strategy is simple_byte
  5930   001C1E  5048               	movf	(??_set_cursor_4bit_mode+1)^0,w,c
  5931   001C20  0A00               	xorlw	0	; case 0
  5932   001C22  B4D8               	btfsc	status,2,c
  5933   001C24  EF16  F00E         	goto	l7297
  5934   001C28  EF29  F00E         	goto	l5771
  5935   001C2C                     l7297:
  5936                           
  5937                           ; Switch size 1, requested type "simple"
  5938                           ; Number of cases is 4, Range of values is 1 to 4
  5939                           ; switch strategies available:
  5940                           ; Name         Instructions Cycles
  5941                           ; simple_byte           13     7 (average)
  5942                           ;	Chosen strategy is simple_byte
  5943   001C2C  5047               	movf	??_set_cursor_4bit_mode^0,w,c
  5944   001C2E  0A01               	xorlw	1	; case 1
  5945   001C30  B4D8               	btfsc	status,2,c
  5946   001C32  EFDC  F00D         	goto	l5761
  5947   001C36  0A03               	xorlw	3	; case 2
  5948   001C38  B4D8               	btfsc	status,2,c
  5949   001C3A  EFE8  F00D         	goto	l5763
  5950   001C3E  0A01               	xorlw	1	; case 3
  5951   001C40  B4D8               	btfsc	status,2,c
  5952   001C42  EFF4  F00D         	goto	l5765
  5953   001C46  0A07               	xorlw	7	; case 4
  5954   001C48  B4D8               	btfsc	status,2,c
  5955   001C4A  EF00  F00E         	goto	l5767
  5956   001C4E  EF29  F00E         	goto	l5771
  5957   001C52                     l5771:
  5958                           
  5959                           ;ECU_LAYER/char_lcd/ecu_char_lcd.c: 442:         return ret;
  5960   001C52  5049               	movf	set_cursor_4bit_mode@ret^0,w,c
  5961   001C54  0012               	return		;funcret
  5962   001C56                     __end_of_set_cursor_4bit_mode:
  5963                           	callstack 0
  5964                           
  5965 ;; *************** function _lcd_4bit_send_string_data *****************
  5966 ;; Defined at:
  5967 ;;		line 147 in file "ECU_LAYER/char_lcd/ecu_char_lcd.c"
  5968 ;; Parameters:    Size  Location     Type
  5969 ;;  _lcd            2   20[COMRAM] PTR const struct .
  5970 ;;		 -> Lcd_Obj(6), 
  5971 ;;  str             2   22[COMRAM] PTR unsigned char 
  5972 ;;		 -> STR_55(12), STR_54(17), STR_53(4), STR_52(3), 
  5973 ;;		 -> STR_51(13), STR_50(6), STR_49(9), STR_48(9), 
  5974 ;;		 -> STR_47(9), STR_46(9), STR_45(17), STR_44(12), 
  5975 ;;		 -> STR_43(12), STR_42(13), STR_41(12), STR_40(16), 
  5976 ;;		 -> STR_39(18), STR_38(12), STR_37(16), STR_36(13), 
  5977 ;;		 -> STR_35(12), STR_34(16), STR_33(15), STR_32(16), 
  5978 ;;		 -> STR_31(11), STR_30(11), STR_29(11), STR_28(13), 
  5979 ;;		 -> STR_27(12), STR_26(11), STR_25(11), STR_24(11), 
  5980 ;;		 -> STR_23(11), STR_22(13), STR_21(12), STR_20(11), 
  5981 ;;		 -> STR_19(12), STR_18(17), STR_17(14), STR_16(16), 
  5982 ;;		 -> STR_15(14), STR_14(16), STR_13(11), STR_12(12), 
  5983 ;;		 -> STR_11(16), STR_10(11), STR_9(12), STR_8(16), 
  5984 ;;		 -> STR_7(11), STR_6(14), STR_5(12), STR_4(17), 
  5985 ;; Auto vars:     Size  Location     Type
  5986 ;;  ret             1    0        unsigned char 
  5987 ;; Return value:  Size  Location     Type
  5988 ;;                  1    wreg      unsigned char 
  5989 ;; Registers used:
  5990 ;;		wreg, fsr2l, fsr2h, status,2, status,0, tblptrl, tblptrh, tblptru, prodl, prodh, cstack
  5991 ;; Tracked objects:
  5992 ;;		On entry : 0/0
  5993 ;;		On exit  : 0/0
  5994 ;;		Unchanged: 0/0
  5995 ;; Data sizes:     COMRAM   BANK0   BANK1   BANK2   BANK3   BANK4   BANK5   BANK6   BANK7   BANK8   BANK9  BANK10  BANK1
      +1  BANK12  BANK13  BANK14  BANK15
  5996 ;;      Params:         4       0       0       0       0       0       0       0       0       0       0       0       
      +0       0       0       0       0
  5997 ;;      Locals:         0       0       0       0       0       0       0       0       0       0       0       0       
      +0       0       0       0       0
  5998 ;;      Temps:          0       0       0       0       0       0       0       0       0       0       0       0       
      +0       0       0       0       0
  5999 ;;      Totals:         4       0       0       0       0       0       0       0       0       0       0       0       
      +0       0       0       0       0
  6000 ;;Total ram usage:        4 bytes
  6001 ;; Hardware stack levels used: 1
  6002 ;; Hardware stack levels required when called: 6
  6003 ;; This function calls:
  6004 ;;		_lcd_4bit_send_char_data
  6005 ;; This function is called by:
  6006 ;;		_main
  6007 ;;		_vMenuOption
  6008 ;; This function uses a non-reentrant model
  6009 ;;
  6010                           
  6011                           	psect	text10
  6012   0025E0                     __ptext10:
  6013                           	callstack 0
  6014   0025E0                     _lcd_4bit_send_string_data:
  6015                           	callstack 23
  6016   0025E0                     
  6017                           ;ECU_LAYER/char_lcd/ecu_char_lcd.c: 149:         if (((void*)0)==_lcd){
  6018   0025E0  5043               	movf	lcd_4bit_send_string_data@_lcd^0,w,c
  6019   0025E2  1044               	iorwf	(lcd_4bit_send_string_data@_lcd+1)^0,w,c
  6020   0025E4  A4D8               	btfss	status,2,c
  6021   0025E6  EFF7  F012         	goto	u4691
  6022   0025EA  EFF9  F012         	goto	u4690
  6023   0025EE                     u4691:
  6024   0025EE  EF0B  F013         	goto	l5789
  6025   0025F2                     u4690:
  6026   0025F2                     
  6027                           ;ECU_LAYER/char_lcd/ecu_char_lcd.c: 151:         }
  6028   0025F2  EF1A  F013         	goto	l54
  6029   0025F6                     l5785:
  6030   0025F6  C043  F03F         	movff	lcd_4bit_send_string_data@_lcd,lcd_4bit_send_char_data@_lcd
  6031   0025FA  C044  F040         	movff	lcd_4bit_send_string_data@_lcd+1,lcd_4bit_send_char_data@_lcd+1
  6032   0025FE  C045  FFF6         	movff	lcd_4bit_send_string_data@str,tblptrl
  6033   002602  C046  FFF7         	movff	lcd_4bit_send_string_data@str+1,tblptrh
  6034   002606                     	if	1	;Program memory is < 0x10000, tblptru is always zero
  6035   002606  6AF8               	clrf	tblptru,c
  6036   002608                     	endif
  6037   002608                     	if	0	;tblptru may be non-zero
  6038   002608                     	endif
  6039   002608  0008               	tblrd		*
  6040   00260A  CFF5 F041          	movff	tablat,lcd_4bit_send_char_data@data
  6041   00260E  EC22  F011         	call	_lcd_4bit_send_char_data	;wreg free
  6042   002612  4A45               	infsnz	lcd_4bit_send_string_data@str^0,f,c
  6043   002614  2A46               	incf	(lcd_4bit_send_string_data@str+1)^0,f,c
  6044   002616                     l5789:
  6045                           
  6046                           ;ECU_LAYER/char_lcd/ecu_char_lcd.c: 153:             while(*str){
  6047   002616  C045  FFF6         	movff	lcd_4bit_send_string_data@str,tblptrl
  6048   00261A  C046  FFF7         	movff	lcd_4bit_send_string_data@str+1,tblptrh
  6049   00261E                     	if	1	;Program memory is < 0x10000, tblptru is always zero
  6050   00261E  6AF8               	clrf	tblptru,c
  6051   002620                     	endif
  6052   002620                     	if	0	;tblptru may be non-zero
  6053   002620                     	endif
  6054   002620  0008               	tblrd		*
  6055   002622  50F5               	movf	tablat,w,c
  6056   002624  0900               	iorlw	0
  6057   002626  A4D8               	btfss	status,2,c
  6058   002628  EF18  F013         	goto	u4701
  6059   00262C  EF1A  F013         	goto	u4700
  6060   002630                     u4701:
  6061   002630  EFFB  F012         	goto	l5785
  6062   002634                     u4700:
  6063   002634                     l54:
  6064   002634  0012               	return		;funcret
  6065   002636                     __end_of_lcd_4bit_send_string_data:
  6066                           	callstack 0
  6067                           
  6068 ;; *************** function _lcd_4bit_send_char_data *****************
  6069 ;; Defined at:
  6070 ;;		line 94 in file "ECU_LAYER/char_lcd/ecu_char_lcd.c"
  6071 ;; Parameters:    Size  Location     Type
  6072 ;;  _lcd            2   16[COMRAM] PTR const struct .
  6073 ;;		 -> Lcd_Obj(6), 
  6074 ;;  data            1   18[COMRAM] unsigned char 
  6075 ;; Auto vars:     Size  Location     Type
  6076 ;;  ret             1   19[COMRAM] unsigned char 
  6077 ;; Return value:  Size  Location     Type
  6078 ;;                  1    wreg      unsigned char 
  6079 ;; Registers used:
  6080 ;;		wreg, fsr2l, fsr2h, status,2, status,0, prodl, prodh, cstack
  6081 ;; Tracked objects:
  6082 ;;		On entry : 0/0
  6083 ;;		On exit  : 0/0
  6084 ;;		Unchanged: 0/0
  6085 ;; Data sizes:     COMRAM   BANK0   BANK1   BANK2   BANK3   BANK4   BANK5   BANK6   BANK7   BANK8   BANK9  BANK10  BANK1
      +1  BANK12  BANK13  BANK14  BANK15
  6086 ;;      Params:         3       0       0       0       0       0       0       0       0       0       0       0       
      +0       0       0       0       0
  6087 ;;      Locals:         1       0       0       0       0       0       0       0       0       0       0       0       
      +0       0       0       0       0
  6088 ;;      Temps:          0       0       0       0       0       0       0       0       0       0       0       0       
      +0       0       0       0       0
  6089 ;;      Totals:         4       0       0       0       0       0       0       0       0       0       0       0       
      +0       0       0       0       0
  6090 ;;Total ram usage:        4 bytes
  6091 ;; Hardware stack levels used: 1
  6092 ;; Hardware stack levels required when called: 5
  6093 ;; This function calls:
  6094 ;;		_gpio_Pin_Write_Logic
  6095 ;;		_send_4bit_mode_enable
  6096 ;;		_send_data_4bit_mode
  6097 ;; This function is called by:
  6098 ;;		_lcd_4bit_send_string_data
  6099 ;;		_main
  6100 ;;		_lcd_4bit_send_char_data_pos
  6101 ;;		_lcd_4bit_send_string_data_pos
  6102 ;;		_lcd_4bit_send_custome_char
  6103 ;; This function uses a non-reentrant model
  6104 ;;
  6105                           
  6106                           	psect	text11
  6107   002244                     __ptext11:
  6108                           	callstack 0
  6109   002244                     _lcd_4bit_send_char_data:
  6110                           	callstack 23
  6111   002244                     
  6112                           ;ECU_LAYER/char_lcd/ecu_char_lcd.c: 96:         if (((void*)0)==_lcd){
  6113   002244  503F               	movf	lcd_4bit_send_char_data@_lcd^0,w,c
  6114   002246  1040               	iorwf	(lcd_4bit_send_char_data@_lcd+1)^0,w,c
  6115   002248  A4D8               	btfss	status,2,c
  6116   00224A  EF29  F011         	goto	u4591
  6117   00224E  EF2B  F011         	goto	u4590
  6118   002252                     u4591:
  6119   002252  EF2F  F011         	goto	l5659
  6120   002256                     u4590:
  6121   002256                     
  6122                           ;ECU_LAYER/char_lcd/ecu_char_lcd.c: 97:             ret=(Std_ReturnType)0x00;
  6123   002256  0E00               	movlw	0
  6124   002258  6E42               	movwf	lcd_4bit_send_char_data@ret^0,c
  6125                           
  6126                           ;ECU_LAYER/char_lcd/ecu_char_lcd.c: 98:         }
  6127   00225A  EF59  F011         	goto	l5661
  6128   00225E                     l5659:
  6129                           
  6130                           ;ECU_LAYER/char_lcd/ecu_char_lcd.c: 102:            ret=gpio_Pin_Write_Logic(&(_lcd->lcd
      +                          _rs),GPIO_HIGH);
  6131   00225E  C03F  F031         	movff	lcd_4bit_send_char_data@_lcd,gpio_Pin_Write_Logic@pin_config
  6132   002262  C040  F032         	movff	lcd_4bit_send_char_data@_lcd+1,gpio_Pin_Write_Logic@pin_config+1
  6133   002266  0E01               	movlw	1
  6134   002268  6E33               	movwf	gpio_Pin_Write_Logic@logic^0,c
  6135   00226A  EC96  F00B         	call	_gpio_Pin_Write_Logic	;wreg free
  6136   00226E  6E42               	movwf	lcd_4bit_send_char_data@ret^0,c
  6137                           
  6138                           ;ECU_LAYER/char_lcd/ecu_char_lcd.c: 104:            ret=send_data_4bit_mode(_lcd,data>>4
      +                          );
  6139   002270  C03F  F03B         	movff	lcd_4bit_send_char_data@_lcd,send_data_4bit_mode@_lcd
  6140   002274  C040  F03C         	movff	lcd_4bit_send_char_data@_lcd+1,send_data_4bit_mode@_lcd+1
  6141   002278  3841               	swapf	lcd_4bit_send_char_data@data^0,w,c
  6142   00227A  0B0F               	andlw	15
  6143   00227C  6E3D               	movwf	send_data_4bit_mode@data^0,c
  6144   00227E  EC30  F00F         	call	_send_data_4bit_mode	;wreg free
  6145   002282  6E42               	movwf	lcd_4bit_send_char_data@ret^0,c
  6146                           
  6147                           ;ECU_LAYER/char_lcd/ecu_char_lcd.c: 106:            ret=send_4bit_mode_enable(_lcd);
  6148   002284  C03F  F03B         	movff	lcd_4bit_send_char_data@_lcd,send_4bit_mode_enable@_lcd
  6149   002288  C040  F03C         	movff	lcd_4bit_send_char_data@_lcd+1,send_4bit_mode_enable@_lcd+1
  6150   00228C  EC99  F013         	call	_send_4bit_mode_enable	;wreg free
  6151   002290  6E42               	movwf	lcd_4bit_send_char_data@ret^0,c
  6152                           
  6153                           ;ECU_LAYER/char_lcd/ecu_char_lcd.c: 108:            ret=send_data_4bit_mode(_lcd,data);
  6154   002292  C03F  F03B         	movff	lcd_4bit_send_char_data@_lcd,send_data_4bit_mode@_lcd
  6155   002296  C040  F03C         	movff	lcd_4bit_send_char_data@_lcd+1,send_data_4bit_mode@_lcd+1
  6156   00229A  C041  F03D         	movff	lcd_4bit_send_char_data@data,send_data_4bit_mode@data
  6157   00229E  EC30  F00F         	call	_send_data_4bit_mode	;wreg free
  6158   0022A2  6E42               	movwf	lcd_4bit_send_char_data@ret^0,c
  6159                           
  6160                           ;ECU_LAYER/char_lcd/ecu_char_lcd.c: 110:            ret=send_4bit_mode_enable(_lcd);
  6161   0022A4  C03F  F03B         	movff	lcd_4bit_send_char_data@_lcd,send_4bit_mode_enable@_lcd
  6162   0022A8  C040  F03C         	movff	lcd_4bit_send_char_data@_lcd+1,send_4bit_mode_enable@_lcd+1
  6163   0022AC  EC99  F013         	call	_send_4bit_mode_enable	;wreg free
  6164   0022B0  6E42               	movwf	lcd_4bit_send_char_data@ret^0,c
  6165   0022B2                     l5661:
  6166                           
  6167                           ;ECU_LAYER/char_lcd/ecu_char_lcd.c: 112:         return ret;
  6168   0022B2  5042               	movf	lcd_4bit_send_char_data@ret^0,w,c
  6169   0022B4  0012               	return		;funcret
  6170   0022B6                     __end_of_lcd_4bit_send_char_data:
  6171                           	callstack 0
  6172                           
  6173 ;; *************** function __TimerDelay_ms *****************
  6174 ;; Defined at:
  6175 ;;		line 20 in file "MCAL_LAYER/Delay/M_Delay.c"
  6176 ;; Parameters:    Size  Location     Type
  6177 ;;  u16CopyDelay    2    9[COMRAM] unsigned short 
  6178 ;; Auto vars:     Size  Location     Type
  6179 ;;		None
  6180 ;; Return value:  Size  Location     Type
  6181 ;;                  1    wreg      void 
  6182 ;; Registers used:
  6183 ;;		wreg, fsr2l, fsr2h, status,2, status,0, cstack
  6184 ;; Tracked objects:
  6185 ;;		On entry : 0/0
  6186 ;;		On exit  : 0/0
  6187 ;;		Unchanged: 0/0
  6188 ;; Data sizes:     COMRAM   BANK0   BANK1   BANK2   BANK3   BANK4   BANK5   BANK6   BANK7   BANK8   BANK9  BANK10  BANK1
      +1  BANK12  BANK13  BANK14  BANK15
  6189 ;;      Params:         2       0       0       0       0       0       0       0       0       0       0       0       
      +0       0       0       0       0
  6190 ;;      Locals:         0       0       0       0       0       0       0       0       0       0       0       0       
      +0       0       0       0       0
  6191 ;;      Temps:          0       0       0       0       0       0       0       0       0       0       0       0       
      +0       0       0       0       0
  6192 ;;      Totals:         2       0       0       0       0       0       0       0       0       0       0       0       
      +0       0       0       0       0
  6193 ;;Total ram usage:        2 bytes
  6194 ;; Hardware stack levels used: 1
  6195 ;; Hardware stack levels required when called: 5
  6196 ;; This function calls:
  6197 ;;		_Timer0_DeInit
  6198 ;;		_Timer0_Init
  6199 ;; This function is called by:
  6200 ;;		_main
  6201 ;;		_vMenuOption
  6202 ;; This function uses a non-reentrant model
  6203 ;;
  6204                           
  6205                           	psect	text12
  6206   0026E0                     __ptext12:
  6207                           	callstack 0
  6208   0026E0                     __TimerDelay_ms:
  6209                           	callstack 24
  6210   0026E0                     
  6211                           ;MCAL_LAYER/Delay/M_Delay.c: 21:     Timer0_Init(&TimerDelay);
  6212   0026E0  0E20               	movlw	low _TimerDelay
  6213   0026E2  6E34               	movwf	Timer0_Init@_timer^0,c
  6214   0026E4  0E00               	movlw	high _TimerDelay
  6215   0026E6  6E35               	movwf	(Timer0_Init@_timer+1)^0,c
  6216   0026E8  ECE3  F00E         	call	_Timer0_Init	;wreg free
  6217   0026EC                     l5835:
  6218   0026EC  5038               	movf	__TimerDelay_ms@u16CopyDelay^0,w,c
  6219   0026EE  1861               	xorwf	_u16DelayCounter^0,w,c	;volatile
  6220   0026F0  E107               	bnz	u4751
  6221   0026F2  5039               	movf	(__TimerDelay_ms@u16CopyDelay+1)^0,w,c
  6222   0026F4  1862               	xorwf	(_u16DelayCounter+1)^0,w,c	;volatile
  6223   0026F6  A4D8               	btfss	status,2,c
  6224   0026F8  EF80  F013         	goto	u4751
  6225   0026FC  EF82  F013         	goto	u4750
  6226   002700                     u4751:
  6227   002700  EF76  F013         	goto	l5835
  6228   002704                     u4750:
  6229   002704                     
  6230                           ;MCAL_LAYER/Delay/M_Delay.c: 23:     if(u16DelayCounter==u16CopyDelay){
  6231   002704  5038               	movf	__TimerDelay_ms@u16CopyDelay^0,w,c
  6232   002706  1861               	xorwf	_u16DelayCounter^0,w,c	;volatile
  6233   002708  E107               	bnz	u4761
  6234   00270A  5039               	movf	(__TimerDelay_ms@u16CopyDelay+1)^0,w,c
  6235   00270C  1862               	xorwf	(_u16DelayCounter+1)^0,w,c	;volatile
  6236   00270E  A4D8               	btfss	status,2,c
  6237   002710  EF8C  F013         	goto	u4761
  6238   002714  EF8E  F013         	goto	u4760
  6239   002718                     u4761:
  6240   002718  EF92  F013         	goto	l5841
  6241   00271C                     u4760:
  6242   00271C                     
  6243                           ;MCAL_LAYER/Delay/M_Delay.c: 24:         u16DelayCounter=0;
  6244   00271C  0E00               	movlw	0
  6245   00271E  6E62               	movwf	(_u16DelayCounter+1)^0,c	;volatile
  6246   002720  0E00               	movlw	0
  6247   002722  6E61               	movwf	_u16DelayCounter^0,c	;volatile
  6248   002724                     l5841:
  6249                           
  6250                           ;MCAL_LAYER/Delay/M_Delay.c: 26:     Timer0_DeInit(&TimerDelay);
  6251   002724  0E20               	movlw	low _TimerDelay
  6252   002726  6E31               	movwf	Timer0_DeInit@_timer^0,c
  6253   002728  0E00               	movlw	high _TimerDelay
  6254   00272A  6E32               	movwf	(Timer0_DeInit@_timer+1)^0,c
  6255   00272C  EC3C  F015         	call	_Timer0_DeInit	;wreg free
  6256   002730  0012               	return		;funcret
  6257   002732                     __end_of__TimerDelay_ms:
  6258                           	callstack 0
  6259                           
  6260 ;; *************** function _Timer0_Init *****************
  6261 ;; Defined at:
  6262 ;;		line 24 in file "MCAL_LAYER/TIMER0/hal_timer0.c"
  6263 ;; Parameters:    Size  Location     Type
  6264 ;;  _timer          2    5[COMRAM] PTR const struct .
  6265 ;;		 -> TimerDelay(6), 
  6266 ;; Auto vars:     Size  Location     Type
  6267 ;;  ret             1    0        unsigned char 
  6268 ;; Return value:  Size  Location     Type
  6269 ;;                  1    wreg      unsigned char 
  6270 ;; Registers used:
  6271 ;;		wreg, fsr2l, fsr2h, status,2, status,0, cstack
  6272 ;; Tracked objects:
  6273 ;;		On entry : 0/0
  6274 ;;		On exit  : 0/0
  6275 ;;		Unchanged: 0/0
  6276 ;; Data sizes:     COMRAM   BANK0   BANK1   BANK2   BANK3   BANK4   BANK5   BANK6   BANK7   BANK8   BANK9  BANK10  BANK1
      +1  BANK12  BANK13  BANK14  BANK15
  6277 ;;      Params:         2       0       0       0       0       0       0       0       0       0       0       0       
      +0       0       0       0       0
  6278 ;;      Locals:         0       0       0       0       0       0       0       0       0       0       0       0       
      +0       0       0       0       0
  6279 ;;      Temps:          2       0       0       0       0       0       0       0       0       0       0       0       
      +0       0       0       0       0
  6280 ;;      Totals:         4       0       0       0       0       0       0       0       0       0       0       0       
      +0       0       0       0       0
  6281 ;;Total ram usage:        4 bytes
  6282 ;; Hardware stack levels used: 1
  6283 ;; Hardware stack levels required when called: 4
  6284 ;; This function calls:
  6285 ;;		_Timer0_mode_of_register_size_selcet
  6286 ;;		_Timer0_mode_timer_or_counter_selcet
  6287 ;;		_Timer0_prescaler_selcet
  6288 ;; This function is called by:
  6289 ;;		__TimerDelay_ms
  6290 ;;		__TimerDelay_us
  6291 ;; This function uses a non-reentrant model
  6292 ;;
  6293                           
  6294                           	psect	text13
  6295   001DC6                     __ptext13:
  6296                           	callstack 0
  6297   001DC6                     _Timer0_Init:
  6298                           	callstack 24
  6299   001DC6                     
  6300                           ;MCAL_LAYER/TIMER0/hal_timer0.c: 26:         if (((void*)0)==_timer){
  6301   001DC6  5034               	movf	Timer0_Init@_timer^0,w,c
  6302   001DC8  1035               	iorwf	(Timer0_Init@_timer+1)^0,w,c
  6303   001DCA  A4D8               	btfss	status,2,c
  6304   001DCC  EFEA  F00E         	goto	u4661
  6305   001DD0  EFEC  F00E         	goto	u4660
  6306   001DD4                     u4661:
  6307   001DD4  EFEE  F00E         	goto	l563
  6308   001DD8                     u4660:
  6309   001DD8                     
  6310                           ;MCAL_LAYER/TIMER0/hal_timer0.c: 28:         }
  6311   001DD8  EF2F  F00F         	goto	l565
  6312   001DDC                     l563:
  6313                           
  6314                           ;MCAL_LAYER/TIMER0/hal_timer0.c: 31:             (T0CONbits.TMR0ON=0);
  6315   001DDC  9ED5               	bcf	213,7,c	;volatile
  6316   001DDE                     
  6317                           ;MCAL_LAYER/TIMER0/hal_timer0.c: 33:             Timer0_prescaler_selcet(_timer);
  6318   001DDE  C034  F031         	movff	Timer0_Init@_timer,Timer0_prescaler_selcet@_timer
  6319   001DE2  C035  F032         	movff	Timer0_Init@_timer+1,Timer0_prescaler_selcet@_timer+1
  6320   001DE6  ECC4  F012         	call	_Timer0_prescaler_selcet	;wreg free
  6321                           
  6322                           ;MCAL_LAYER/TIMER0/hal_timer0.c: 35:             Timer0_mode_of_register_size_selcet(_ti
      +                          mer);
  6323   001DEA  C034  F031         	movff	Timer0_Init@_timer,Timer0_mode_of_register_size_selcet@_timer
  6324   001DEE  C035  F032         	movff	Timer0_Init@_timer+1,Timer0_mode_of_register_size_selcet@_timer+1
  6325   001DF2  EC09  F014         	call	_Timer0_mode_of_register_size_selcet	;wreg free
  6326                           
  6327                           ;MCAL_LAYER/TIMER0/hal_timer0.c: 38:             Timer0_mode_timer_or_counter_selcet(_ti
      +                          mer);
  6328   001DF6  C034  F031         	movff	Timer0_Init@_timer,Timer0_mode_timer_or_counter_selcet@_timer
  6329   001DFA  C035  F032         	movff	Timer0_Init@_timer+1,Timer0_mode_timer_or_counter_selcet@_timer+1
  6330   001DFE  ECB7  F00F         	call	_Timer0_mode_timer_or_counter_selcet	;wreg free
  6331   001E02                     
  6332                           ;MCAL_LAYER/TIMER0/hal_timer0.c: 40:             TMR0H=(_timer->timer0_preloaded_value) 
      +                          >> 8;
  6333   001E02  EE20 F003          	lfsr	2,3
  6334   001E06  5034               	movf	Timer0_Init@_timer^0,w,c
  6335   001E08  26D9               	addwf	fsr2l,f,c
  6336   001E0A  5035               	movf	(Timer0_Init@_timer+1)^0,w,c
  6337   001E0C  22DA               	addwfc	fsr2h,f,c
  6338   001E0E  CFDE F036          	movff	postinc2,??_Timer0_Init
  6339   001E12  CFDD F037          	movff	postdec2,??_Timer0_Init+1
  6340   001E16  C037  F036         	movff	??_Timer0_Init+1,??_Timer0_Init
  6341   001E1A  6A37               	clrf	(??_Timer0_Init+1)^0,c
  6342   001E1C  5036               	movf	??_Timer0_Init^0,w,c
  6343   001E1E  6ED7               	movwf	215,c	;volatile
  6344   001E20                     
  6345                           ;MCAL_LAYER/TIMER0/hal_timer0.c: 41:             TMR0L=(uint8)(_timer->timer0_preloaded_
      +                          value);
  6346   001E20  EE20 F003          	lfsr	2,3
  6347   001E24  5034               	movf	Timer0_Init@_timer^0,w,c
  6348   001E26  26D9               	addwf	fsr2l,f,c
  6349   001E28  5035               	movf	(Timer0_Init@_timer+1)^0,w,c
  6350   001E2A  22DA               	addwfc	fsr2h,f,c
  6351   001E2C  50DF               	movf	indf2,w,c
  6352   001E2E  6ED6               	movwf	214,c	;volatile
  6353   001E30                     
  6354                           ;MCAL_LAYER/TIMER0/hal_timer0.c: 46:       preload_timer=_timer->timer0_preloaded_value;
  6355   001E30  EE20 F003          	lfsr	2,3
  6356   001E34  5034               	movf	Timer0_Init@_timer^0,w,c
  6357   001E36  26D9               	addwf	fsr2l,f,c
  6358   001E38  5035               	movf	(Timer0_Init@_timer+1)^0,w,c
  6359   001E3A  22DA               	addwfc	fsr2h,f,c
  6360   001E3C  CFDE F05B          	movff	postinc2,_preload_timer
  6361   001E40  CFDD F05C          	movff	postdec2,_preload_timer+1
  6362   001E44                     
  6363                           ;MCAL_LAYER/TIMER0/hal_timer0.c: 47:        (INTCONbits.TMR0IE=1);
  6364   001E44  8AF2               	bsf	242,5,c	;volatile
  6365   001E46                     
  6366                           ;MCAL_LAYER/TIMER0/hal_timer0.c: 48:        (INTCONbits.TMR0IF=0);
  6367   001E46  94F2               	bcf	242,2,c	;volatile
  6368   001E48                     
  6369                           ;MCAL_LAYER/TIMER0/hal_timer0.c: 61:             (INTCONbits.GIE=1);
  6370   001E48  8EF2               	bsf	242,7,c	;volatile
  6371   001E4A                     
  6372                           ;MCAL_LAYER/TIMER0/hal_timer0.c: 62:             (INTCONbits.PEIE=1);
  6373   001E4A  8CF2               	bsf	242,6,c	;volatile
  6374   001E4C                     
  6375                           ;MCAL_LAYER/TIMER0/hal_timer0.c: 64:            TIMER0_interruptHandler =_timer->TIMER0_
      +                          HandlerInterrupt;
  6376   001E4C  C034  FFD9         	movff	Timer0_Init@_timer,fsr2l
  6377   001E50  C035  FFDA         	movff	Timer0_Init@_timer+1,fsr2h
  6378   001E54  CFDE F05D          	movff	postinc2,_TIMER0_interruptHandler
  6379   001E58  CFDD F05E          	movff	postdec2,_TIMER0_interruptHandler+1
  6380   001E5C                     
  6381                           ;MCAL_LAYER/TIMER0/hal_timer0.c: 68:             (T0CONbits.TMR0ON=1);
  6382   001E5C  8ED5               	bsf	213,7,c	;volatile
  6383   001E5E                     l565:
  6384   001E5E  0012               	return		;funcret
  6385   001E60                     __end_of_Timer0_Init:
  6386                           	callstack 0
  6387                           
  6388 ;; *************** function _Timer0_prescaler_selcet *****************
  6389 ;; Defined at:
  6390 ;;		line 135 in file "MCAL_LAYER/TIMER0/hal_timer0.c"
  6391 ;; Parameters:    Size  Location     Type
  6392 ;;  _timer          2    2[COMRAM] PTR const struct .
  6393 ;;		 -> TimerDelay(6), 
  6394 ;; Auto vars:     Size  Location     Type
  6395 ;;		None
  6396 ;; Return value:  Size  Location     Type
  6397 ;;                  1    wreg      void 
  6398 ;; Registers used:
  6399 ;;		wreg, fsr2l, fsr2h, status,2, status,0
  6400 ;; Tracked objects:
  6401 ;;		On entry : 0/0
  6402 ;;		On exit  : 0/0
  6403 ;;		Unchanged: 0/0
  6404 ;; Data sizes:     COMRAM   BANK0   BANK1   BANK2   BANK3   BANK4   BANK5   BANK6   BANK7   BANK8   BANK9  BANK10  BANK1
      +1  BANK12  BANK13  BANK14  BANK15
  6405 ;;      Params:         2       0       0       0       0       0       0       0       0       0       0       0       
      +0       0       0       0       0
  6406 ;;      Locals:         0       0       0       0       0       0       0       0       0       0       0       0       
      +0       0       0       0       0
  6407 ;;      Temps:          1       0       0       0       0       0       0       0       0       0       0       0       
      +0       0       0       0       0
  6408 ;;      Totals:         3       0       0       0       0       0       0       0       0       0       0       0       
      +0       0       0       0       0
  6409 ;;Total ram usage:        3 bytes
  6410 ;; Hardware stack levels used: 1
  6411 ;; Hardware stack levels required when called: 3
  6412 ;; This function calls:
  6413 ;;		Nothing
  6414 ;; This function is called by:
  6415 ;;		_Timer0_Init
  6416 ;; This function uses a non-reentrant model
  6417 ;;
  6418                           
  6419                           	psect	text14
  6420   002588                     __ptext14:
  6421                           	callstack 0
  6422   002588                     _Timer0_prescaler_selcet:
  6423                           	callstack 24
  6424   002588                     
  6425                           ;MCAL_LAYER/TIMER0/hal_timer0.c: 136:     if (1==_timer->timer0_prescaler_enable){
  6426   002588  EE20 F005          	lfsr	2,5
  6427   00258C  5031               	movf	Timer0_prescaler_selcet@_timer^0,w,c
  6428   00258E  26D9               	addwf	fsr2l,f,c
  6429   002590  5032               	movf	(Timer0_prescaler_selcet@_timer+1)^0,w,c
  6430   002592  22DA               	addwfc	fsr2h,f,c
  6431   002594  A6DF               	btfss	indf2,3,c
  6432   002596  EFCF  F012         	goto	u4481
  6433   00259A  EFD1  F012         	goto	u4480
  6434   00259E                     u4481:
  6435   00259E  EFE1  F012         	goto	l5599
  6436   0025A2                     u4480:
  6437   0025A2                     
  6438                           ;MCAL_LAYER/TIMER0/hal_timer0.c: 137:         (T0CONbits.PSA=0);
  6439   0025A2  96D5               	bcf	213,3,c	;volatile
  6440   0025A4                     
  6441                           ;MCAL_LAYER/TIMER0/hal_timer0.c: 138:         T0CONbits.T0PS=_timer->_prescaler_value;
  6442   0025A4  EE20 F002          	lfsr	2,2
  6443   0025A8  5031               	movf	Timer0_prescaler_selcet@_timer^0,w,c
  6444   0025AA  26D9               	addwf	fsr2l,f,c
  6445   0025AC  5032               	movf	(Timer0_prescaler_selcet@_timer+1)^0,w,c
  6446   0025AE  22DA               	addwfc	fsr2h,f,c
  6447   0025B0  50DF               	movf	indf2,w,c
  6448   0025B2  6E33               	movwf	??_Timer0_prescaler_selcet^0,c
  6449   0025B4  50D5               	movf	213,w,c	;volatile
  6450   0025B6  1833               	xorwf	??_Timer0_prescaler_selcet^0,w,c
  6451   0025B8  0BF8               	andlw	-8
  6452   0025BA  1833               	xorwf	??_Timer0_prescaler_selcet^0,w,c
  6453   0025BC  6ED5               	movwf	213,c	;volatile
  6454                           
  6455                           ;MCAL_LAYER/TIMER0/hal_timer0.c: 139:     }
  6456   0025BE  EFEF  F012         	goto	l589
  6457   0025C2                     l5599:
  6458   0025C2  EE20 F005          	lfsr	2,5
  6459   0025C6  5031               	movf	Timer0_prescaler_selcet@_timer^0,w,c
  6460   0025C8  26D9               	addwf	fsr2l,f,c
  6461   0025CA  5032               	movf	(Timer0_prescaler_selcet@_timer+1)^0,w,c
  6462   0025CC  22DA               	addwfc	fsr2h,f,c
  6463   0025CE  B6DF               	btfsc	indf2,3,c
  6464   0025D0  EFEC  F012         	goto	u4491
  6465   0025D4  EFEE  F012         	goto	u4490
  6466   0025D8                     u4491:
  6467   0025D8  EFEF  F012         	goto	l589
  6468   0025DC                     u4490:
  6469   0025DC                     
  6470                           ;MCAL_LAYER/TIMER0/hal_timer0.c: 141:         (T0CONbits.PSA=1);
  6471   0025DC  86D5               	bsf	213,3,c	;volatile
  6472   0025DE                     l589:
  6473   0025DE  0012               	return		;funcret
  6474   0025E0                     __end_of_Timer0_prescaler_selcet:
  6475                           	callstack 0
  6476                           
  6477 ;; *************** function _Timer0_mode_timer_or_counter_selcet *****************
  6478 ;; Defined at:
  6479 ;;		line 156 in file "MCAL_LAYER/TIMER0/hal_timer0.c"
  6480 ;; Parameters:    Size  Location     Type
  6481 ;;  _timer          2    2[COMRAM] PTR const struct .
  6482 ;;		 -> TimerDelay(6), 
  6483 ;; Auto vars:     Size  Location     Type
  6484 ;;		None
  6485 ;; Return value:  Size  Location     Type
  6486 ;;                  1    wreg      void 
  6487 ;; Registers used:
  6488 ;;		wreg, fsr2l, fsr2h, status,2, status,0
  6489 ;; Tracked objects:
  6490 ;;		On entry : 0/0
  6491 ;;		On exit  : 0/0
  6492 ;;		Unchanged: 0/0
  6493 ;; Data sizes:     COMRAM   BANK0   BANK1   BANK2   BANK3   BANK4   BANK5   BANK6   BANK7   BANK8   BANK9  BANK10  BANK1
      +1  BANK12  BANK13  BANK14  BANK15
  6494 ;;      Params:         2       0       0       0       0       0       0       0       0       0       0       0       
      +0       0       0       0       0
  6495 ;;      Locals:         0       0       0       0       0       0       0       0       0       0       0       0       
      +0       0       0       0       0
  6496 ;;      Temps:          0       0       0       0       0       0       0       0       0       0       0       0       
      +0       0       0       0       0
  6497 ;;      Totals:         2       0       0       0       0       0       0       0       0       0       0       0       
      +0       0       0       0       0
  6498 ;;Total ram usage:        2 bytes
  6499 ;; Hardware stack levels used: 1
  6500 ;; Hardware stack levels required when called: 3
  6501 ;; This function calls:
  6502 ;;		Nothing
  6503 ;; This function is called by:
  6504 ;;		_Timer0_Init
  6505 ;; This function uses a non-reentrant model
  6506 ;;
  6507                           
  6508                           	psect	text15
  6509   001F6E                     __ptext15:
  6510                           	callstack 0
  6511   001F6E                     _Timer0_mode_timer_or_counter_selcet:
  6512                           	callstack 24
  6513   001F6E                     
  6514                           ;MCAL_LAYER/TIMER0/hal_timer0.c: 157:     if (1==_timer->timer0_mode_timer_or_counter){
  6515   001F6E  EE20 F005          	lfsr	2,5
  6516   001F72  5031               	movf	Timer0_mode_timer_or_counter_selcet@_timer^0,w,c
  6517   001F74  26D9               	addwf	fsr2l,f,c
  6518   001F76  5032               	movf	(Timer0_mode_timer_or_counter_selcet@_timer+1)^0,w,c
  6519   001F78  22DA               	addwfc	fsr2h,f,c
  6520   001F7A  A2DF               	btfss	indf2,1,c
  6521   001F7C  EFC2  F00F         	goto	u4521
  6522   001F80  EFC4  F00F         	goto	u4520
  6523   001F84                     u4521:
  6524   001F84  EFC7  F00F         	goto	l5615
  6525   001F88                     u4520:
  6526   001F88                     
  6527                           ;MCAL_LAYER/TIMER0/hal_timer0.c: 158:         (T0CONbits.T0CS=0);
  6528   001F88  9AD5               	bcf	213,5,c	;volatile
  6529                           
  6530                           ;MCAL_LAYER/TIMER0/hal_timer0.c: 159:     }
  6531   001F8A  EFF5  F00F         	goto	l606
  6532   001F8E                     l5615:
  6533   001F8E  EE20 F005          	lfsr	2,5
  6534   001F92  5031               	movf	Timer0_mode_timer_or_counter_selcet@_timer^0,w,c
  6535   001F94  26D9               	addwf	fsr2l,f,c
  6536   001F96  5032               	movf	(Timer0_mode_timer_or_counter_selcet@_timer+1)^0,w,c
  6537   001F98  22DA               	addwfc	fsr2h,f,c
  6538   001F9A  B2DF               	btfsc	indf2,1,c
  6539   001F9C  EFD2  F00F         	goto	u4531
  6540   001FA0  EFD4  F00F         	goto	u4530
  6541   001FA4                     u4531:
  6542   001FA4  EFF5  F00F         	goto	l606
  6543   001FA8                     u4530:
  6544   001FA8                     
  6545                           ;MCAL_LAYER/TIMER0/hal_timer0.c: 161:       (T0CONbits.T0CS=1);
  6546   001FA8  8AD5               	bsf	213,5,c	;volatile
  6547   001FAA                     
  6548                           ;MCAL_LAYER/TIMER0/hal_timer0.c: 162:       if (1==_timer->timer0_counter_edge){
  6549   001FAA  EE20 F005          	lfsr	2,5
  6550   001FAE  5031               	movf	Timer0_mode_timer_or_counter_selcet@_timer^0,w,c
  6551   001FB0  26D9               	addwf	fsr2l,f,c
  6552   001FB2  5032               	movf	(Timer0_mode_timer_or_counter_selcet@_timer+1)^0,w,c
  6553   001FB4  22DA               	addwfc	fsr2h,f,c
  6554   001FB6  A4DF               	btfss	indf2,2,c
  6555   001FB8  EFE0  F00F         	goto	u4541
  6556   001FBC  EFE2  F00F         	goto	u4540
  6557   001FC0                     u4541:
  6558   001FC0  EFE5  F00F         	goto	l5623
  6559   001FC4                     u4540:
  6560   001FC4                     
  6561                           ;MCAL_LAYER/TIMER0/hal_timer0.c: 163:           (T0CONbits.T0SE=0);
  6562   001FC4  98D5               	bcf	213,4,c	;volatile
  6563                           
  6564                           ;MCAL_LAYER/TIMER0/hal_timer0.c: 164:       }
  6565   001FC6  EFF5  F00F         	goto	l606
  6566   001FCA                     l5623:
  6567   001FCA  EE20 F005          	lfsr	2,5
  6568   001FCE  5031               	movf	Timer0_mode_timer_or_counter_selcet@_timer^0,w,c
  6569   001FD0  26D9               	addwf	fsr2l,f,c
  6570   001FD2  5032               	movf	(Timer0_mode_timer_or_counter_selcet@_timer+1)^0,w,c
  6571   001FD4  22DA               	addwfc	fsr2h,f,c
  6572   001FD6  B4DF               	btfsc	indf2,2,c
  6573   001FD8  EFF0  F00F         	goto	u4551
  6574   001FDC  EFF2  F00F         	goto	u4550
  6575   001FE0                     u4551:
  6576   001FE0  EFF5  F00F         	goto	l605
  6577   001FE4                     u4550:
  6578   001FE4                     
  6579                           ;MCAL_LAYER/TIMER0/hal_timer0.c: 166:           (T0CONbits.T0SE=1);
  6580   001FE4  88D5               	bsf	213,4,c	;volatile
  6581   001FE6  EFF5  F00F         	goto	l606
  6582   001FEA                     l605:
  6583   001FEA                     l606:
  6584   001FEA  0012               	return		;funcret
  6585   001FEC                     __end_of_Timer0_mode_timer_or_counter_selcet:
  6586                           	callstack 0
  6587                           
  6588 ;; *************** function _Timer0_mode_of_register_size_selcet *****************
  6589 ;; Defined at:
  6590 ;;		line 146 in file "MCAL_LAYER/TIMER0/hal_timer0.c"
  6591 ;; Parameters:    Size  Location     Type
  6592 ;;  _timer          2    2[COMRAM] PTR const struct .
  6593 ;;		 -> TimerDelay(6), 
  6594 ;; Auto vars:     Size  Location     Type
  6595 ;;		None
  6596 ;; Return value:  Size  Location     Type
  6597 ;;                  1    wreg      void 
  6598 ;; Registers used:
  6599 ;;		wreg, fsr2l, fsr2h, status,2, status,0
  6600 ;; Tracked objects:
  6601 ;;		On entry : 0/0
  6602 ;;		On exit  : 0/0
  6603 ;;		Unchanged: 0/0
  6604 ;; Data sizes:     COMRAM   BANK0   BANK1   BANK2   BANK3   BANK4   BANK5   BANK6   BANK7   BANK8   BANK9  BANK10  BANK1
      +1  BANK12  BANK13  BANK14  BANK15
  6605 ;;      Params:         2       0       0       0       0       0       0       0       0       0       0       0       
      +0       0       0       0       0
  6606 ;;      Locals:         0       0       0       0       0       0       0       0       0       0       0       0       
      +0       0       0       0       0
  6607 ;;      Temps:          0       0       0       0       0       0       0       0       0       0       0       0       
      +0       0       0       0       0
  6608 ;;      Totals:         2       0       0       0       0       0       0       0       0       0       0       0       
      +0       0       0       0       0
  6609 ;;Total ram usage:        2 bytes
  6610 ;; Hardware stack levels used: 1
  6611 ;; Hardware stack levels required when called: 3
  6612 ;; This function calls:
  6613 ;;		Nothing
  6614 ;; This function is called by:
  6615 ;;		_Timer0_Init
  6616 ;; This function uses a non-reentrant model
  6617 ;;
  6618                           
  6619                           	psect	text16
  6620   002812                     __ptext16:
  6621                           	callstack 0
  6622   002812                     _Timer0_mode_of_register_size_selcet:
  6623                           	callstack 24
  6624   002812                     
  6625                           ;MCAL_LAYER/TIMER0/hal_timer0.c: 147:     if (1==_timer->timer0_mode_register_size){
  6626   002812  EE20 F005          	lfsr	2,5
  6627   002816  5031               	movf	Timer0_mode_of_register_size_selcet@_timer^0,w,c
  6628   002818  26D9               	addwf	fsr2l,f,c
  6629   00281A  5032               	movf	(Timer0_mode_of_register_size_selcet@_timer+1)^0,w,c
  6630   00281C  22DA               	addwfc	fsr2h,f,c
  6631   00281E  A0DF               	btfss	indf2,0,c
  6632   002820  EF14  F014         	goto	u4501
  6633   002824  EF16  F014         	goto	u4500
  6634   002828                     u4501:
  6635   002828  EF19  F014         	goto	l5607
  6636   00282C                     u4500:
  6637   00282C                     
  6638                           ;MCAL_LAYER/TIMER0/hal_timer0.c: 148:         (T0CONbits.T08BIT=1);
  6639   00282C  8CD5               	bsf	213,6,c	;volatile
  6640                           
  6641                           ;MCAL_LAYER/TIMER0/hal_timer0.c: 149:     }
  6642   00282E  EF27  F014         	goto	l596
  6643   002832                     l5607:
  6644   002832  EE20 F005          	lfsr	2,5
  6645   002836  5031               	movf	Timer0_mode_of_register_size_selcet@_timer^0,w,c
  6646   002838  26D9               	addwf	fsr2l,f,c
  6647   00283A  5032               	movf	(Timer0_mode_of_register_size_selcet@_timer+1)^0,w,c
  6648   00283C  22DA               	addwfc	fsr2h,f,c
  6649   00283E  B0DF               	btfsc	indf2,0,c
  6650   002840  EF24  F014         	goto	u4511
  6651   002844  EF26  F014         	goto	u4510
  6652   002848                     u4511:
  6653   002848  EF27  F014         	goto	l596
  6654   00284C                     u4510:
  6655   00284C                     
  6656                           ;MCAL_LAYER/TIMER0/hal_timer0.c: 151:       (T0CONbits.T08BIT=0);
  6657   00284C  9CD5               	bcf	213,6,c	;volatile
  6658   00284E                     l596:
  6659   00284E  0012               	return		;funcret
  6660   002850                     __end_of_Timer0_mode_of_register_size_selcet:
  6661                           	callstack 0
  6662                           
  6663 ;; *************** function _Timer0_DeInit *****************
  6664 ;; Defined at:
  6665 ;;		line 79 in file "MCAL_LAYER/TIMER0/hal_timer0.c"
  6666 ;; Parameters:    Size  Location     Type
  6667 ;;  _timer          2    2[COMRAM] PTR const struct .
  6668 ;;		 -> TimerDelay(6), 
  6669 ;; Auto vars:     Size  Location     Type
  6670 ;;  ret             1    0        unsigned char 
  6671 ;; Return value:  Size  Location     Type
  6672 ;;                  1    wreg      unsigned char 
  6673 ;; Registers used:
  6674 ;;		wreg, status,2, status,0
  6675 ;; Tracked objects:
  6676 ;;		On entry : 0/0
  6677 ;;		On exit  : 0/0
  6678 ;;		Unchanged: 0/0
  6679 ;; Data sizes:     COMRAM   BANK0   BANK1   BANK2   BANK3   BANK4   BANK5   BANK6   BANK7   BANK8   BANK9  BANK10  BANK1
      +1  BANK12  BANK13  BANK14  BANK15
  6680 ;;      Params:         2       0       0       0       0       0       0       0       0       0       0       0       
      +0       0       0       0       0
  6681 ;;      Locals:         0       0       0       0       0       0       0       0       0       0       0       0       
      +0       0       0       0       0
  6682 ;;      Temps:          0       0       0       0       0       0       0       0       0       0       0       0       
      +0       0       0       0       0
  6683 ;;      Totals:         2       0       0       0       0       0       0       0       0       0       0       0       
      +0       0       0       0       0
  6684 ;;Total ram usage:        2 bytes
  6685 ;; Hardware stack levels used: 1
  6686 ;; Hardware stack levels required when called: 3
  6687 ;; This function calls:
  6688 ;;		Nothing
  6689 ;; This function is called by:
  6690 ;;		__TimerDelay_ms
  6691 ;;		__TimerDelay_us
  6692 ;; This function uses a non-reentrant model
  6693 ;;
  6694                           
  6695                           	psect	text17
  6696   002A78                     __ptext17:
  6697                           	callstack 0
  6698   002A78                     _Timer0_DeInit:
  6699                           	callstack 25
  6700   002A78                     
  6701                           ;MCAL_LAYER/TIMER0/hal_timer0.c: 81:         if (((void*)0)==_timer){
  6702   002A78  5031               	movf	Timer0_DeInit@_timer^0,w,c
  6703   002A7A  1032               	iorwf	(Timer0_DeInit@_timer+1)^0,w,c
  6704   002A7C  A4D8               	btfss	status,2,c
  6705   002A7E  EF43  F015         	goto	u4671
  6706   002A82  EF45  F015         	goto	u4670
  6707   002A86                     u4671:
  6708   002A86  EF47  F015         	goto	l568
  6709   002A8A                     u4670:
  6710   002A8A                     
  6711                           ;MCAL_LAYER/TIMER0/hal_timer0.c: 83:         }
  6712   002A8A  EF49  F015         	goto	l570
  6713   002A8E                     l568:
  6714                           
  6715                           ;MCAL_LAYER/TIMER0/hal_timer0.c: 85:           (T0CONbits.TMR0ON=0);
  6716   002A8E  9ED5               	bcf	213,7,c	;volatile
  6717                           
  6718                           ;MCAL_LAYER/TIMER0/hal_timer0.c: 87:    (INTCONbits.TMR0IE=0);
  6719   002A90  9AF2               	bcf	242,5,c	;volatile
  6720   002A92                     l570:
  6721   002A92  0012               	return		;funcret
  6722   002A94                     __end_of_Timer0_DeInit:
  6723                           	callstack 0
  6724                           
  6725 ;; *************** function _u8PassIsSetOrNotSet *****************
  6726 ;; Defined at:
  6727 ;;		line 459 in file "application.c"
  6728 ;; Parameters:    Size  Location     Type
  6729 ;;  Address         2    6[COMRAM] unsigned short 
  6730 ;; Auto vars:     Size  Location     Type
  6731 ;;  u8LocDataAdd    1    8[COMRAM] unsigned char 
  6732 ;; Return value:  Size  Location     Type
  6733 ;;                  1    wreg      unsigned char 
  6734 ;; Registers used:
  6735 ;;		wreg, fsr2l, fsr2h, status,2, status,0, cstack
  6736 ;; Tracked objects:
  6737 ;;		On entry : 0/0
  6738 ;;		On exit  : 0/0
  6739 ;;		Unchanged: 0/0
  6740 ;; Data sizes:     COMRAM   BANK0   BANK1   BANK2   BANK3   BANK4   BANK5   BANK6   BANK7   BANK8   BANK9  BANK10  BANK1
      +1  BANK12  BANK13  BANK14  BANK15
  6741 ;;      Params:         2       0       0       0       0       0       0       0       0       0       0       0       
      +0       0       0       0       0
  6742 ;;      Locals:         1       0       0       0       0       0       0       0       0       0       0       0       
      +0       0       0       0       0
  6743 ;;      Temps:          0       0       0       0       0       0       0       0       0       0       0       0       
      +0       0       0       0       0
  6744 ;;      Totals:         3       0       0       0       0       0       0       0       0       0       0       0       
      +0       0       0       0       0
  6745 ;;Total ram usage:        3 bytes
  6746 ;; Hardware stack levels used: 1
  6747 ;; Hardware stack levels required when called: 4
  6748 ;; This function calls:
  6749 ;;		_eeprom_ReadDataByte
  6750 ;; This function is called by:
  6751 ;;		_main
  6752 ;; This function uses a non-reentrant model
  6753 ;;
  6754                           
  6755                           	psect	text18
  6756   002AB0                     __ptext18:
  6757                           	callstack 0
  6758   002AB0                     _u8PassIsSetOrNotSet:
  6759                           	callstack 26
  6760   002AB0                     
  6761                           ;application.c: 460:     uint8 u8LocDataAdd;;application.c: 461:     eeprom_ReadDataByte
      +                          (Address,&u8LocDataAdd);
  6762   002AB0  C035  F031         	movff	u8PassIsSetOrNotSet@Address,eeprom_ReadDataByte@badd
  6763   002AB4  C036  F032         	movff	u8PassIsSetOrNotSet@Address+1,eeprom_ReadDataByte@badd+1
  6764   002AB8  0E37               	movlw	low u8PassIsSetOrNotSet@u8LocDataAdd
  6765   002ABA  6E33               	movwf	eeprom_ReadDataByte@data^0,c
  6766   002ABC  0E00               	movlw	high u8PassIsSetOrNotSet@u8LocDataAdd
  6767   002ABE  6E34               	movwf	(eeprom_ReadDataByte@data+1)^0,c
  6768   002AC0  ECC3  F014         	call	_eeprom_ReadDataByte	;wreg free
  6769   002AC4                     
  6770                           ;application.c: 462:     return u8LocDataAdd;
  6771   002AC4  5037               	movf	u8PassIsSetOrNotSet@u8LocDataAdd^0,w,c
  6772   002AC6  0012               	return		;funcret
  6773   002AC8                     __end_of_u8PassIsSetOrNotSet:
  6774                           	callstack 0
  6775                           
  6776 ;; *************** function _eeprom_ReadDataByte *****************
  6777 ;; Defined at:
  6778 ;;		line 56 in file "MCAL_LAYER/EEPROM/hal_eeprom.c"
  6779 ;; Parameters:    Size  Location     Type
  6780 ;;  badd            2    2[COMRAM] unsigned short 
  6781 ;;  data            2    4[COMRAM] PTR unsigned char 
  6782 ;;		 -> u8PassIsSetOrNotSet@u8LocDataAdd(1), main@PassStored(4), 
  6783 ;; Auto vars:     Size  Location     Type
  6784 ;;  ret             1    0        unsigned char 
  6785 ;; Return value:  Size  Location     Type
  6786 ;;                  1    wreg      unsigned char 
  6787 ;; Registers used:
  6788 ;;		wreg, fsr2l, fsr2h, status,2, status,0
  6789 ;; Tracked objects:
  6790 ;;		On entry : 0/0
  6791 ;;		On exit  : 0/0
  6792 ;;		Unchanged: 0/0
  6793 ;; Data sizes:     COMRAM   BANK0   BANK1   BANK2   BANK3   BANK4   BANK5   BANK6   BANK7   BANK8   BANK9  BANK10  BANK1
      +1  BANK12  BANK13  BANK14  BANK15
  6794 ;;      Params:         4       0       0       0       0       0       0       0       0       0       0       0       
      +0       0       0       0       0
  6795 ;;      Locals:         0       0       0       0       0       0       0       0       0       0       0       0       
      +0       0       0       0       0
  6796 ;;      Temps:          0       0       0       0       0       0       0       0       0       0       0       0       
      +0       0       0       0       0
  6797 ;;      Totals:         4       0       0       0       0       0       0       0       0       0       0       0       
      +0       0       0       0       0
  6798 ;;Total ram usage:        4 bytes
  6799 ;; Hardware stack levels used: 1
  6800 ;; Hardware stack levels required when called: 3
  6801 ;; This function calls:
  6802 ;;		Nothing
  6803 ;; This function is called by:
  6804 ;;		_u8PassIsSetOrNotSet
  6805 ;;		_vReadBlockOnEEPROM
  6806 ;; This function uses a non-reentrant model
  6807 ;;
  6808                           
  6809                           	psect	text19
  6810   002986                     __ptext19:
  6811                           	callstack 0
  6812   002986                     _eeprom_ReadDataByte:
  6813                           	callstack 26
  6814   002986                     
  6815                           ;MCAL_LAYER/EEPROM/hal_eeprom.c: 58:         if (((void*)0)==data){
  6816   002986  5033               	movf	eeprom_ReadDataByte@data^0,w,c
  6817   002988  1034               	iorwf	(eeprom_ReadDataByte@data+1)^0,w,c
  6818   00298A  A4D8               	btfss	status,2,c
  6819   00298C  EFCA  F014         	goto	u4791
  6820   002990  EFCC  F014         	goto	u4790
  6821   002994                     u4791:
  6822   002994  EFCE  F014         	goto	l5873
  6823   002998                     u4790:
  6824   002998                     
  6825                           ;MCAL_LAYER/EEPROM/hal_eeprom.c: 60:         }
  6826   002998  EFDE  F014         	goto	l296
  6827   00299C                     l5873:
  6828                           
  6829                           ;MCAL_LAYER/EEPROM/hal_eeprom.c: 63:       EEADRH=(uint8)((badd >>8)&0x03);
  6830   00299C  5032               	movf	(eeprom_ReadDataByte@badd+1)^0,w,c
  6831   00299E  0B03               	andlw	3
  6832   0029A0  6EAA               	movwf	170,c	;volatile
  6833   0029A2                     
  6834                           ;MCAL_LAYER/EEPROM/hal_eeprom.c: 64:       EEADR= (uint8)((badd)&0xFF);
  6835   0029A2  C031  FFA9         	movff	eeprom_ReadDataByte@badd,4009	;volatile
  6836   0029A6                     
  6837                           ;MCAL_LAYER/EEPROM/hal_eeprom.c: 66:       EECON1bits.EEPGD=0;
  6838   0029A6  9EA6               	bcf	166,7,c	;volsfr
  6839   0029A8                     
  6840                           ;MCAL_LAYER/EEPROM/hal_eeprom.c: 68:       EECON1bits.CFGS=0;
  6841   0029A8  9CA6               	bcf	166,6,c	;volsfr
  6842   0029AA                     
  6843                           ;MCAL_LAYER/EEPROM/hal_eeprom.c: 70:       EECON1bits.RD=1;
  6844   0029AA  80A6               	bsf	166,0,c	;volsfr
  6845   0029AC                     
  6846                           ;MCAL_LAYER/EEPROM/hal_eeprom.c: 71:       __nop();
  6847   0029AC  F000               	nop	
  6848   0029AE                     
  6849                           ;MCAL_LAYER/EEPROM/hal_eeprom.c: 72:       __nop();
  6850   0029AE  F000               	nop	
  6851   0029B0                     
  6852                           ;MCAL_LAYER/EEPROM/hal_eeprom.c: 73:       *data=EEDATA;
  6853   0029B0  C033  FFD9         	movff	eeprom_ReadDataByte@data,fsr2l
  6854   0029B4  C034  FFDA         	movff	eeprom_ReadDataByte@data+1,fsr2h
  6855   0029B8  CFA8 FFDF          	movff	4008,indf2	;volatile
  6856   0029BC                     l296:
  6857   0029BC  0012               	return		;funcret
  6858   0029BE                     __end_of_eeprom_ReadDataByte:
  6859                           	callstack 0
  6860                           
  6861 ;; *************** function _u8ComparePass *****************
  6862 ;; Defined at:
  6863 ;;		line 13 in file "menu.c"
  6864 ;; Parameters:    Size  Location     Type
  6865 ;;  Pass1           2    2[COMRAM] PTR const unsigned char 
  6866 ;;		 -> main@PassStored(4), 
  6867 ;;  Pass2           2    4[COMRAM] PTR const unsigned char 
  6868 ;;		 -> main@Pass_1959(4), 
  6869 ;;  Size            1    6[COMRAM] unsigned char 
  6870 ;; Auto vars:     Size  Location     Type
  6871 ;;  PassCounter     1   10[COMRAM] unsigned char 
  6872 ;;  PassFlag        1    9[COMRAM] unsigned char 
  6873 ;; Return value:  Size  Location     Type
  6874 ;;                  1    wreg      unsigned char 
  6875 ;; Registers used:
  6876 ;;		wreg, fsr1l, fsr1h, fsr2l, fsr2h, status,2, status,0
  6877 ;; Tracked objects:
  6878 ;;		On entry : 0/0
  6879 ;;		On exit  : 0/0
  6880 ;;		Unchanged: 0/0
  6881 ;; Data sizes:     COMRAM   BANK0   BANK1   BANK2   BANK3   BANK4   BANK5   BANK6   BANK7   BANK8   BANK9  BANK10  BANK1
      +1  BANK12  BANK13  BANK14  BANK15
  6882 ;;      Params:         5       0       0       0       0       0       0       0       0       0       0       0       
      +0       0       0       0       0
  6883 ;;      Locals:         2       0       0       0       0       0       0       0       0       0       0       0       
      +0       0       0       0       0
  6884 ;;      Temps:          2       0       0       0       0       0       0       0       0       0       0       0       
      +0       0       0       0       0
  6885 ;;      Totals:         9       0       0       0       0       0       0       0       0       0       0       0       
      +0       0       0       0       0
  6886 ;;Total ram usage:        9 bytes
  6887 ;; Hardware stack levels used: 1
  6888 ;; Hardware stack levels required when called: 3
  6889 ;; This function calls:
  6890 ;;		Nothing
  6891 ;; This function is called by:
  6892 ;;		_main
  6893 ;; This function uses a non-reentrant model
  6894 ;;
  6895                           
  6896                           	psect	text20
  6897   002636                     __ptext20:
  6898                           	callstack 0
  6899   002636                     _u8ComparePass:
  6900                           	callstack 27
  6901   002636                     
  6902                           ;menu.c: 14:     uint8 PassCounter=0;
  6903   002636  0E00               	movlw	0
  6904   002638  6E39               	movwf	u8ComparePass@PassCounter^0,c
  6905                           
  6906                           ;menu.c: 15:     uint8 PassFlag=(uint8)1;
  6907   00263A  0E01               	movlw	1
  6908   00263C  6E38               	movwf	u8ComparePass@PassFlag^0,c
  6909                           
  6910                           ;menu.c: 16:     while(PassCounter < Size ){
  6911   00263E  EF3B  F013         	goto	l6285
  6912   002642                     l6279:
  6913                           
  6914                           ;menu.c: 17:         if(*(Pass1+PassCounter) != *(Pass2+PassCounter)){
  6915   002642  5039               	movf	u8ComparePass@PassCounter^0,w,c
  6916   002644  2433               	addwf	u8ComparePass@Pass2^0,w,c
  6917   002646  6ED9               	movwf	fsr2l,c
  6918   002648  0E00               	movlw	0
  6919   00264A  2034               	addwfc	(u8ComparePass@Pass2+1)^0,w,c
  6920   00264C  6EDA               	movwf	fsr2h,c
  6921   00264E  5039               	movf	u8ComparePass@PassCounter^0,w,c
  6922   002650  2431               	addwf	u8ComparePass@Pass1^0,w,c
  6923   002652  6EE1               	movwf	fsr1l,c
  6924   002654  0E00               	movlw	0
  6925   002656  2032               	addwfc	(u8ComparePass@Pass1+1)^0,w,c
  6926   002658  6EE2               	movwf	fsr1h,c
  6927   00265A  50DE               	movf	postinc2,w,c
  6928   00265C  18E6               	xorwf	postinc1,w,c
  6929   00265E  B4D8               	btfsc	status,2,c
  6930   002660  EF34  F013         	goto	u5291
  6931   002664  EF36  F013         	goto	u5290
  6932   002668                     u5291:
  6933   002668  EF3A  F013         	goto	l6283
  6934   00266C                     u5290:
  6935   00266C                     
  6936                           ;menu.c: 18:             PassFlag=(uint8)0;
  6937   00266C  0E00               	movlw	0
  6938   00266E  6E38               	movwf	u8ComparePass@PassFlag^0,c
  6939                           
  6940                           ;menu.c: 19:             break;
  6941   002670  EF44  F013         	goto	l6287
  6942   002674                     l6283:
  6943                           
  6944                           ;menu.c: 21:         PassCounter++;
  6945   002674  2A39               	incf	u8ComparePass@PassCounter^0,f,c
  6946   002676                     l6285:
  6947                           
  6948                           ;menu.c: 16:     while(PassCounter < Size ){
  6949   002676  5035               	movf	u8ComparePass@Size^0,w,c
  6950   002678  5C39               	subwf	u8ComparePass@PassCounter^0,w,c
  6951   00267A  A0D8               	btfss	status,0,c
  6952   00267C  EF42  F013         	goto	u5301
  6953   002680  EF44  F013         	goto	u5300
  6954   002684                     u5301:
  6955   002684  EF21  F013         	goto	l6279
  6956   002688                     u5300:
  6957   002688                     l6287:
  6958                           
  6959                           ;menu.c: 23:     return PassFlag;
  6960   002688  5038               	movf	u8ComparePass@PassFlag^0,w,c
  6961   00268A  0012               	return		;funcret
  6962   00268C                     __end_of_u8ComparePass:
  6963                           	callstack 0
  6964                           
  6965 ;; *************** function _led_turn_on *****************
  6966 ;; Defined at:
  6967 ;;		line 38 in file "ECU_LAYER/led/ecu_led.c"
  6968 ;; Parameters:    Size  Location     Type
  6969 ;;  led             2   12[COMRAM] PTR const struct .
  6970 ;;		 -> BLOCK_Led(1), GUEST_Led(1), ADMIN_Led(1), 
  6971 ;; Auto vars:     Size  Location     Type
  6972 ;;  pin_config      1   15[COMRAM] struct .
  6973 ;;  ret             1    0        unsigned char 
  6974 ;; Return value:  Size  Location     Type
  6975 ;;                  1    wreg      unsigned char 
  6976 ;; Registers used:
  6977 ;;		wreg, fsr2l, fsr2h, status,2, status,0, prodl, prodh, cstack
  6978 ;; Tracked objects:
  6979 ;;		On entry : 0/0
  6980 ;;		On exit  : 0/0
  6981 ;;		Unchanged: 0/0
  6982 ;; Data sizes:     COMRAM   BANK0   BANK1   BANK2   BANK3   BANK4   BANK5   BANK6   BANK7   BANK8   BANK9  BANK10  BANK1
      +1  BANK12  BANK13  BANK14  BANK15
  6983 ;;      Params:         2       0       0       0       0       0       0       0       0       0       0       0       
      +0       0       0       0       0
  6984 ;;      Locals:         1       0       0       0       0       0       0       0       0       0       0       0       
      +0       0       0       0       0
  6985 ;;      Temps:          1       0       0       0       0       0       0       0       0       0       0       0       
      +0       0       0       0       0
  6986 ;;      Totals:         4       0       0       0       0       0       0       0       0       0       0       0       
      +0       0       0       0       0
  6987 ;;Total ram usage:        4 bytes
  6988 ;; Hardware stack levels used: 1
  6989 ;; Hardware stack levels required when called: 4
  6990 ;; This function calls:
  6991 ;;		_gpio_Pin_Write_Logic
  6992 ;; This function is called by:
  6993 ;;		_main
  6994 ;; This function uses a non-reentrant model
  6995 ;;
  6996                           
  6997                           	psect	text21
  6998   0020E2                     __ptext21:
  6999                           	callstack 0
  7000   0020E2                     _led_turn_on:
  7001                           	callstack 26
  7002   0020E2                     
  7003                           ;ECU_LAYER/led/ecu_led.c: 40:     if (((void*)0)==led){
  7004   0020E2  503B               	movf	led_turn_on@led^0,w,c
  7005   0020E4  103C               	iorwf	(led_turn_on@led+1)^0,w,c
  7006   0020E6  A4D8               	btfss	status,2,c
  7007   0020E8  EF78  F010         	goto	u5201
  7008   0020EC  EF7A  F010         	goto	u5200
  7009   0020F0                     u5201:
  7010   0020F0  EF7C  F010         	goto	l226
  7011   0020F4                     u5200:
  7012   0020F4                     
  7013                           ;ECU_LAYER/led/ecu_led.c: 42:     }
  7014   0020F4  EFAB  F010         	goto	l230
  7015   0020F8                     l226:
  7016                           
  7017                           ;ECU_LAYER/led/ecu_led.c: 44:     pin_config_t pin_config={.direction=GPIO_DIRECTION_OUT
      +                          PUT,
  7018   0020F8  C066  F03E         	movff	led_turn_on@F3052,led_turn_on@pin_config
  7019   0020FC  C03B  FFD9         	movff	led_turn_on@led,fsr2l
  7020   002100  C03C  FFDA         	movff	led_turn_on@led+1,fsr2h
  7021   002104  50DF               	movf	223,w,c
  7022   002106  0B0F               	andlw	15
  7023   002108  6E3D               	movwf	??_led_turn_on^0,c
  7024   00210A  503E               	movf	led_turn_on@pin_config^0,w,c
  7025   00210C  183D               	xorwf	??_led_turn_on^0,w,c
  7026   00210E  0BF8               	andlw	-8
  7027   002110  183D               	xorwf	??_led_turn_on^0,w,c
  7028   002112  6E3E               	movwf	led_turn_on@pin_config^0,c
  7029   002114  C03B  FFD9         	movff	led_turn_on@led,fsr2l
  7030   002118  C03C  FFDA         	movff	led_turn_on@led+1,fsr2h
  7031   00211C  38DF               	swapf	223,w,c
  7032   00211E  0B07               	andlw	7
  7033   002120  6E3D               	movwf	??_led_turn_on^0,c
  7034   002122  463D               	rlncf	??_led_turn_on^0,f,c
  7035   002124  463D               	rlncf	??_led_turn_on^0,f,c
  7036   002126  463D               	rlncf	??_led_turn_on^0,f,c
  7037   002128  503E               	movf	led_turn_on@pin_config^0,w,c
  7038   00212A  183D               	xorwf	??_led_turn_on^0,w,c
  7039   00212C  0BC7               	andlw	-57
  7040   00212E  183D               	xorwf	??_led_turn_on^0,w,c
  7041   002130  6E3E               	movwf	led_turn_on@pin_config^0,c
  7042   002132  9C3E               	bcf	led_turn_on@pin_config^0,6,c
  7043   002134  C03B  FFD9         	movff	led_turn_on@led,fsr2l
  7044   002138  C03C  FFDA         	movff	led_turn_on@led+1,fsr2h
  7045   00213C  AEDF               	btfss	indf2,7,c
  7046   00213E  D002               	bra	u5215
  7047   002140  8E3E               	bsf	led_turn_on@pin_config^0,7,c
  7048   002142  D001               	bra	u5217
  7049   002144                     u5215:
  7050   002144  9E3E               	bcf	led_turn_on@pin_config^0,7,c
  7051   002146                     u5217:
  7052   002146                     
  7053                           ;ECU_LAYER/led/ecu_led.c: 47:     gpio_Pin_Write_Logic(&pin_config,GPIO_HIGH);
  7054   002146  0E3E               	movlw	low led_turn_on@pin_config
  7055   002148  6E31               	movwf	gpio_Pin_Write_Logic@pin_config^0,c
  7056   00214A  0E00               	movlw	high led_turn_on@pin_config
  7057   00214C  6E32               	movwf	(gpio_Pin_Write_Logic@pin_config+1)^0,c
  7058   00214E  0E01               	movlw	1
  7059   002150  6E33               	movwf	gpio_Pin_Write_Logic@logic^0,c
  7060   002152  EC96  F00B         	call	_gpio_Pin_Write_Logic	;wreg free
  7061   002156                     l230:
  7062   002156  0012               	return		;funcret
  7063   002158                     __end_of_led_turn_on:
  7064                           	callstack 0
  7065                           
  7066 ;; *************** function _led_turn_off *****************
  7067 ;; Defined at:
  7068 ;;		line 59 in file "ECU_LAYER/led/ecu_led.c"
  7069 ;; Parameters:    Size  Location     Type
  7070 ;;  led             2   12[COMRAM] PTR const struct .
  7071 ;;		 -> BLOCK_Led(1), GUEST_Led(1), ADMIN_Led(1), 
  7072 ;; Auto vars:     Size  Location     Type
  7073 ;;  pin_config      1   15[COMRAM] struct .
  7074 ;;  ret             1    0        unsigned char 
  7075 ;; Return value:  Size  Location     Type
  7076 ;;                  1    wreg      unsigned char 
  7077 ;; Registers used:
  7078 ;;		wreg, fsr2l, fsr2h, status,2, status,0, prodl, prodh, cstack
  7079 ;; Tracked objects:
  7080 ;;		On entry : 0/0
  7081 ;;		On exit  : 0/0
  7082 ;;		Unchanged: 0/0
  7083 ;; Data sizes:     COMRAM   BANK0   BANK1   BANK2   BANK3   BANK4   BANK5   BANK6   BANK7   BANK8   BANK9  BANK10  BANK1
      +1  BANK12  BANK13  BANK14  BANK15
  7084 ;;      Params:         2       0       0       0       0       0       0       0       0       0       0       0       
      +0       0       0       0       0
  7085 ;;      Locals:         1       0       0       0       0       0       0       0       0       0       0       0       
      +0       0       0       0       0
  7086 ;;      Temps:          1       0       0       0       0       0       0       0       0       0       0       0       
      +0       0       0       0       0
  7087 ;;      Totals:         4       0       0       0       0       0       0       0       0       0       0       0       
      +0       0       0       0       0
  7088 ;;Total ram usage:        4 bytes
  7089 ;; Hardware stack levels used: 1
  7090 ;; Hardware stack levels required when called: 4
  7091 ;; This function calls:
  7092 ;;		_gpio_Pin_Write_Logic
  7093 ;; This function is called by:
  7094 ;;		_main
  7095 ;; This function uses a non-reentrant model
  7096 ;;
  7097                           
  7098                           	psect	text22
  7099   002158                     __ptext22:
  7100                           	callstack 0
  7101   002158                     _led_turn_off:
  7102                           	callstack 26
  7103   002158                     
  7104                           ;ECU_LAYER/led/ecu_led.c: 61:     if (((void*)0)==led){
  7105   002158  503B               	movf	led_turn_off@led^0,w,c
  7106   00215A  103C               	iorwf	(led_turn_off@led+1)^0,w,c
  7107   00215C  A4D8               	btfss	status,2,c
  7108   00215E  EFB3  F010         	goto	u5221
  7109   002162  EFB5  F010         	goto	u5220
  7110   002166                     u5221:
  7111   002166  EFB7  F010         	goto	l233
  7112   00216A                     u5220:
  7113   00216A                     
  7114                           ;ECU_LAYER/led/ecu_led.c: 63:     }
  7115   00216A  EFE6  F010         	goto	l237
  7116   00216E                     l233:
  7117                           
  7118                           ;ECU_LAYER/led/ecu_led.c: 65:     pin_config_t pin_config={.direction=GPIO_DIRECTION_OUT
      +                          PUT,
  7119   00216E  C065  F03E         	movff	led_turn_off@F3057,led_turn_off@pin_config
  7120   002172  C03B  FFD9         	movff	led_turn_off@led,fsr2l
  7121   002176  C03C  FFDA         	movff	led_turn_off@led+1,fsr2h
  7122   00217A  50DF               	movf	223,w,c
  7123   00217C  0B0F               	andlw	15
  7124   00217E  6E3D               	movwf	??_led_turn_off^0,c
  7125   002180  503E               	movf	led_turn_off@pin_config^0,w,c
  7126   002182  183D               	xorwf	??_led_turn_off^0,w,c
  7127   002184  0BF8               	andlw	-8
  7128   002186  183D               	xorwf	??_led_turn_off^0,w,c
  7129   002188  6E3E               	movwf	led_turn_off@pin_config^0,c
  7130   00218A  C03B  FFD9         	movff	led_turn_off@led,fsr2l
  7131   00218E  C03C  FFDA         	movff	led_turn_off@led+1,fsr2h
  7132   002192  38DF               	swapf	223,w,c
  7133   002194  0B07               	andlw	7
  7134   002196  6E3D               	movwf	??_led_turn_off^0,c
  7135   002198  463D               	rlncf	??_led_turn_off^0,f,c
  7136   00219A  463D               	rlncf	??_led_turn_off^0,f,c
  7137   00219C  463D               	rlncf	??_led_turn_off^0,f,c
  7138   00219E  503E               	movf	led_turn_off@pin_config^0,w,c
  7139   0021A0  183D               	xorwf	??_led_turn_off^0,w,c
  7140   0021A2  0BC7               	andlw	-57
  7141   0021A4  183D               	xorwf	??_led_turn_off^0,w,c
  7142   0021A6  6E3E               	movwf	led_turn_off@pin_config^0,c
  7143   0021A8  9C3E               	bcf	led_turn_off@pin_config^0,6,c
  7144   0021AA  C03B  FFD9         	movff	led_turn_off@led,fsr2l
  7145   0021AE  C03C  FFDA         	movff	led_turn_off@led+1,fsr2h
  7146   0021B2  AEDF               	btfss	indf2,7,c
  7147   0021B4  D002               	bra	u5235
  7148   0021B6  8E3E               	bsf	led_turn_off@pin_config^0,7,c
  7149   0021B8  D001               	bra	u5237
  7150   0021BA                     u5235:
  7151   0021BA  9E3E               	bcf	led_turn_off@pin_config^0,7,c
  7152   0021BC                     u5237:
  7153   0021BC                     
  7154                           ;ECU_LAYER/led/ecu_led.c: 68:     gpio_Pin_Write_Logic(&pin_config,GPIO_LOW);
  7155   0021BC  0E3E               	movlw	low led_turn_off@pin_config
  7156   0021BE  6E31               	movwf	gpio_Pin_Write_Logic@pin_config^0,c
  7157   0021C0  0E00               	movlw	high led_turn_off@pin_config
  7158   0021C2  6E32               	movwf	(gpio_Pin_Write_Logic@pin_config+1)^0,c
  7159   0021C4  0E00               	movlw	0
  7160   0021C6  6E33               	movwf	gpio_Pin_Write_Logic@logic^0,c
  7161   0021C8  EC96  F00B         	call	_gpio_Pin_Write_Logic	;wreg free
  7162   0021CC                     l237:
  7163   0021CC  0012               	return		;funcret
  7164   0021CE                     __end_of_led_turn_off:
  7165                           	callstack 0
  7166                           
  7167 ;; *************** function _led_initialize *****************
  7168 ;; Defined at:
  7169 ;;		line 16 in file "ECU_LAYER/led/ecu_led.c"
  7170 ;; Parameters:    Size  Location     Type
  7171 ;;  led             2   16[COMRAM] PTR const struct .
  7172 ;;		 -> BLOCK_Led(1), GUEST_Led(1), ADMIN_Led(1), 
  7173 ;; Auto vars:     Size  Location     Type
  7174 ;;  pin_config      1   19[COMRAM] struct .
  7175 ;;  ret             1    0        unsigned char 
  7176 ;; Return value:  Size  Location     Type
  7177 ;;                  1    wreg      unsigned char 
  7178 ;; Registers used:
  7179 ;;		wreg, fsr2l, fsr2h, status,2, status,0, prodl, prodh, cstack
  7180 ;; Tracked objects:
  7181 ;;		On entry : 0/0
  7182 ;;		On exit  : 0/0
  7183 ;;		Unchanged: 0/0
  7184 ;; Data sizes:     COMRAM   BANK0   BANK1   BANK2   BANK3   BANK4   BANK5   BANK6   BANK7   BANK8   BANK9  BANK10  BANK1
      +1  BANK12  BANK13  BANK14  BANK15
  7185 ;;      Params:         2       0       0       0       0       0       0       0       0       0       0       0       
      +0       0       0       0       0
  7186 ;;      Locals:         1       0       0       0       0       0       0       0       0       0       0       0       
      +0       0       0       0       0
  7187 ;;      Temps:          1       0       0       0       0       0       0       0       0       0       0       0       
      +0       0       0       0       0
  7188 ;;      Totals:         4       0       0       0       0       0       0       0       0       0       0       0       
      +0       0       0       0       0
  7189 ;;Total ram usage:        4 bytes
  7190 ;; Hardware stack levels used: 1
  7191 ;; Hardware stack levels required when called: 5
  7192 ;; This function calls:
  7193 ;;		_gpio_Pin_Intialize
  7194 ;; This function is called by:
  7195 ;;		_main
  7196 ;; This function uses a non-reentrant model
  7197 ;;
  7198                           
  7199                           	psect	text23
  7200   0022B6                     __ptext23:
  7201                           	callstack 0
  7202   0022B6                     _led_initialize:
  7203                           	callstack 25
  7204   0022B6                     
  7205                           ;ECU_LAYER/led/ecu_led.c: 18:     if (((void*)0)==led){
  7206   0022B6  503F               	movf	led_initialize@led^0,w,c
  7207   0022B8  1040               	iorwf	(led_initialize@led+1)^0,w,c
  7208   0022BA  A4D8               	btfss	status,2,c
  7209   0022BC  EF62  F011         	goto	u5181
  7210   0022C0  EF64  F011         	goto	u5180
  7211   0022C4                     u5181:
  7212   0022C4  EF66  F011         	goto	l219
  7213   0022C8                     u5180:
  7214   0022C8                     
  7215                           ;ECU_LAYER/led/ecu_led.c: 20:     }
  7216   0022C8  EF93  F011         	goto	l223
  7217   0022CC                     l219:
  7218                           
  7219                           ;ECU_LAYER/led/ecu_led.c: 22:     pin_config_t pin_config={.direction=GPIO_DIRECTION_OUT
      +                          PUT,
  7220   0022CC  C067  F042         	movff	led_initialize@F3047,led_initialize@pin_config
  7221   0022D0  C03F  FFD9         	movff	led_initialize@led,fsr2l
  7222   0022D4  C040  FFDA         	movff	led_initialize@led+1,fsr2h
  7223   0022D8  50DF               	movf	223,w,c
  7224   0022DA  0B0F               	andlw	15
  7225   0022DC  6E41               	movwf	??_led_initialize^0,c
  7226   0022DE  5042               	movf	led_initialize@pin_config^0,w,c
  7227   0022E0  1841               	xorwf	??_led_initialize^0,w,c
  7228   0022E2  0BF8               	andlw	-8
  7229   0022E4  1841               	xorwf	??_led_initialize^0,w,c
  7230   0022E6  6E42               	movwf	led_initialize@pin_config^0,c
  7231   0022E8  C03F  FFD9         	movff	led_initialize@led,fsr2l
  7232   0022EC  C040  FFDA         	movff	led_initialize@led+1,fsr2h
  7233   0022F0  38DF               	swapf	223,w,c
  7234   0022F2  0B07               	andlw	7
  7235   0022F4  6E41               	movwf	??_led_initialize^0,c
  7236   0022F6  4641               	rlncf	??_led_initialize^0,f,c
  7237   0022F8  4641               	rlncf	??_led_initialize^0,f,c
  7238   0022FA  4641               	rlncf	??_led_initialize^0,f,c
  7239   0022FC  5042               	movf	led_initialize@pin_config^0,w,c
  7240   0022FE  1841               	xorwf	??_led_initialize^0,w,c
  7241   002300  0BC7               	andlw	-57
  7242   002302  1841               	xorwf	??_led_initialize^0,w,c
  7243   002304  6E42               	movwf	led_initialize@pin_config^0,c
  7244   002306  9C42               	bcf	led_initialize@pin_config^0,6,c
  7245   002308  C03F  FFD9         	movff	led_initialize@led,fsr2l
  7246   00230C  C040  FFDA         	movff	led_initialize@led+1,fsr2h
  7247   002310  AEDF               	btfss	indf2,7,c
  7248   002312  D002               	bra	u5195
  7249   002314  8E42               	bsf	led_initialize@pin_config^0,7,c
  7250   002316  D001               	bra	u5197
  7251   002318                     u5195:
  7252   002318  9E42               	bcf	led_initialize@pin_config^0,7,c
  7253   00231A                     u5197:
  7254   00231A                     
  7255                           ;ECU_LAYER/led/ecu_led.c: 25:     gpio_Pin_Intialize(&pin_config);
  7256   00231A  0E42               	movlw	low led_initialize@pin_config
  7257   00231C  6E3B               	movwf	gpio_Pin_Intialize@pin_config^0,c
  7258   00231E  0E00               	movlw	high led_initialize@pin_config
  7259   002320  6E3C               	movwf	(gpio_Pin_Intialize@pin_config+1)^0,c
  7260   002322  EC37  F012         	call	_gpio_Pin_Intialize	;wreg free
  7261   002326                     l223:
  7262   002326  0012               	return		;funcret
  7263   002328                     __end_of_led_initialize:
  7264                           	callstack 0
  7265                           
  7266 ;; *************** function _lcd_4bit_initialize *****************
  7267 ;; Defined at:
  7268 ;;		line 25 in file "ECU_LAYER/char_lcd/ecu_char_lcd.c"
  7269 ;; Parameters:    Size  Location     Type
  7270 ;;  _lcd            2   20[COMRAM] PTR const struct .
  7271 ;;		 -> Lcd_Obj(6), 
  7272 ;; Auto vars:     Size  Location     Type
  7273 ;;  ret             1   25[COMRAM] unsigned char 
  7274 ;;  l_counter       1   24[COMRAM] unsigned char 
  7275 ;; Return value:  Size  Location     Type
  7276 ;;                  1    wreg      unsigned char 
  7277 ;; Registers used:
  7278 ;;		wreg, fsr2l, fsr2h, status,2, status,0, prodl, prodh, cstack
  7279 ;; Tracked objects:
  7280 ;;		On entry : 0/0
  7281 ;;		On exit  : 0/0
  7282 ;;		Unchanged: 0/0
  7283 ;; Data sizes:     COMRAM   BANK0   BANK1   BANK2   BANK3   BANK4   BANK5   BANK6   BANK7   BANK8   BANK9  BANK10  BANK1
      +1  BANK12  BANK13  BANK14  BANK15
  7284 ;;      Params:         2       0       0       0       0       0       0       0       0       0       0       0       
      +0       0       0       0       0
  7285 ;;      Locals:         2       0       0       0       0       0       0       0       0       0       0       0       
      +0       0       0       0       0
  7286 ;;      Temps:          2       0       0       0       0       0       0       0       0       0       0       0       
      +0       0       0       0       0
  7287 ;;      Totals:         6       0       0       0       0       0       0       0       0       0       0       0       
      +0       0       0       0       0
  7288 ;;Total ram usage:        6 bytes
  7289 ;; Hardware stack levels used: 1
  7290 ;; Hardware stack levels required when called: 6
  7291 ;; This function calls:
  7292 ;;		_gpio_Pin_Intialize
  7293 ;;		_lcd_4bit_send_command
  7294 ;; This function is called by:
  7295 ;;		_main
  7296 ;; This function uses a non-reentrant model
  7297 ;;
  7298                           
  7299                           	psect	text24
  7300   001858                     __ptext24:
  7301                           	callstack 0
  7302   001858                     _lcd_4bit_initialize:
  7303                           	callstack 24
  7304   001858                     
  7305                           ;ECU_LAYER/char_lcd/ecu_char_lcd.c: 27:         uint8 l_counter=0;
  7306   001858  0E00               	movlw	0
  7307   00185A  6E47               	movwf	lcd_4bit_initialize@l_counter^0,c
  7308   00185C                     
  7309                           ;ECU_LAYER/char_lcd/ecu_char_lcd.c: 28:         if (((void*)0)==_lcd){
  7310   00185C  5043               	movf	lcd_4bit_initialize@_lcd^0,w,c
  7311   00185E  1044               	iorwf	(lcd_4bit_initialize@_lcd+1)^0,w,c
  7312   001860  A4D8               	btfss	status,2,c
  7313   001862  EF35  F00C         	goto	u5081
  7314   001866  EF37  F00C         	goto	u5080
  7315   00186A                     u5081:
  7316   00186A  EF39  F00C         	goto	l6019
  7317   00186E                     u5080:
  7318   00186E                     
  7319                           ;ECU_LAYER/char_lcd/ecu_char_lcd.c: 30:         }
  7320   00186E  EFBB  F00C         	goto	l31
  7321   001872                     l6019:
  7322                           
  7323                           ;ECU_LAYER/char_lcd/ecu_char_lcd.c: 32:             ret=gpio_Pin_Intialize(&(_lcd->lcd_r
      +                          s));
  7324   001872  C043  F03B         	movff	lcd_4bit_initialize@_lcd,gpio_Pin_Intialize@pin_config
  7325   001876  C044  F03C         	movff	lcd_4bit_initialize@_lcd+1,gpio_Pin_Intialize@pin_config+1
  7326   00187A  EC37  F012         	call	_gpio_Pin_Intialize	;wreg free
  7327   00187E  6E48               	movwf	lcd_4bit_initialize@ret^0,c
  7328                           
  7329                           ;ECU_LAYER/char_lcd/ecu_char_lcd.c: 33:             ret=gpio_Pin_Intialize(&(_lcd->lcd_e
      +                          n));
  7330   001880  0E01               	movlw	1
  7331   001882  2443               	addwf	lcd_4bit_initialize@_lcd^0,w,c
  7332   001884  6E3B               	movwf	gpio_Pin_Intialize@pin_config^0,c
  7333   001886  0E00               	movlw	0
  7334   001888  2044               	addwfc	(lcd_4bit_initialize@_lcd+1)^0,w,c
  7335   00188A  6E3C               	movwf	(gpio_Pin_Intialize@pin_config+1)^0,c
  7336   00188C  EC37  F012         	call	_gpio_Pin_Intialize	;wreg free
  7337   001890  6E48               	movwf	lcd_4bit_initialize@ret^0,c
  7338   001892                     
  7339                           ;ECU_LAYER/char_lcd/ecu_char_lcd.c: 34:             for (l_counter=0;l_counter<4;l_count
      +                          er++){
  7340   001892  0E00               	movlw	0
  7341   001894  6E47               	movwf	lcd_4bit_initialize@l_counter^0,c
  7342   001896                     l6027:
  7343   001896  5047               	movf	lcd_4bit_initialize@l_counter^0,w,c
  7344   001898  2443               	addwf	lcd_4bit_initialize@_lcd^0,w,c
  7345   00189A  6E45               	movwf	??_lcd_4bit_initialize^0,c
  7346   00189C  0E00               	movlw	0
  7347   00189E  2044               	addwfc	(lcd_4bit_initialize@_lcd+1)^0,w,c
  7348   0018A0  6E46               	movwf	(??_lcd_4bit_initialize+1)^0,c
  7349   0018A2  0E02               	movlw	2
  7350   0018A4  2445               	addwf	??_lcd_4bit_initialize^0,w,c
  7351   0018A6  6E3B               	movwf	gpio_Pin_Intialize@pin_config^0,c
  7352   0018A8  0E00               	movlw	0
  7353   0018AA  2046               	addwfc	(??_lcd_4bit_initialize+1)^0,w,c
  7354   0018AC  6E3C               	movwf	(gpio_Pin_Intialize@pin_config+1)^0,c
  7355   0018AE  EC37  F012         	call	_gpio_Pin_Intialize	;wreg free
  7356   0018B2                     
  7357                           ;ECU_LAYER/char_lcd/ecu_char_lcd.c: 36:             }
  7358   0018B2  2A47               	incf	lcd_4bit_initialize@l_counter^0,f,c
  7359   0018B4  0E03               	movlw	3
  7360   0018B6  6447               	cpfsgt	lcd_4bit_initialize@l_counter^0,c
  7361   0018B8  EF60  F00C         	goto	u5091
  7362   0018BC  EF62  F00C         	goto	u5090
  7363   0018C0                     u5091:
  7364   0018C0  EF4B  F00C         	goto	l6027
  7365   0018C4                     u5090:
  7366   0018C4                     
  7367                           ;ECU_LAYER/char_lcd/ecu_char_lcd.c: 37:              _delay((unsigned long)((20)*(800000
      +                          0UL/4000.0)));
  7368   0018C4  0E34               	movlw	52
  7369   0018C6  6E45               	movwf	??_lcd_4bit_initialize^0,c
  7370   0018C8  0EF2               	movlw	242
  7371   0018CA                     u6177:
  7372   0018CA  2EE8               	decfsz	wreg,f,c
  7373   0018CC  D7FE               	bra	u6177
  7374   0018CE  2E45               	decfsz	??_lcd_4bit_initialize^0,f,c
  7375   0018D0  D7FC               	bra	u6177
  7376   0018D2  C043  F03F         	movff	lcd_4bit_initialize@_lcd,lcd_4bit_send_command@_lcd
  7377   0018D6  C044  F040         	movff	lcd_4bit_initialize@_lcd+1,lcd_4bit_send_command@_lcd+1
  7378   0018DA  0E38               	movlw	56
  7379   0018DC  6E41               	movwf	lcd_4bit_send_command@command^0,c
  7380   0018DE  EC94  F011         	call	_lcd_4bit_send_command	;wreg free
  7381   0018E2                     
  7382                           ;ECU_LAYER/char_lcd/ecu_char_lcd.c: 39:            _delay((unsigned long)((5)*(8000000UL
      +                          /4000.0)));
  7383   0018E2  0E0D               	movlw	13
  7384   0018E4  6E45               	movwf	??_lcd_4bit_initialize^0,c
  7385   0018E6  0EFC               	movlw	252
  7386   0018E8                     u6187:
  7387   0018E8  2EE8               	decfsz	wreg,f,c
  7388   0018EA  D7FE               	bra	u6187
  7389   0018EC  2E45               	decfsz	??_lcd_4bit_initialize^0,f,c
  7390   0018EE  D7FC               	bra	u6187
  7391   0018F0  C043  F03F         	movff	lcd_4bit_initialize@_lcd,lcd_4bit_send_command@_lcd
  7392   0018F4  C044  F040         	movff	lcd_4bit_initialize@_lcd+1,lcd_4bit_send_command@_lcd+1
  7393   0018F8  0E38               	movlw	56
  7394   0018FA  6E41               	movwf	lcd_4bit_send_command@command^0,c
  7395   0018FC  EC94  F011         	call	_lcd_4bit_send_command	;wreg free
  7396   001900                     
  7397                           ;ECU_LAYER/char_lcd/ecu_char_lcd.c: 41:            _delay((unsigned long)((150)*(8000000
      +                          UL/4000000.0)));
  7398   001900  0E64               	movlw	100
  7399   001902                     u6197:
  7400   001902  2EE8               	decfsz	wreg,f,c
  7401   001904  D7FE               	bra	u6197
  7402   001906  C043  F03F         	movff	lcd_4bit_initialize@_lcd,lcd_4bit_send_command@_lcd
  7403   00190A  C044  F040         	movff	lcd_4bit_initialize@_lcd+1,lcd_4bit_send_command@_lcd+1
  7404   00190E  0E38               	movlw	56
  7405   001910  6E41               	movwf	lcd_4bit_send_command@command^0,c
  7406   001912  EC94  F011         	call	_lcd_4bit_send_command	;wreg free
  7407   001916  C043  F03F         	movff	lcd_4bit_initialize@_lcd,lcd_4bit_send_command@_lcd
  7408   00191A  C044  F040         	movff	lcd_4bit_initialize@_lcd+1,lcd_4bit_send_command@_lcd+1
  7409   00191E  0E01               	movlw	1
  7410   001920  6E41               	movwf	lcd_4bit_send_command@command^0,c
  7411   001922  EC94  F011         	call	_lcd_4bit_send_command	;wreg free
  7412   001926  C043  F03F         	movff	lcd_4bit_initialize@_lcd,lcd_4bit_send_command@_lcd
  7413   00192A  C044  F040         	movff	lcd_4bit_initialize@_lcd+1,lcd_4bit_send_command@_lcd+1
  7414   00192E  0E02               	movlw	2
  7415   001930  6E41               	movwf	lcd_4bit_send_command@command^0,c
  7416   001932  EC94  F011         	call	_lcd_4bit_send_command	;wreg free
  7417   001936  C043  F03F         	movff	lcd_4bit_initialize@_lcd,lcd_4bit_send_command@_lcd
  7418   00193A  C044  F040         	movff	lcd_4bit_initialize@_lcd+1,lcd_4bit_send_command@_lcd+1
  7419   00193E  0E06               	movlw	6
  7420   001940  6E41               	movwf	lcd_4bit_send_command@command^0,c
  7421   001942  EC94  F011         	call	_lcd_4bit_send_command	;wreg free
  7422   001946  C043  F03F         	movff	lcd_4bit_initialize@_lcd,lcd_4bit_send_command@_lcd
  7423   00194A  C044  F040         	movff	lcd_4bit_initialize@_lcd+1,lcd_4bit_send_command@_lcd+1
  7424   00194E  0E0E               	movlw	14
  7425   001950  6E41               	movwf	lcd_4bit_send_command@command^0,c
  7426   001952  EC94  F011         	call	_lcd_4bit_send_command	;wreg free
  7427   001956  C043  F03F         	movff	lcd_4bit_initialize@_lcd,lcd_4bit_send_command@_lcd
  7428   00195A  C044  F040         	movff	lcd_4bit_initialize@_lcd+1,lcd_4bit_send_command@_lcd+1
  7429   00195E  0E28               	movlw	40
  7430   001960  6E41               	movwf	lcd_4bit_send_command@command^0,c
  7431   001962  EC94  F011         	call	_lcd_4bit_send_command	;wreg free
  7432   001966  C043  F03F         	movff	lcd_4bit_initialize@_lcd,lcd_4bit_send_command@_lcd
  7433   00196A  C044  F040         	movff	lcd_4bit_initialize@_lcd+1,lcd_4bit_send_command@_lcd+1
  7434   00196E  0E80               	movlw	128
  7435   001970  6E41               	movwf	lcd_4bit_send_command@command^0,c
  7436   001972  EC94  F011         	call	_lcd_4bit_send_command	;wreg free
  7437   001976                     l31:
  7438   001976  0012               	return		;funcret
  7439   001978                     __end_of_lcd_4bit_initialize:
  7440                           	callstack 0
  7441                           
  7442 ;; *************** function _lcd_4bit_send_command *****************
  7443 ;; Defined at:
  7444 ;;		line 65 in file "ECU_LAYER/char_lcd/ecu_char_lcd.c"
  7445 ;; Parameters:    Size  Location     Type
  7446 ;;  _lcd            2   16[COMRAM] PTR const struct .
  7447 ;;		 -> Lcd_Obj(6), 
  7448 ;;  command         1   18[COMRAM] unsigned char 
  7449 ;; Auto vars:     Size  Location     Type
  7450 ;;  ret             1   19[COMRAM] unsigned char 
  7451 ;; Return value:  Size  Location     Type
  7452 ;;                  1    wreg      unsigned char 
  7453 ;; Registers used:
  7454 ;;		wreg, fsr2l, fsr2h, status,2, status,0, prodl, prodh, cstack
  7455 ;; Tracked objects:
  7456 ;;		On entry : 0/0
  7457 ;;		On exit  : 0/0
  7458 ;;		Unchanged: 0/0
  7459 ;; Data sizes:     COMRAM   BANK0   BANK1   BANK2   BANK3   BANK4   BANK5   BANK6   BANK7   BANK8   BANK9  BANK10  BANK1
      +1  BANK12  BANK13  BANK14  BANK15
  7460 ;;      Params:         3       0       0       0       0       0       0       0       0       0       0       0       
      +0       0       0       0       0
  7461 ;;      Locals:         1       0       0       0       0       0       0       0       0       0       0       0       
      +0       0       0       0       0
  7462 ;;      Temps:          0       0       0       0       0       0       0       0       0       0       0       0       
      +0       0       0       0       0
  7463 ;;      Totals:         4       0       0       0       0       0       0       0       0       0       0       0       
      +0       0       0       0       0
  7464 ;;Total ram usage:        4 bytes
  7465 ;; Hardware stack levels used: 1
  7466 ;; Hardware stack levels required when called: 5
  7467 ;; This function calls:
  7468 ;;		_gpio_Pin_Write_Logic
  7469 ;;		_send_4bit_mode_enable
  7470 ;;		_send_data_4bit_mode
  7471 ;; This function is called by:
  7472 ;;		_lcd_4bit_initialize
  7473 ;;		_set_cursor_4bit_mode
  7474 ;;		_main
  7475 ;;		_vMenuOption
  7476 ;;		_lcd_4bit_send_custome_char
  7477 ;; This function uses a non-reentrant model
  7478 ;;
  7479                           
  7480                           	psect	text25
  7481   002328                     __ptext25:
  7482                           	callstack 0
  7483   002328                     _lcd_4bit_send_command:
  7484                           	callstack 23
  7485   002328                     
  7486                           ;ECU_LAYER/char_lcd/ecu_char_lcd.c: 67:         if (((void*)0)==_lcd){
  7487   002328  503F               	movf	lcd_4bit_send_command@_lcd^0,w,c
  7488   00232A  1040               	iorwf	(lcd_4bit_send_command@_lcd+1)^0,w,c
  7489   00232C  A4D8               	btfss	status,2,c
  7490   00232E  EF9B  F011         	goto	u4581
  7491   002332  EF9D  F011         	goto	u4580
  7492   002336                     u4581:
  7493   002336  EFA1  F011         	goto	l5647
  7494   00233A                     u4580:
  7495   00233A                     
  7496                           ;ECU_LAYER/char_lcd/ecu_char_lcd.c: 68:             ret=(Std_ReturnType)0x00;
  7497   00233A  0E00               	movlw	0
  7498   00233C  6E42               	movwf	lcd_4bit_send_command@ret^0,c
  7499                           
  7500                           ;ECU_LAYER/char_lcd/ecu_char_lcd.c: 69:         }
  7501   00233E  EFCB  F011         	goto	l5649
  7502   002342                     l5647:
  7503                           
  7504                           ;ECU_LAYER/char_lcd/ecu_char_lcd.c: 73:            ret=gpio_Pin_Write_Logic(&(_lcd->lcd_
      +                          rs),GPIO_LOW);
  7505   002342  C03F  F031         	movff	lcd_4bit_send_command@_lcd,gpio_Pin_Write_Logic@pin_config
  7506   002346  C040  F032         	movff	lcd_4bit_send_command@_lcd+1,gpio_Pin_Write_Logic@pin_config+1
  7507   00234A  0E00               	movlw	0
  7508   00234C  6E33               	movwf	gpio_Pin_Write_Logic@logic^0,c
  7509   00234E  EC96  F00B         	call	_gpio_Pin_Write_Logic	;wreg free
  7510   002352  6E42               	movwf	lcd_4bit_send_command@ret^0,c
  7511                           
  7512                           ;ECU_LAYER/char_lcd/ecu_char_lcd.c: 75:            ret=send_data_4bit_mode(_lcd,command>
      +                          >4);
  7513   002354  C03F  F03B         	movff	lcd_4bit_send_command@_lcd,send_data_4bit_mode@_lcd
  7514   002358  C040  F03C         	movff	lcd_4bit_send_command@_lcd+1,send_data_4bit_mode@_lcd+1
  7515   00235C  3841               	swapf	lcd_4bit_send_command@command^0,w,c
  7516   00235E  0B0F               	andlw	15
  7517   002360  6E3D               	movwf	send_data_4bit_mode@data^0,c
  7518   002362  EC30  F00F         	call	_send_data_4bit_mode	;wreg free
  7519   002366  6E42               	movwf	lcd_4bit_send_command@ret^0,c
  7520                           
  7521                           ;ECU_LAYER/char_lcd/ecu_char_lcd.c: 77:            ret=send_4bit_mode_enable(_lcd);
  7522   002368  C03F  F03B         	movff	lcd_4bit_send_command@_lcd,send_4bit_mode_enable@_lcd
  7523   00236C  C040  F03C         	movff	lcd_4bit_send_command@_lcd+1,send_4bit_mode_enable@_lcd+1
  7524   002370  EC99  F013         	call	_send_4bit_mode_enable	;wreg free
  7525   002374  6E42               	movwf	lcd_4bit_send_command@ret^0,c
  7526                           
  7527                           ;ECU_LAYER/char_lcd/ecu_char_lcd.c: 79:            ret=send_data_4bit_mode(_lcd,command)
      +                          ;
  7528   002376  C03F  F03B         	movff	lcd_4bit_send_command@_lcd,send_data_4bit_mode@_lcd
  7529   00237A  C040  F03C         	movff	lcd_4bit_send_command@_lcd+1,send_data_4bit_mode@_lcd+1
  7530   00237E  C041  F03D         	movff	lcd_4bit_send_command@command,send_data_4bit_mode@data
  7531   002382  EC30  F00F         	call	_send_data_4bit_mode	;wreg free
  7532   002386  6E42               	movwf	lcd_4bit_send_command@ret^0,c
  7533                           
  7534                           ;ECU_LAYER/char_lcd/ecu_char_lcd.c: 81:            ret=send_4bit_mode_enable(_lcd);
  7535   002388  C03F  F03B         	movff	lcd_4bit_send_command@_lcd,send_4bit_mode_enable@_lcd
  7536   00238C  C040  F03C         	movff	lcd_4bit_send_command@_lcd+1,send_4bit_mode_enable@_lcd+1
  7537   002390  EC99  F013         	call	_send_4bit_mode_enable	;wreg free
  7538   002394  6E42               	movwf	lcd_4bit_send_command@ret^0,c
  7539   002396                     l5649:
  7540                           
  7541                           ;ECU_LAYER/char_lcd/ecu_char_lcd.c: 83:         return ret;
  7542   002396  5042               	movf	lcd_4bit_send_command@ret^0,w,c
  7543   002398  0012               	return		;funcret
  7544   00239A                     __end_of_lcd_4bit_send_command:
  7545                           	callstack 0
  7546                           
  7547 ;; *************** function _send_data_4bit_mode *****************
  7548 ;; Defined at:
  7549 ;;		line 388 in file "ECU_LAYER/char_lcd/ecu_char_lcd.c"
  7550 ;; Parameters:    Size  Location     Type
  7551 ;;  _lcd            2   12[COMRAM] PTR const struct .
  7552 ;;		 -> Lcd_Obj(6), 
  7553 ;;  data            1   14[COMRAM] unsigned char 
  7554 ;; Auto vars:     Size  Location     Type
  7555 ;;  ret             1   15[COMRAM] unsigned char 
  7556 ;; Return value:  Size  Location     Type
  7557 ;;                  1    wreg      unsigned char 
  7558 ;; Registers used:
  7559 ;;		wreg, fsr2l, fsr2h, status,2, status,0, prodl, prodh, cstack
  7560 ;; Tracked objects:
  7561 ;;		On entry : 0/0
  7562 ;;		On exit  : 0/0
  7563 ;;		Unchanged: 0/0
  7564 ;; Data sizes:     COMRAM   BANK0   BANK1   BANK2   BANK3   BANK4   BANK5   BANK6   BANK7   BANK8   BANK9  BANK10  BANK1
      +1  BANK12  BANK13  BANK14  BANK15
  7565 ;;      Params:         3       0       0       0       0       0       0       0       0       0       0       0       
      +0       0       0       0       0
  7566 ;;      Locals:         1       0       0       0       0       0       0       0       0       0       0       0       
      +0       0       0       0       0
  7567 ;;      Temps:          0       0       0       0       0       0       0       0       0       0       0       0       
      +0       0       0       0       0
  7568 ;;      Totals:         4       0       0       0       0       0       0       0       0       0       0       0       
      +0       0       0       0       0
  7569 ;;Total ram usage:        4 bytes
  7570 ;; Hardware stack levels used: 1
  7571 ;; Hardware stack levels required when called: 4
  7572 ;; This function calls:
  7573 ;;		_gpio_Pin_Write_Logic
  7574 ;; This function is called by:
  7575 ;;		_lcd_4bit_send_command
  7576 ;;		_lcd_4bit_send_char_data
  7577 ;; This function uses a non-reentrant model
  7578 ;;
  7579                           
  7580                           	psect	text26
  7581   001E60                     __ptext26:
  7582                           	callstack 0
  7583   001E60                     _send_data_4bit_mode:
  7584                           	callstack 23
  7585   001E60                     
  7586                           ;ECU_LAYER/char_lcd/ecu_char_lcd.c: 390:         if (((void*)0)==_lcd){
  7587   001E60  503B               	movf	send_data_4bit_mode@_lcd^0,w,c
  7588   001E62  103C               	iorwf	(send_data_4bit_mode@_lcd+1)^0,w,c
  7589   001E64  A4D8               	btfss	status,2,c
  7590   001E66  EF37  F00F         	goto	u4361
  7591   001E6A  EF39  F00F         	goto	u4360
  7592   001E6E                     u4361:
  7593   001E6E  EF3D  F00F         	goto	l5531
  7594   001E72                     u4360:
  7595   001E72                     
  7596                           ;ECU_LAYER/char_lcd/ecu_char_lcd.c: 391:             ret=(Std_ReturnType)0x00;
  7597   001E72  0E00               	movlw	0
  7598   001E74  6E3E               	movwf	send_data_4bit_mode@ret^0,c
  7599                           
  7600                           ;ECU_LAYER/char_lcd/ecu_char_lcd.c: 392:         }
  7601   001E76  EF72  F00F         	goto	l5533
  7602   001E7A                     l5531:
  7603                           
  7604                           ;ECU_LAYER/char_lcd/ecu_char_lcd.c: 394:             ret=gpio_Pin_Write_Logic(&(_lcd->lc
      +                          d_data[0]),(data >> 0) & (uint8)0x01);
  7605   001E7A  0E02               	movlw	2
  7606   001E7C  243B               	addwf	send_data_4bit_mode@_lcd^0,w,c
  7607   001E7E  6E31               	movwf	gpio_Pin_Write_Logic@pin_config^0,c
  7608   001E80  0E00               	movlw	0
  7609   001E82  203C               	addwfc	(send_data_4bit_mode@_lcd+1)^0,w,c
  7610   001E84  6E32               	movwf	(gpio_Pin_Write_Logic@pin_config+1)^0,c
  7611   001E86  503D               	movf	send_data_4bit_mode@data^0,w,c
  7612   001E88  0B01               	andlw	1
  7613   001E8A  6E33               	movwf	gpio_Pin_Write_Logic@logic^0,c
  7614   001E8C  EC96  F00B         	call	_gpio_Pin_Write_Logic	;wreg free
  7615   001E90  6E3E               	movwf	send_data_4bit_mode@ret^0,c
  7616                           
  7617                           ;ECU_LAYER/char_lcd/ecu_char_lcd.c: 395:             ret=gpio_Pin_Write_Logic(&(_lcd->lc
      +                          d_data[1]),(data >> 1) & (uint8)0x01);
  7618   001E92  0E03               	movlw	3
  7619   001E94  243B               	addwf	send_data_4bit_mode@_lcd^0,w,c
  7620   001E96  6E31               	movwf	gpio_Pin_Write_Logic@pin_config^0,c
  7621   001E98  0E00               	movlw	0
  7622   001E9A  203C               	addwfc	(send_data_4bit_mode@_lcd+1)^0,w,c
  7623   001E9C  6E32               	movwf	(gpio_Pin_Write_Logic@pin_config+1)^0,c
  7624   001E9E  90D8               	bcf	status,0,c
  7625   001EA0  303D               	rrcf	send_data_4bit_mode@data^0,w,c
  7626   001EA2  0B01               	andlw	1
  7627   001EA4  6E33               	movwf	gpio_Pin_Write_Logic@logic^0,c
  7628   001EA6  EC96  F00B         	call	_gpio_Pin_Write_Logic	;wreg free
  7629   001EAA  6E3E               	movwf	send_data_4bit_mode@ret^0,c
  7630                           
  7631                           ;ECU_LAYER/char_lcd/ecu_char_lcd.c: 396:             ret=gpio_Pin_Write_Logic(&(_lcd->lc
      +                          d_data[2]),(data >> 2) & (uint8)0x01);
  7632   001EAC  0E04               	movlw	4
  7633   001EAE  243B               	addwf	send_data_4bit_mode@_lcd^0,w,c
  7634   001EB0  6E31               	movwf	gpio_Pin_Write_Logic@pin_config^0,c
  7635   001EB2  0E00               	movlw	0
  7636   001EB4  203C               	addwfc	(send_data_4bit_mode@_lcd+1)^0,w,c
  7637   001EB6  6E32               	movwf	(gpio_Pin_Write_Logic@pin_config+1)^0,c
  7638   001EB8  403D               	rrncf	send_data_4bit_mode@data^0,w,c
  7639   001EBA  42E8               	rrncf	wreg,f,c
  7640   001EBC  0B3F               	andlw	63
  7641   001EBE  0B01               	andlw	1
  7642   001EC0  6E33               	movwf	gpio_Pin_Write_Logic@logic^0,c
  7643   001EC2  EC96  F00B         	call	_gpio_Pin_Write_Logic	;wreg free
  7644   001EC6  6E3E               	movwf	send_data_4bit_mode@ret^0,c
  7645                           
  7646                           ;ECU_LAYER/char_lcd/ecu_char_lcd.c: 397:             ret=gpio_Pin_Write_Logic(&(_lcd->lc
      +                          d_data[3]),(data >> 3) & (uint8)0x01);
  7647   001EC8  0E05               	movlw	5
  7648   001ECA  243B               	addwf	send_data_4bit_mode@_lcd^0,w,c
  7649   001ECC  6E31               	movwf	gpio_Pin_Write_Logic@pin_config^0,c
  7650   001ECE  0E00               	movlw	0
  7651   001ED0  203C               	addwfc	(send_data_4bit_mode@_lcd+1)^0,w,c
  7652   001ED2  6E32               	movwf	(gpio_Pin_Write_Logic@pin_config+1)^0,c
  7653   001ED4  383D               	swapf	send_data_4bit_mode@data^0,w,c
  7654   001ED6  46E8               	rlncf	wreg,f,c
  7655   001ED8  0B1F               	andlw	31
  7656   001EDA  0B01               	andlw	1
  7657   001EDC  6E33               	movwf	gpio_Pin_Write_Logic@logic^0,c
  7658   001EDE  EC96  F00B         	call	_gpio_Pin_Write_Logic	;wreg free
  7659   001EE2  6E3E               	movwf	send_data_4bit_mode@ret^0,c
  7660   001EE4                     l5533:
  7661                           
  7662                           ;ECU_LAYER/char_lcd/ecu_char_lcd.c: 399:         return ret;
  7663   001EE4  503E               	movf	send_data_4bit_mode@ret^0,w,c
  7664   001EE6  0012               	return		;funcret
  7665   001EE8                     __end_of_send_data_4bit_mode:
  7666                           	callstack 0
  7667                           
  7668 ;; *************** function _send_4bit_mode_enable *****************
  7669 ;; Defined at:
  7670 ;;		line 402 in file "ECU_LAYER/char_lcd/ecu_char_lcd.c"
  7671 ;; Parameters:    Size  Location     Type
  7672 ;;  _lcd            2   12[COMRAM] PTR const struct .
  7673 ;;		 -> Lcd_Obj(6), 
  7674 ;; Auto vars:     Size  Location     Type
  7675 ;;  ret             1   14[COMRAM] unsigned char 
  7676 ;; Return value:  Size  Location     Type
  7677 ;;                  1    wreg      unsigned char 
  7678 ;; Registers used:
  7679 ;;		wreg, fsr2l, fsr2h, status,2, status,0, prodl, prodh, cstack
  7680 ;; Tracked objects:
  7681 ;;		On entry : 0/0
  7682 ;;		On exit  : 0/0
  7683 ;;		Unchanged: 0/0
  7684 ;; Data sizes:     COMRAM   BANK0   BANK1   BANK2   BANK3   BANK4   BANK5   BANK6   BANK7   BANK8   BANK9  BANK10  BANK1
      +1  BANK12  BANK13  BANK14  BANK15
  7685 ;;      Params:         2       0       0       0       0       0       0       0       0       0       0       0       
      +0       0       0       0       0
  7686 ;;      Locals:         1       0       0       0       0       0       0       0       0       0       0       0       
      +0       0       0       0       0
  7687 ;;      Temps:          0       0       0       0       0       0       0       0       0       0       0       0       
      +0       0       0       0       0
  7688 ;;      Totals:         3       0       0       0       0       0       0       0       0       0       0       0       
      +0       0       0       0       0
  7689 ;;Total ram usage:        3 bytes
  7690 ;; Hardware stack levels used: 1
  7691 ;; Hardware stack levels required when called: 4
  7692 ;; This function calls:
  7693 ;;		_gpio_Pin_Write_Logic
  7694 ;; This function is called by:
  7695 ;;		_lcd_4bit_send_command
  7696 ;;		_lcd_4bit_send_char_data
  7697 ;; This function uses a non-reentrant model
  7698 ;;
  7699                           
  7700                           	psect	text27
  7701   002732                     __ptext27:
  7702                           	callstack 0
  7703   002732                     _send_4bit_mode_enable:
  7704                           	callstack 23
  7705   002732                     
  7706                           ;ECU_LAYER/char_lcd/ecu_char_lcd.c: 404:         if (((void*)0)==_lcd){
  7707   002732  503B               	movf	send_4bit_mode_enable@_lcd^0,w,c
  7708   002734  103C               	iorwf	(send_4bit_mode_enable@_lcd+1)^0,w,c
  7709   002736  A4D8               	btfss	status,2,c
  7710   002738  EFA0  F013         	goto	u4371
  7711   00273C  EFA2  F013         	goto	u4370
  7712   002740                     u4371:
  7713   002740  EFA6  F013         	goto	l5543
  7714   002744                     u4370:
  7715   002744                     
  7716                           ;ECU_LAYER/char_lcd/ecu_char_lcd.c: 405:             ret=(Std_ReturnType)0x00;
  7717   002744  0E00               	movlw	0
  7718   002746  6E3D               	movwf	send_4bit_mode_enable@ret^0,c
  7719                           
  7720                           ;ECU_LAYER/char_lcd/ecu_char_lcd.c: 406:         }
  7721   002748  EFBF  F013         	goto	l5549
  7722   00274C                     l5543:
  7723   00274C  0E01               	movlw	1
  7724   00274E  243B               	addwf	send_4bit_mode_enable@_lcd^0,w,c
  7725   002750  6E31               	movwf	gpio_Pin_Write_Logic@pin_config^0,c
  7726   002752  0E00               	movlw	0
  7727   002754  203C               	addwfc	(send_4bit_mode_enable@_lcd+1)^0,w,c
  7728   002756  6E32               	movwf	(gpio_Pin_Write_Logic@pin_config+1)^0,c
  7729   002758  0E01               	movlw	1
  7730   00275A  6E33               	movwf	gpio_Pin_Write_Logic@logic^0,c
  7731   00275C  EC96  F00B         	call	_gpio_Pin_Write_Logic	;wreg free
  7732   002760                     
  7733                           ;ECU_LAYER/char_lcd/ecu_char_lcd.c: 409:             _delay((unsigned long)((5)*(8000000
      +                          UL/4000000.0)));
  7734   002760  0E03               	movlw	3
  7735   002762                     u6207:
  7736   002762  2EE8               	decfsz	wreg,f,c
  7737   002764  D7FE               	bra	u6207
  7738   002766  F000               	nop	
  7739   002768                     
  7740                           ;ECU_LAYER/char_lcd/ecu_char_lcd.c: 410:             ret=gpio_Pin_Write_Logic(&(_lcd->lc
      +                          d_en),GPIO_LOW);
  7741   002768  0E01               	movlw	1
  7742   00276A  243B               	addwf	send_4bit_mode_enable@_lcd^0,w,c
  7743   00276C  6E31               	movwf	gpio_Pin_Write_Logic@pin_config^0,c
  7744   00276E  0E00               	movlw	0
  7745   002770  203C               	addwfc	(send_4bit_mode_enable@_lcd+1)^0,w,c
  7746   002772  6E32               	movwf	(gpio_Pin_Write_Logic@pin_config+1)^0,c
  7747   002774  0E00               	movlw	0
  7748   002776  6E33               	movwf	gpio_Pin_Write_Logic@logic^0,c
  7749   002778  EC96  F00B         	call	_gpio_Pin_Write_Logic	;wreg free
  7750   00277C  6E3D               	movwf	send_4bit_mode_enable@ret^0,c
  7751   00277E                     l5549:
  7752                           
  7753                           ;ECU_LAYER/char_lcd/ecu_char_lcd.c: 412:         return ret;
  7754   00277E  503D               	movf	send_4bit_mode_enable@ret^0,w,c
  7755   002780  0012               	return		;funcret
  7756   002782                     __end_of_send_4bit_mode_enable:
  7757                           	callstack 0
  7758                           
  7759 ;; *************** function _keypad_initialize *****************
  7760 ;; Defined at:
  7761 ;;		line 24 in file "ECU_LAYER/key_pad/ecu_keypad.c"
  7762 ;; Parameters:    Size  Location     Type
  7763 ;;  _keypad_obj     2   16[COMRAM] PTR const struct .
  7764 ;;		 -> Keypad_Obj(8), 
  7765 ;; Auto vars:     Size  Location     Type
  7766 ;;  keypad_colum    1   21[COMRAM] unsigned char 
  7767 ;;  keypad_rows     1   20[COMRAM] unsigned char 
  7768 ;;  ret             1    0        unsigned char 
  7769 ;; Return value:  Size  Location     Type
  7770 ;;                  1    wreg      unsigned char 
  7771 ;; Registers used:
  7772 ;;		wreg, fsr2l, fsr2h, status,2, status,0, prodl, prodh, cstack
  7773 ;; Tracked objects:
  7774 ;;		On entry : 0/0
  7775 ;;		On exit  : 0/0
  7776 ;;		Unchanged: 0/0
  7777 ;; Data sizes:     COMRAM   BANK0   BANK1   BANK2   BANK3   BANK4   BANK5   BANK6   BANK7   BANK8   BANK9  BANK10  BANK1
      +1  BANK12  BANK13  BANK14  BANK15
  7778 ;;      Params:         2       0       0       0       0       0       0       0       0       0       0       0       
      +0       0       0       0       0
  7779 ;;      Locals:         2       0       0       0       0       0       0       0       0       0       0       0       
      +0       0       0       0       0
  7780 ;;      Temps:          2       0       0       0       0       0       0       0       0       0       0       0       
      +0       0       0       0       0
  7781 ;;      Totals:         6       0       0       0       0       0       0       0       0       0       0       0       
      +0       0       0       0       0
  7782 ;;Total ram usage:        6 bytes
  7783 ;; Hardware stack levels used: 1
  7784 ;; Hardware stack levels required when called: 5
  7785 ;; This function calls:
  7786 ;;		_gpio_Pin_Derction_Intialize
  7787 ;;		_gpio_Pin_Intialize
  7788 ;; This function is called by:
  7789 ;;		_main
  7790 ;; This function uses a non-reentrant model
  7791 ;;
  7792                           
  7793                           	psect	text28
  7794   00206A                     __ptext28:
  7795                           	callstack 0
  7796   00206A                     _keypad_initialize:
  7797                           	callstack 25
  7798   00206A                     
  7799                           ;ECU_LAYER/key_pad/ecu_keypad.c: 26:        uint8 keypad_rows=0,keypad_colums=0;
  7800   00206A  0E00               	movlw	0
  7801   00206C  6E43               	movwf	keypad_initialize@keypad_rows^0,c
  7802   00206E  0E00               	movlw	0
  7803   002070  6E44               	movwf	keypad_initialize@keypad_colums^0,c
  7804   002072                     
  7805                           ;ECU_LAYER/key_pad/ecu_keypad.c: 27:         if (((void*)0)==_keypad_obj){
  7806   002072  503F               	movf	keypad_initialize@_keypad_obj^0,w,c
  7807   002074  1040               	iorwf	(keypad_initialize@_keypad_obj+1)^0,w,c
  7808   002076  A4D8               	btfss	status,2,c
  7809   002078  EF40  F010         	goto	u5151
  7810   00207C  EF42  F010         	goto	u5150
  7811   002080                     u5151:
  7812   002080  EF44  F010         	goto	l6113
  7813   002084                     u5150:
  7814   002084                     
  7815                           ;ECU_LAYER/key_pad/ecu_keypad.c: 29:         }
  7816   002084  EF70  F010         	goto	l196
  7817   002088                     l6113:
  7818                           
  7819                           ;ECU_LAYER/key_pad/ecu_keypad.c: 31:             for (keypad_rows=0;keypad_rows<4;keypad
      +                          _rows++){
  7820   002088  0E00               	movlw	0
  7821   00208A  6E43               	movwf	keypad_initialize@keypad_rows^0,c
  7822   00208C                     l6119:
  7823   00208C  5043               	movf	keypad_initialize@keypad_rows^0,w,c
  7824   00208E  243F               	addwf	keypad_initialize@_keypad_obj^0,w,c
  7825   002090  6E3B               	movwf	gpio_Pin_Intialize@pin_config^0,c
  7826   002092  0E00               	movlw	0
  7827   002094  2040               	addwfc	(keypad_initialize@_keypad_obj+1)^0,w,c
  7828   002096  6E3C               	movwf	(gpio_Pin_Intialize@pin_config+1)^0,c
  7829   002098  EC37  F012         	call	_gpio_Pin_Intialize	;wreg free
  7830   00209C                     
  7831                           ;ECU_LAYER/key_pad/ecu_keypad.c: 33:             }
  7832   00209C  2A43               	incf	keypad_initialize@keypad_rows^0,f,c
  7833   00209E  0E03               	movlw	3
  7834   0020A0  6443               	cpfsgt	keypad_initialize@keypad_rows^0,c
  7835   0020A2  EF55  F010         	goto	u5161
  7836   0020A6  EF57  F010         	goto	u5160
  7837   0020AA                     u5161:
  7838   0020AA  EF46  F010         	goto	l6119
  7839   0020AE                     u5160:
  7840   0020AE                     
  7841                           ;ECU_LAYER/key_pad/ecu_keypad.c: 34:             for (keypad_colums=0;keypad_colums<4;ke
      +                          ypad_colums++){
  7842   0020AE  0E00               	movlw	0
  7843   0020B0  6E44               	movwf	keypad_initialize@keypad_colums^0,c
  7844   0020B2                     l6131:
  7845   0020B2  5044               	movf	keypad_initialize@keypad_colums^0,w,c
  7846   0020B4  243F               	addwf	keypad_initialize@_keypad_obj^0,w,c
  7847   0020B6  6E41               	movwf	??_keypad_initialize^0,c
  7848   0020B8  0E00               	movlw	0
  7849   0020BA  2040               	addwfc	(keypad_initialize@_keypad_obj+1)^0,w,c
  7850   0020BC  6E42               	movwf	(??_keypad_initialize+1)^0,c
  7851   0020BE  0E04               	movlw	4
  7852   0020C0  2441               	addwf	??_keypad_initialize^0,w,c
  7853   0020C2  6E31               	movwf	gpio_Pin_Derction_Intialize@pin_config^0,c
  7854   0020C4  0E00               	movlw	0
  7855   0020C6  2042               	addwfc	(??_keypad_initialize+1)^0,w,c
  7856   0020C8  6E32               	movwf	(gpio_Pin_Derction_Intialize@pin_config+1)^0,c
  7857   0020CA  ECF4  F00A         	call	_gpio_Pin_Derction_Intialize	;wreg free
  7858   0020CE                     
  7859                           ;ECU_LAYER/key_pad/ecu_keypad.c: 36:             }
  7860   0020CE  2A44               	incf	keypad_initialize@keypad_colums^0,f,c
  7861   0020D0  0E03               	movlw	3
  7862   0020D2  6444               	cpfsgt	keypad_initialize@keypad_colums^0,c
  7863   0020D4  EF6E  F010         	goto	u5171
  7864   0020D8  EF70  F010         	goto	u5170
  7865   0020DC                     u5171:
  7866   0020DC  EF59  F010         	goto	l6131
  7867   0020E0                     u5170:
  7868   0020E0                     l196:
  7869   0020E0  0012               	return		;funcret
  7870   0020E2                     __end_of_keypad_initialize:
  7871                           	callstack 0
  7872                           
  7873 ;; *************** function _Timer1_Init *****************
  7874 ;; Defined at:
  7875 ;;		line 22 in file "MCAL_LAYER/TIMER1/hal_timer1.c"
  7876 ;; Parameters:    Size  Location     Type
  7877 ;;  _timer          2    4[COMRAM] PTR const struct .
  7878 ;;		 -> Timer1Obj(5), 
  7879 ;; Auto vars:     Size  Location     Type
  7880 ;;  ret             1    0        unsigned char 
  7881 ;; Return value:  Size  Location     Type
  7882 ;;                  1    wreg      unsigned char 
  7883 ;; Registers used:
  7884 ;;		wreg, fsr2l, fsr2h, status,2, status,0, cstack
  7885 ;; Tracked objects:
  7886 ;;		On entry : 0/0
  7887 ;;		On exit  : 0/0
  7888 ;;		Unchanged: 0/0
  7889 ;; Data sizes:     COMRAM   BANK0   BANK1   BANK2   BANK3   BANK4   BANK5   BANK6   BANK7   BANK8   BANK9  BANK10  BANK1
      +1  BANK12  BANK13  BANK14  BANK15
  7890 ;;      Params:         2       0       0       0       0       0       0       0       0       0       0       0       
      +0       0       0       0       0
  7891 ;;      Locals:         0       0       0       0       0       0       0       0       0       0       0       0       
      +0       0       0       0       0
  7892 ;;      Temps:          2       0       0       0       0       0       0       0       0       0       0       0       
      +0       0       0       0       0
  7893 ;;      Totals:         4       0       0       0       0       0       0       0       0       0       0       0       
      +0       0       0       0       0
  7894 ;;Total ram usage:        4 bytes
  7895 ;; Hardware stack levels used: 1
  7896 ;; Hardware stack levels required when called: 4
  7897 ;; This function calls:
  7898 ;;		_timer1_oscillator_enable
  7899 ;;		_timer1_select_mode_timer_or_counter
  7900 ;;		_timer1_select_reg_mode
  7901 ;; This function is called by:
  7902 ;;		_main
  7903 ;; This function uses a non-reentrant model
  7904 ;;
  7905                           
  7906                           	psect	text29
  7907   001D0E                     __ptext29:
  7908                           	callstack 0
  7909   001D0E                     _Timer1_Init:
  7910                           	callstack 26
  7911   001D0E                     
  7912                           ;MCAL_LAYER/TIMER1/hal_timer1.c: 24:         if (((void*)0)==_timer){
  7913   001D0E  5033               	movf	Timer1_Init@_timer^0,w,c
  7914   001D10  1034               	iorwf	(Timer1_Init@_timer+1)^0,w,c
  7915   001D12  A4D8               	btfss	status,2,c
  7916   001D14  EF8E  F00E         	goto	u5251
  7917   001D18  EF90  F00E         	goto	u5250
  7918   001D1C                     u5251:
  7919   001D1C  EF92  F00E         	goto	l635
  7920   001D20                     u5250:
  7921   001D20                     
  7922                           ;MCAL_LAYER/TIMER1/hal_timer1.c: 26:         }
  7923   001D20  EFE2  F00E         	goto	l637
  7924   001D24                     l635:
  7925                           
  7926                           ;MCAL_LAYER/TIMER1/hal_timer1.c: 29:             (T1CONbits.TMR1ON=0);
  7927   001D24  90CD               	bcf	205,0,c	;volatile
  7928   001D26                     
  7929                           ;MCAL_LAYER/TIMER1/hal_timer1.c: 31:             (T1CONbits.T1CKPS=_timer->timer1_pre_sc
      +                          aler_val);
  7930   001D26  EE20 F004          	lfsr	2,4
  7931   001D2A  5033               	movf	Timer1_Init@_timer^0,w,c
  7932   001D2C  26D9               	addwf	fsr2l,f,c
  7933   001D2E  5034               	movf	(Timer1_Init@_timer+1)^0,w,c
  7934   001D30  22DA               	addwfc	fsr2h,f,c
  7935   001D32  50DF               	movf	223,w,c
  7936   001D34  0B03               	andlw	3
  7937   001D36  6E35               	movwf	??_Timer1_Init^0,c
  7938   001D38  3A35               	swapf	??_Timer1_Init^0,f,c
  7939   001D3A  50CD               	movf	205,w,c	;volatile
  7940   001D3C  1835               	xorwf	??_Timer1_Init^0,w,c
  7941   001D3E  0BCF               	andlw	-49
  7942   001D40  1835               	xorwf	??_Timer1_Init^0,w,c
  7943   001D42  6ECD               	movwf	205,c	;volatile
  7944   001D44                     
  7945                           ;MCAL_LAYER/TIMER1/hal_timer1.c: 34:             timer1_select_mode_timer_or_counter(_ti
      +                          mer);
  7946   001D44  C033  F031         	movff	Timer1_Init@_timer,timer1_select_mode_timer_or_counter@_timer
  7947   001D48  C034  F032         	movff	Timer1_Init@_timer+1,timer1_select_mode_timer_or_counter@_timer+1
  7948   001D4C  ECF6  F00F         	call	_timer1_select_mode_timer_or_counter	;wreg free
  7949   001D50                     
  7950                           ;MCAL_LAYER/TIMER1/hal_timer1.c: 36:             timer1_oscillator_enable(_timer);
  7951   001D50  C033  F031         	movff	Timer1_Init@_timer,timer1_oscillator_enable@_timer
  7952   001D54  C034  F032         	movff	Timer1_Init@_timer+1,timer1_oscillator_enable@_timer+1
  7953   001D58  EC47  F014         	call	_timer1_oscillator_enable	;wreg free
  7954   001D5C                     
  7955                           ;MCAL_LAYER/TIMER1/hal_timer1.c: 38:             timer1_select_reg_mode(_timer);
  7956   001D5C  C033  F031         	movff	Timer1_Init@_timer,timer1_select_reg_mode@_timer
  7957   001D60  C034  F032         	movff	Timer1_Init@_timer+1,timer1_select_reg_mode@_timer+1
  7958   001D64  EC28  F014         	call	_timer1_select_reg_mode	;wreg free
  7959   001D68                     
  7960                           ;MCAL_LAYER/TIMER1/hal_timer1.c: 40:             TMR1H=(_timer->preloaded_value) >>8;
  7961   001D68  EE20 F002          	lfsr	2,2
  7962   001D6C  5033               	movf	Timer1_Init@_timer^0,w,c
  7963   001D6E  26D9               	addwf	fsr2l,f,c
  7964   001D70  5034               	movf	(Timer1_Init@_timer+1)^0,w,c
  7965   001D72  22DA               	addwfc	fsr2h,f,c
  7966   001D74  CFDE F035          	movff	postinc2,??_Timer1_Init
  7967   001D78  CFDD F036          	movff	postdec2,??_Timer1_Init+1
  7968   001D7C  C036  F035         	movff	??_Timer1_Init+1,??_Timer1_Init
  7969   001D80  6A36               	clrf	(??_Timer1_Init+1)^0,c
  7970   001D82  5035               	movf	??_Timer1_Init^0,w,c
  7971   001D84  6ECF               	movwf	207,c	;volatile
  7972   001D86                     
  7973                           ;MCAL_LAYER/TIMER1/hal_timer1.c: 41:             TMR1L=(uint8)(_timer->preloaded_value);
  7974   001D86  EE20 F002          	lfsr	2,2
  7975   001D8A  5033               	movf	Timer1_Init@_timer^0,w,c
  7976   001D8C  26D9               	addwf	fsr2l,f,c
  7977   001D8E  5034               	movf	(Timer1_Init@_timer+1)^0,w,c
  7978   001D90  22DA               	addwfc	fsr2h,f,c
  7979   001D92  50DF               	movf	indf2,w,c
  7980   001D94  6ECE               	movwf	206,c	;volatile
  7981   001D96                     
  7982                           ;MCAL_LAYER/TIMER1/hal_timer1.c: 42:             preload_timer1=_timer->preloaded_value;
  7983   001D96  EE20 F002          	lfsr	2,2
  7984   001D9A  5033               	movf	Timer1_Init@_timer^0,w,c
  7985   001D9C  26D9               	addwf	fsr2l,f,c
  7986   001D9E  5034               	movf	(Timer1_Init@_timer+1)^0,w,c
  7987   001DA0  22DA               	addwfc	fsr2h,f,c
  7988   001DA2  CFDE F057          	movff	postinc2,_preload_timer1
  7989   001DA6  CFDD F058          	movff	postdec2,_preload_timer1+1
  7990   001DAA                     
  7991                           ;MCAL_LAYER/TIMER1/hal_timer1.c: 45:        (PIE1bits.TMR1IE=1);
  7992   001DAA  809D               	bsf	157,0,c	;volatile
  7993   001DAC                     
  7994                           ;MCAL_LAYER/TIMER1/hal_timer1.c: 46:        (PIR1bits.TMR1IF=0);
  7995   001DAC  909E               	bcf	158,0,c	;volatile
  7996   001DAE                     
  7997                           ;MCAL_LAYER/TIMER1/hal_timer1.c: 59:             (INTCONbits.GIE=1);
  7998   001DAE  8EF2               	bsf	242,7,c	;volatile
  7999   001DB0                     
  8000                           ;MCAL_LAYER/TIMER1/hal_timer1.c: 60:             (INTCONbits.PEIE=1);
  8001   001DB0  8CF2               	bsf	242,6,c	;volatile
  8002   001DB2                     
  8003                           ;MCAL_LAYER/TIMER1/hal_timer1.c: 62:            TIMER1_interruptHandler =_timer->TIMER1_
      +                          HandlerInterrupt;
  8004   001DB2  C033  FFD9         	movff	Timer1_Init@_timer,fsr2l
  8005   001DB6  C034  FFDA         	movff	Timer1_Init@_timer+1,fsr2h
  8006   001DBA  CFDE F059          	movff	postinc2,_TIMER1_interruptHandler
  8007   001DBE  CFDD F05A          	movff	postdec2,_TIMER1_interruptHandler+1
  8008   001DC2                     
  8009                           ;MCAL_LAYER/TIMER1/hal_timer1.c: 65:             (T1CONbits.TMR1ON=1);
  8010   001DC2  80CD               	bsf	205,0,c	;volatile
  8011   001DC4                     l637:
  8012   001DC4  0012               	return		;funcret
  8013   001DC6                     __end_of_Timer1_Init:
  8014                           	callstack 0
  8015                           
  8016 ;; *************** function _timer1_select_reg_mode *****************
  8017 ;; Defined at:
  8018 ;;		line 159 in file "MCAL_LAYER/TIMER1/hal_timer1.c"
  8019 ;; Parameters:    Size  Location     Type
  8020 ;;  _timer          2    2[COMRAM] PTR const struct .
  8021 ;;		 -> Timer1Obj(5), 
  8022 ;; Auto vars:     Size  Location     Type
  8023 ;;		None
  8024 ;; Return value:  Size  Location     Type
  8025 ;;                  1    wreg      void 
  8026 ;; Registers used:
  8027 ;;		wreg, fsr2l, fsr2h, status,2, status,0
  8028 ;; Tracked objects:
  8029 ;;		On entry : 0/0
  8030 ;;		On exit  : 0/0
  8031 ;;		Unchanged: 0/0
  8032 ;; Data sizes:     COMRAM   BANK0   BANK1   BANK2   BANK3   BANK4   BANK5   BANK6   BANK7   BANK8   BANK9  BANK10  BANK1
      +1  BANK12  BANK13  BANK14  BANK15
  8033 ;;      Params:         2       0       0       0       0       0       0       0       0       0       0       0       
      +0       0       0       0       0
  8034 ;;      Locals:         0       0       0       0       0       0       0       0       0       0       0       0       
      +0       0       0       0       0
  8035 ;;      Temps:          0       0       0       0       0       0       0       0       0       0       0       0       
      +0       0       0       0       0
  8036 ;;      Totals:         2       0       0       0       0       0       0       0       0       0       0       0       
      +0       0       0       0       0
  8037 ;;Total ram usage:        2 bytes
  8038 ;; Hardware stack levels used: 1
  8039 ;; Hardware stack levels required when called: 3
  8040 ;; This function calls:
  8041 ;;		Nothing
  8042 ;; This function is called by:
  8043 ;;		_Timer1_Init
  8044 ;; This function uses a non-reentrant model
  8045 ;;
  8046                           
  8047                           	psect	text30
  8048   002850                     __ptext30:
  8049                           	callstack 0
  8050   002850                     _timer1_select_reg_mode:
  8051                           	callstack 26
  8052   002850                     
  8053                           ;MCAL_LAYER/TIMER1/hal_timer1.c: 160:     if (0==_timer->timer1_mode_wr_reg){
  8054   002850  EE20 F004          	lfsr	2,4
  8055   002854  5031               	movf	timer1_select_reg_mode@_timer^0,w,c
  8056   002856  26D9               	addwf	fsr2l,f,c
  8057   002858  5032               	movf	(timer1_select_reg_mode@_timer+1)^0,w,c
  8058   00285A  22DA               	addwfc	fsr2h,f,c
  8059   00285C  BADF               	btfsc	indf2,5,c
  8060   00285E  EF33  F014         	goto	u4991
  8061   002862  EF35  F014         	goto	u4990
  8062   002866                     u4991:
  8063   002866  EF38  F014         	goto	l5975
  8064   00286A                     u4990:
  8065   00286A                     
  8066                           ;MCAL_LAYER/TIMER1/hal_timer1.c: 161:         (T1CONbits.RD16=0);
  8067   00286A  9ECD               	bcf	205,7,c	;volatile
  8068                           
  8069                           ;MCAL_LAYER/TIMER1/hal_timer1.c: 162:     }
  8070   00286C  EF46  F014         	goto	l679
  8071   002870                     l5975:
  8072   002870  EE20 F004          	lfsr	2,4
  8073   002874  5031               	movf	timer1_select_reg_mode@_timer^0,w,c
  8074   002876  26D9               	addwf	fsr2l,f,c
  8075   002878  5032               	movf	(timer1_select_reg_mode@_timer+1)^0,w,c
  8076   00287A  22DA               	addwfc	fsr2h,f,c
  8077   00287C  AADF               	btfss	indf2,5,c
  8078   00287E  EF43  F014         	goto	u5001
  8079   002882  EF45  F014         	goto	u5000
  8080   002886                     u5001:
  8081   002886  EF46  F014         	goto	l679
  8082   00288A                     u5000:
  8083   00288A                     
  8084                           ;MCAL_LAYER/TIMER1/hal_timer1.c: 164:         (T1CONbits.RD16=1);
  8085   00288A  8ECD               	bsf	205,7,c	;volatile
  8086   00288C                     l679:
  8087   00288C  0012               	return		;funcret
  8088   00288E                     __end_of_timer1_select_reg_mode:
  8089                           	callstack 0
  8090                           
  8091 ;; *************** function _timer1_select_mode_timer_or_counter *****************
  8092 ;; Defined at:
  8093 ;;		line 133 in file "MCAL_LAYER/TIMER1/hal_timer1.c"
  8094 ;; Parameters:    Size  Location     Type
  8095 ;;  _timer          2    2[COMRAM] PTR const struct .
  8096 ;;		 -> Timer1Obj(5), 
  8097 ;; Auto vars:     Size  Location     Type
  8098 ;;		None
  8099 ;; Return value:  Size  Location     Type
  8100 ;;                  1    wreg      void 
  8101 ;; Registers used:
  8102 ;;		wreg, fsr2l, fsr2h, status,2, status,0
  8103 ;; Tracked objects:
  8104 ;;		On entry : 0/0
  8105 ;;		On exit  : 0/0
  8106 ;;		Unchanged: 0/0
  8107 ;; Data sizes:     COMRAM   BANK0   BANK1   BANK2   BANK3   BANK4   BANK5   BANK6   BANK7   BANK8   BANK9  BANK10  BANK1
      +1  BANK12  BANK13  BANK14  BANK15
  8108 ;;      Params:         2       0       0       0       0       0       0       0       0       0       0       0       
      +0       0       0       0       0
  8109 ;;      Locals:         0       0       0       0       0       0       0       0       0       0       0       0       
      +0       0       0       0       0
  8110 ;;      Temps:          0       0       0       0       0       0       0       0       0       0       0       0       
      +0       0       0       0       0
  8111 ;;      Totals:         2       0       0       0       0       0       0       0       0       0       0       0       
      +0       0       0       0       0
  8112 ;;Total ram usage:        2 bytes
  8113 ;; Hardware stack levels used: 1
  8114 ;; Hardware stack levels required when called: 3
  8115 ;; This function calls:
  8116 ;;		Nothing
  8117 ;; This function is called by:
  8118 ;;		_Timer1_Init
  8119 ;; This function uses a non-reentrant model
  8120 ;;
  8121                           
  8122                           	psect	text31
  8123   001FEC                     __ptext31:
  8124                           	callstack 0
  8125   001FEC                     _timer1_select_mode_timer_or_counter:
  8126                           	callstack 26
  8127   001FEC                     
  8128                           ;MCAL_LAYER/TIMER1/hal_timer1.c: 134:     if (0==_timer->timer1_mode_timer_or_counter){
  8129   001FEC  EE20 F004          	lfsr	2,4
  8130   001FF0  5031               	movf	timer1_select_mode_timer_or_counter@_timer^0,w,c
  8131   001FF2  26D9               	addwf	fsr2l,f,c
  8132   001FF4  5032               	movf	(timer1_select_mode_timer_or_counter@_timer+1)^0,w,c
  8133   001FF6  22DA               	addwfc	fsr2h,f,c
  8134   001FF8  B4DF               	btfsc	indf2,2,c
  8135   001FFA  EF01  F010         	goto	u4931
  8136   001FFE  EF03  F010         	goto	u4930
  8137   002002                     u4931:
  8138   002002  EF06  F010         	goto	l5951
  8139   002006                     u4930:
  8140   002006                     
  8141                           ;MCAL_LAYER/TIMER1/hal_timer1.c: 135:         (T1CONbits.TMR1CS=0);
  8142   002006  92CD               	bcf	205,1,c	;volatile
  8143                           
  8144                           ;MCAL_LAYER/TIMER1/hal_timer1.c: 136:     }
  8145   002008  EF34  F010         	goto	l665
  8146   00200C                     l5951:
  8147   00200C  EE20 F004          	lfsr	2,4
  8148   002010  5031               	movf	timer1_select_mode_timer_or_counter@_timer^0,w,c
  8149   002012  26D9               	addwf	fsr2l,f,c
  8150   002014  5032               	movf	(timer1_select_mode_timer_or_counter@_timer+1)^0,w,c
  8151   002016  22DA               	addwfc	fsr2h,f,c
  8152   002018  A4DF               	btfss	indf2,2,c
  8153   00201A  EF11  F010         	goto	u4941
  8154   00201E  EF13  F010         	goto	u4940
  8155   002022                     u4941:
  8156   002022  EF34  F010         	goto	l665
  8157   002026                     u4940:
  8158   002026                     
  8159                           ;MCAL_LAYER/TIMER1/hal_timer1.c: 138:         (T1CONbits.TMR1CS=1);
  8160   002026  82CD               	bsf	205,1,c	;volatile
  8161   002028                     
  8162                           ;MCAL_LAYER/TIMER1/hal_timer1.c: 139:         if (0 ==_timer->timer1_counter_mode_sync){
  8163   002028  EE20 F004          	lfsr	2,4
  8164   00202C  5031               	movf	timer1_select_mode_timer_or_counter@_timer^0,w,c
  8165   00202E  26D9               	addwf	fsr2l,f,c
  8166   002030  5032               	movf	(timer1_select_mode_timer_or_counter@_timer+1)^0,w,c
  8167   002032  22DA               	addwfc	fsr2h,f,c
  8168   002034  B6DF               	btfsc	indf2,3,c
  8169   002036  EF1F  F010         	goto	u4951
  8170   00203A  EF21  F010         	goto	u4950
  8171   00203E                     u4951:
  8172   00203E  EF24  F010         	goto	l5959
  8173   002042                     u4950:
  8174   002042                     
  8175                           ;MCAL_LAYER/TIMER1/hal_timer1.c: 140:             (T1CONbits.T1SYNC=0);
  8176   002042  94CD               	bcf	205,2,c	;volatile
  8177                           
  8178                           ;MCAL_LAYER/TIMER1/hal_timer1.c: 141:         }
  8179   002044  EF34  F010         	goto	l665
  8180   002048                     l5959:
  8181   002048  EE20 F004          	lfsr	2,4
  8182   00204C  5031               	movf	timer1_select_mode_timer_or_counter@_timer^0,w,c
  8183   00204E  26D9               	addwf	fsr2l,f,c
  8184   002050  5032               	movf	(timer1_select_mode_timer_or_counter@_timer+1)^0,w,c
  8185   002052  22DA               	addwfc	fsr2h,f,c
  8186   002054  A6DF               	btfss	indf2,3,c
  8187   002056  EF2F  F010         	goto	u4961
  8188   00205A  EF31  F010         	goto	u4960
  8189   00205E                     u4961:
  8190   00205E  EF34  F010         	goto	l664
  8191   002062                     u4960:
  8192   002062                     
  8193                           ;MCAL_LAYER/TIMER1/hal_timer1.c: 143:             (T1CONbits.T1SYNC=1);
  8194   002062  84CD               	bsf	205,2,c	;volatile
  8195                           
  8196                           ;MCAL_LAYER/TIMER1/hal_timer1.c: 144:         }
  8197   002064  EF34  F010         	goto	l665
  8198   002068                     l664:
  8199   002068                     l665:
  8200   002068  0012               	return		;funcret
  8201   00206A                     __end_of_timer1_select_mode_timer_or_counter:
  8202                           	callstack 0
  8203                           
  8204 ;; *************** function _timer1_oscillator_enable *****************
  8205 ;; Defined at:
  8206 ;;		line 149 in file "MCAL_LAYER/TIMER1/hal_timer1.c"
  8207 ;; Parameters:    Size  Location     Type
  8208 ;;  _timer          2    2[COMRAM] PTR const struct .
  8209 ;;		 -> Timer1Obj(5), 
  8210 ;; Auto vars:     Size  Location     Type
  8211 ;;		None
  8212 ;; Return value:  Size  Location     Type
  8213 ;;                  1    wreg      void 
  8214 ;; Registers used:
  8215 ;;		wreg, fsr2l, fsr2h, status,2, status,0
  8216 ;; Tracked objects:
  8217 ;;		On entry : 0/0
  8218 ;;		On exit  : 0/0
  8219 ;;		Unchanged: 0/0
  8220 ;; Data sizes:     COMRAM   BANK0   BANK1   BANK2   BANK3   BANK4   BANK5   BANK6   BANK7   BANK8   BANK9  BANK10  BANK1
      +1  BANK12  BANK13  BANK14  BANK15
  8221 ;;      Params:         2       0       0       0       0       0       0       0       0       0       0       0       
      +0       0       0       0       0
  8222 ;;      Locals:         0       0       0       0       0       0       0       0       0       0       0       0       
      +0       0       0       0       0
  8223 ;;      Temps:          0       0       0       0       0       0       0       0       0       0       0       0       
      +0       0       0       0       0
  8224 ;;      Totals:         2       0       0       0       0       0       0       0       0       0       0       0       
      +0       0       0       0       0
  8225 ;;Total ram usage:        2 bytes
  8226 ;; Hardware stack levels used: 1
  8227 ;; Hardware stack levels required when called: 3
  8228 ;; This function calls:
  8229 ;;		Nothing
  8230 ;; This function is called by:
  8231 ;;		_Timer1_Init
  8232 ;; This function uses a non-reentrant model
  8233 ;;
  8234                           
  8235                           	psect	text32
  8236   00288E                     __ptext32:
  8237                           	callstack 0
  8238   00288E                     _timer1_oscillator_enable:
  8239                           	callstack 26
  8240   00288E                     
  8241                           ;MCAL_LAYER/TIMER1/hal_timer1.c: 150:     if (1==_timer->timer1_oscillator_enable){
  8242   00288E  EE20 F004          	lfsr	2,4
  8243   002892  5031               	movf	timer1_oscillator_enable@_timer^0,w,c
  8244   002894  26D9               	addwf	fsr2l,f,c
  8245   002896  5032               	movf	(timer1_oscillator_enable@_timer+1)^0,w,c
  8246   002898  22DA               	addwfc	fsr2h,f,c
  8247   00289A  A8DF               	btfss	indf2,4,c
  8248   00289C  EF52  F014         	goto	u4971
  8249   0028A0  EF54  F014         	goto	u4970
  8250   0028A4                     u4971:
  8251   0028A4  EF57  F014         	goto	l5967
  8252   0028A8                     u4970:
  8253   0028A8                     
  8254                           ;MCAL_LAYER/TIMER1/hal_timer1.c: 151:         (T1CONbits.T1OSCEN=1);
  8255   0028A8  86CD               	bsf	205,3,c	;volatile
  8256                           
  8257                           ;MCAL_LAYER/TIMER1/hal_timer1.c: 152:     }
  8258   0028AA  EF65  F014         	goto	l672
  8259   0028AE                     l5967:
  8260   0028AE  EE20 F004          	lfsr	2,4
  8261   0028B2  5031               	movf	timer1_oscillator_enable@_timer^0,w,c
  8262   0028B4  26D9               	addwf	fsr2l,f,c
  8263   0028B6  5032               	movf	(timer1_oscillator_enable@_timer+1)^0,w,c
  8264   0028B8  22DA               	addwfc	fsr2h,f,c
  8265   0028BA  B8DF               	btfsc	indf2,4,c
  8266   0028BC  EF62  F014         	goto	u4981
  8267   0028C0  EF64  F014         	goto	u4980
  8268   0028C4                     u4981:
  8269   0028C4  EF65  F014         	goto	l672
  8270   0028C8                     u4980:
  8271   0028C8                     
  8272                           ;MCAL_LAYER/TIMER1/hal_timer1.c: 154:         (T1CONbits.T1OSCEN=0);
  8273   0028C8  96CD               	bcf	205,3,c	;volatile
  8274   0028CA                     l672:
  8275   0028CA  0012               	return		;funcret
  8276   0028CC                     __end_of_timer1_oscillator_enable:
  8277                           	callstack 0
  8278                           
  8279 ;; *************** function _Timer1_DeInit *****************
  8280 ;; Defined at:
  8281 ;;		line 77 in file "MCAL_LAYER/TIMER1/hal_timer1.c"
  8282 ;; Parameters:    Size  Location     Type
  8283 ;;  _timer          2    2[COMRAM] PTR const struct .
  8284 ;;		 -> Timer1Obj(5), 
  8285 ;; Auto vars:     Size  Location     Type
  8286 ;;  ret             1    0        unsigned char 
  8287 ;; Return value:  Size  Location     Type
  8288 ;;                  1    wreg      unsigned char 
  8289 ;; Registers used:
  8290 ;;		wreg, status,2, status,0
  8291 ;; Tracked objects:
  8292 ;;		On entry : 0/0
  8293 ;;		On exit  : 0/0
  8294 ;;		Unchanged: 0/0
  8295 ;; Data sizes:     COMRAM   BANK0   BANK1   BANK2   BANK3   BANK4   BANK5   BANK6   BANK7   BANK8   BANK9  BANK10  BANK1
      +1  BANK12  BANK13  BANK14  BANK15
  8296 ;;      Params:         2       0       0       0       0       0       0       0       0       0       0       0       
      +0       0       0       0       0
  8297 ;;      Locals:         0       0       0       0       0       0       0       0       0       0       0       0       
      +0       0       0       0       0
  8298 ;;      Temps:          0       0       0       0       0       0       0       0       0       0       0       0       
      +0       0       0       0       0
  8299 ;;      Totals:         2       0       0       0       0       0       0       0       0       0       0       0       
      +0       0       0       0       0
  8300 ;;Total ram usage:        2 bytes
  8301 ;; Hardware stack levels used: 1
  8302 ;; Hardware stack levels required when called: 3
  8303 ;; This function calls:
  8304 ;;		Nothing
  8305 ;; This function is called by:
  8306 ;;		_main
  8307 ;; This function uses a non-reentrant model
  8308 ;;
  8309                           
  8310                           	psect	text33
  8311   002A94                     __ptext33:
  8312                           	callstack 0
  8313   002A94                     _Timer1_DeInit:
  8314                           	callstack 27
  8315   002A94                     
  8316                           ;MCAL_LAYER/TIMER1/hal_timer1.c: 79:         if (((void*)0)==_timer){
  8317   002A94  5031               	movf	Timer1_DeInit@_timer^0,w,c
  8318   002A96  1032               	iorwf	(Timer1_DeInit@_timer+1)^0,w,c
  8319   002A98  A4D8               	btfss	status,2,c
  8320   002A9A  EF51  F015         	goto	u5261
  8321   002A9E  EF53  F015         	goto	u5260
  8322   002AA2                     u5261:
  8323   002AA2  EF55  F015         	goto	l640
  8324   002AA6                     u5260:
  8325   002AA6                     
  8326                           ;MCAL_LAYER/TIMER1/hal_timer1.c: 81:         }
  8327   002AA6  EF57  F015         	goto	l642
  8328   002AAA                     l640:
  8329                           
  8330                           ;MCAL_LAYER/TIMER1/hal_timer1.c: 84:             (T1CONbits.TMR1ON=0);
  8331   002AAA  90CD               	bcf	205,0,c	;volatile
  8332                           
  8333                           ;MCAL_LAYER/TIMER1/hal_timer1.c: 86:    (PIE1bits.TMR1IE=0);
  8334   002AAC  909D               	bcf	157,0,c	;volatile
  8335   002AAE                     l642:
  8336   002AAE  0012               	return		;funcret
  8337   002AB0                     __end_of_Timer1_DeInit:
  8338                           	callstack 0
  8339                           
  8340 ;; *************** function _SPI_Init *****************
  8341 ;; Defined at:
  8342 ;;		line 19 in file "MCAL_LAYER/SPI/hal_spi.c"
  8343 ;; Parameters:    Size  Location     Type
  8344 ;;  _spi_obj        2   27[COMRAM] PTR const struct .
  8345 ;;		 -> SPIObject(4), 
  8346 ;; Auto vars:     Size  Location     Type
  8347 ;;  ret             1    0        unsigned char 
  8348 ;; Return value:  Size  Location     Type
  8349 ;;                  1    wreg      unsigned char 
  8350 ;; Registers used:
  8351 ;;		wreg, fsr2l, fsr2h, status,2, status,0, prodl, prodh, cstack
  8352 ;; Tracked objects:
  8353 ;;		On entry : 0/0
  8354 ;;		On exit  : 0/0
  8355 ;;		Unchanged: 0/0
  8356 ;; Data sizes:     COMRAM   BANK0   BANK1   BANK2   BANK3   BANK4   BANK5   BANK6   BANK7   BANK8   BANK9  BANK10  BANK1
      +1  BANK12  BANK13  BANK14  BANK15
  8357 ;;      Params:         2       0       0       0       0       0       0       0       0       0       0       0       
      +0       0       0       0       0
  8358 ;;      Locals:         0       0       0       0       0       0       0       0       0       0       0       0       
      +0       0       0       0       0
  8359 ;;      Temps:          1       0       0       0       0       0       0       0       0       0       0       0       
      +0       0       0       0       0
  8360 ;;      Totals:         3       0       0       0       0       0       0       0       0       0       0       0       
      +0       0       0       0       0
  8361 ;;Total ram usage:        3 bytes
  8362 ;; Hardware stack levels used: 1
  8363 ;; Hardware stack levels required when called: 6
  8364 ;; This function calls:
  8365 ;;		_SPI_Select_mode_and_pin_initialize
  8366 ;;		_SPI_Select_the_Sampling_receiving
  8367 ;;		_SPI_Select_the_clock_phase
  8368 ;;		_SPI_Select_the_clock_polarity
  8369 ;;		_SPI_configure_the_interrupt
  8370 ;; This function is called by:
  8371 ;;		_main
  8372 ;; This function uses a non-reentrant model
  8373 ;;
  8374                           
  8375                           	psect	text34
  8376   00239A                     __ptext34:
  8377                           	callstack 0
  8378   00239A                     _SPI_Init:
  8379                           	callstack 24
  8380   00239A                     
  8381                           ;MCAL_LAYER/SPI/hal_spi.c: 21:         if (((void*)0)==_spi_obj){
  8382   00239A  504A               	movf	SPI_Init@_spi_obj^0,w,c
  8383   00239C  104B               	iorwf	(SPI_Init@_spi_obj+1)^0,w,c
  8384   00239E  A4D8               	btfss	status,2,c
  8385   0023A0  EFD4  F011         	goto	u5241
  8386   0023A4  EFD6  F011         	goto	u5240
  8387   0023A8                     u5241:
  8388   0023A8  EFD8  F011         	goto	l458
  8389   0023AC                     u5240:
  8390   0023AC                     
  8391                           ;MCAL_LAYER/SPI/hal_spi.c: 23:         }
  8392   0023AC  EF05  F012         	goto	l460
  8393   0023B0                     l458:
  8394                           
  8395                           ;MCAL_LAYER/SPI/hal_spi.c: 26:             (SSPCON1bits.SSPEN=0);
  8396   0023B0  9AC6               	bcf	198,5,c	;volatile
  8397   0023B2                     
  8398                           ;MCAL_LAYER/SPI/hal_spi.c: 28:             SPI_Select_mode_and_pin_initialize(_spi_obj);
  8399   0023B2  C04A  F03F         	movff	SPI_Init@_spi_obj,SPI_Select_mode_and_pin_initialize@_spi_obj
  8400   0023B6  C04B  F040         	movff	SPI_Init@_spi_obj+1,SPI_Select_mode_and_pin_initialize@_spi_obj+1
  8401   0023BA  ECBC  F00C         	call	_SPI_Select_mode_and_pin_initialize	;wreg free
  8402   0023BE                     
  8403                           ;MCAL_LAYER/SPI/hal_spi.c: 29:             (SSPCON1bits.SSPM=_spi_obj->SPI_mode);
  8404   0023BE  EE20 F002          	lfsr	2,2
  8405   0023C2  504A               	movf	SPI_Init@_spi_obj^0,w,c
  8406   0023C4  26D9               	addwf	fsr2l,f,c
  8407   0023C6  504B               	movf	(SPI_Init@_spi_obj+1)^0,w,c
  8408   0023C8  22DA               	addwfc	fsr2h,f,c
  8409   0023CA  50DF               	movf	indf2,w,c
  8410   0023CC  6E4C               	movwf	??_SPI_Init^0,c
  8411   0023CE  50C6               	movf	198,w,c	;volatile
  8412   0023D0  184C               	xorwf	??_SPI_Init^0,w,c
  8413   0023D2  0BF0               	andlw	-16
  8414   0023D4  184C               	xorwf	??_SPI_Init^0,w,c
  8415   0023D6  6EC6               	movwf	198,c	;volatile
  8416   0023D8                     
  8417                           ;MCAL_LAYER/SPI/hal_spi.c: 31:            SPI_Select_the_clock_polarity(_spi_obj);
  8418   0023D8  C04A  F031         	movff	SPI_Init@_spi_obj,SPI_Select_the_clock_polarity@_spi_obj
  8419   0023DC  C04B  F032         	movff	SPI_Init@_spi_obj+1,SPI_Select_the_clock_polarity@_spi_obj+1
  8420   0023E0  EC66  F014         	call	_SPI_Select_the_clock_polarity	;wreg free
  8421   0023E4                     
  8422                           ;MCAL_LAYER/SPI/hal_spi.c: 33:             SPI_Select_the_clock_phase(_spi_obj);
  8423   0023E4  C04A  F031         	movff	SPI_Init@_spi_obj,SPI_Select_the_clock_phase@_spi_obj
  8424   0023E8  C04B  F032         	movff	SPI_Init@_spi_obj+1,SPI_Select_the_clock_phase@_spi_obj+1
  8425   0023EC  EC85  F014         	call	_SPI_Select_the_clock_phase	;wreg free
  8426   0023F0                     
  8427                           ;MCAL_LAYER/SPI/hal_spi.c: 35:             SPI_Select_the_Sampling_receiving(_spi_obj);
  8428   0023F0  C04A  F031         	movff	SPI_Init@_spi_obj,SPI_Select_the_Sampling_receiving@_spi_obj
  8429   0023F4  C04B  F032         	movff	SPI_Init@_spi_obj+1,SPI_Select_the_Sampling_receiving@_spi_obj+1
  8430   0023F8  ECA4  F014         	call	_SPI_Select_the_Sampling_receiving	;wreg free
  8431   0023FC                     
  8432                           ;MCAL_LAYER/SPI/hal_spi.c: 37:             SPI_configure_the_interrupt(_spi_obj);
  8433   0023FC  C04A  F031         	movff	SPI_Init@_spi_obj,SPI_configure_the_interrupt@_spi_obj
  8434   002400  C04B  F032         	movff	SPI_Init@_spi_obj+1,SPI_configure_the_interrupt@_spi_obj+1
  8435   002404  EC46  F013         	call	_SPI_configure_the_interrupt	;wreg free
  8436   002408                     
  8437                           ;MCAL_LAYER/SPI/hal_spi.c: 39:             (SSPCON1bits.SSPEN=1);
  8438   002408  8AC6               	bsf	198,5,c	;volatile
  8439   00240A                     l460:
  8440   00240A  0012               	return		;funcret
  8441   00240C                     __end_of_SPI_Init:
  8442                           	callstack 0
  8443                           
  8444 ;; *************** function _SPI_configure_the_interrupt *****************
  8445 ;; Defined at:
  8446 ;;		line 163 in file "MCAL_LAYER/SPI/hal_spi.c"
  8447 ;; Parameters:    Size  Location     Type
  8448 ;;  _spi_obj        2    2[COMRAM] PTR const struct .
  8449 ;;		 -> SPIObject(4), 
  8450 ;; Auto vars:     Size  Location     Type
  8451 ;;		None
  8452 ;; Return value:  Size  Location     Type
  8453 ;;                  1    wreg      void 
  8454 ;; Registers used:
  8455 ;;		wreg, fsr2l, fsr2h, status,2, status,0
  8456 ;; Tracked objects:
  8457 ;;		On entry : 0/0
  8458 ;;		On exit  : 0/0
  8459 ;;		Unchanged: 0/0
  8460 ;; Data sizes:     COMRAM   BANK0   BANK1   BANK2   BANK3   BANK4   BANK5   BANK6   BANK7   BANK8   BANK9  BANK10  BANK1
      +1  BANK12  BANK13  BANK14  BANK15
  8461 ;;      Params:         2       0       0       0       0       0       0       0       0       0       0       0       
      +0       0       0       0       0
  8462 ;;      Locals:         0       0       0       0       0       0       0       0       0       0       0       0       
      +0       0       0       0       0
  8463 ;;      Temps:          0       0       0       0       0       0       0       0       0       0       0       0       
      +0       0       0       0       0
  8464 ;;      Totals:         2       0       0       0       0       0       0       0       0       0       0       0       
      +0       0       0       0       0
  8465 ;;Total ram usage:        2 bytes
  8466 ;; Hardware stack levels used: 1
  8467 ;; Hardware stack levels required when called: 3
  8468 ;; This function calls:
  8469 ;;		Nothing
  8470 ;; This function is called by:
  8471 ;;		_SPI_Init
  8472 ;; This function uses a non-reentrant model
  8473 ;;
  8474                           
  8475                           	psect	text35
  8476   00268C                     __ptext35:
  8477                           	callstack 0
  8478   00268C                     _SPI_configure_the_interrupt:
  8479                           	callstack 26
  8480   00268C                     
  8481                           ;MCAL_LAYER/SPI/hal_spi.c: 164:     if (0x01==_spi_obj->SPI_config.SPI_interrupt_enable)
      +                          {
  8482   00268C  EE20 F003          	lfsr	2,3
  8483   002690  5031               	movf	SPI_configure_the_interrupt@_spi_obj^0,w,c
  8484   002692  26D9               	addwf	fsr2l,f,c
  8485   002694  5032               	movf	(SPI_configure_the_interrupt@_spi_obj+1)^0,w,c
  8486   002696  22DA               	addwfc	fsr2h,f,c
  8487   002698  A6DF               	btfss	indf2,3,c
  8488   00269A  EF51  F013         	goto	u4911
  8489   00269E  EF53  F013         	goto	u4910
  8490   0026A2                     u4911:
  8491   0026A2  EF61  F013         	goto	l5943
  8492   0026A6                     u4910:
  8493   0026A6                     
  8494                           ;MCAL_LAYER/SPI/hal_spi.c: 166:        (PIE1bits.SSPIE=1);
  8495   0026A6  869D               	bsf	157,3,c	;volatile
  8496                           
  8497                           ;MCAL_LAYER/SPI/hal_spi.c: 167:        (PIR1bits.SSPIF=0);
  8498   0026A8  969E               	bcf	158,3,c	;volatile
  8499                           
  8500                           ;MCAL_LAYER/SPI/hal_spi.c: 180:             (INTCONbits.GIE=1);
  8501   0026AA  8EF2               	bsf	242,7,c	;volatile
  8502                           
  8503                           ;MCAL_LAYER/SPI/hal_spi.c: 181:             (INTCONbits.PEIE=1);
  8504   0026AC  8CF2               	bsf	242,6,c	;volatile
  8505   0026AE                     
  8506                           ;MCAL_LAYER/SPI/hal_spi.c: 183:            HandelerSPI =_spi_obj->SPI_InterruptHandler;
  8507   0026AE  C031  FFD9         	movff	SPI_configure_the_interrupt@_spi_obj,fsr2l
  8508   0026B2  C032  FFDA         	movff	SPI_configure_the_interrupt@_spi_obj+1,fsr2h
  8509   0026B6  CFDE F05F          	movff	postinc2,_HandelerSPI
  8510   0026BA  CFDD F060          	movff	postdec2,_HandelerSPI+1
  8511                           
  8512                           ;MCAL_LAYER/SPI/hal_spi.c: 185:     }
  8513   0026BE  EF6F  F013         	goto	l535
  8514   0026C2                     l5943:
  8515   0026C2  EE20 F003          	lfsr	2,3
  8516   0026C6  5031               	movf	SPI_configure_the_interrupt@_spi_obj^0,w,c
  8517   0026C8  26D9               	addwf	fsr2l,f,c
  8518   0026CA  5032               	movf	(SPI_configure_the_interrupt@_spi_obj+1)^0,w,c
  8519   0026CC  22DA               	addwfc	fsr2h,f,c
  8520   0026CE  B6DF               	btfsc	indf2,3,c
  8521   0026D0  EF6C  F013         	goto	u4921
  8522   0026D4  EF6E  F013         	goto	u4920
  8523   0026D8                     u4921:
  8524   0026D8  EF6F  F013         	goto	l535
  8525   0026DC                     u4920:
  8526   0026DC                     
  8527                           ;MCAL_LAYER/SPI/hal_spi.c: 187:         (PIE1bits.SSPIE=0);
  8528   0026DC  969D               	bcf	157,3,c	;volatile
  8529   0026DE                     l535:
  8530   0026DE  0012               	return		;funcret
  8531   0026E0                     __end_of_SPI_configure_the_interrupt:
  8532                           	callstack 0
  8533                           
  8534 ;; *************** function _SPI_Select_the_clock_polarity *****************
  8535 ;; Defined at:
  8536 ;;		line 138 in file "MCAL_LAYER/SPI/hal_spi.c"
  8537 ;; Parameters:    Size  Location     Type
  8538 ;;  _spi_obj        2    2[COMRAM] PTR const struct .
  8539 ;;		 -> SPIObject(4), 
  8540 ;; Auto vars:     Size  Location     Type
  8541 ;;		None
  8542 ;; Return value:  Size  Location     Type
  8543 ;;                  1    wreg      void 
  8544 ;; Registers used:
  8545 ;;		wreg, fsr2l, fsr2h, status,2, status,0
  8546 ;; Tracked objects:
  8547 ;;		On entry : 0/0
  8548 ;;		On exit  : 0/0
  8549 ;;		Unchanged: 0/0
  8550 ;; Data sizes:     COMRAM   BANK0   BANK1   BANK2   BANK3   BANK4   BANK5   BANK6   BANK7   BANK8   BANK9  BANK10  BANK1
      +1  BANK12  BANK13  BANK14  BANK15
  8551 ;;      Params:         2       0       0       0       0       0       0       0       0       0       0       0       
      +0       0       0       0       0
  8552 ;;      Locals:         0       0       0       0       0       0       0       0       0       0       0       0       
      +0       0       0       0       0
  8553 ;;      Temps:          0       0       0       0       0       0       0       0       0       0       0       0       
      +0       0       0       0       0
  8554 ;;      Totals:         2       0       0       0       0       0       0       0       0       0       0       0       
      +0       0       0       0       0
  8555 ;;Total ram usage:        2 bytes
  8556 ;; Hardware stack levels used: 1
  8557 ;; Hardware stack levels required when called: 3
  8558 ;; This function calls:
  8559 ;;		Nothing
  8560 ;; This function is called by:
  8561 ;;		_SPI_Init
  8562 ;; This function uses a non-reentrant model
  8563 ;;
  8564                           
  8565                           	psect	text36
  8566   0028CC                     __ptext36:
  8567                           	callstack 0
  8568   0028CC                     _SPI_Select_the_clock_polarity:
  8569                           	callstack 26
  8570   0028CC                     
  8571                           ;MCAL_LAYER/SPI/hal_spi.c: 139:     if (0x01==_spi_obj->SPI_config.clock_polarity){
  8572   0028CC  EE20 F003          	lfsr	2,3
  8573   0028D0  5031               	movf	SPI_Select_the_clock_polarity@_spi_obj^0,w,c
  8574   0028D2  26D9               	addwf	fsr2l,f,c
  8575   0028D4  5032               	movf	(SPI_Select_the_clock_polarity@_spi_obj+1)^0,w,c
  8576   0028D6  22DA               	addwfc	fsr2h,f,c
  8577   0028D8  A0DF               	btfss	indf2,0,c
  8578   0028DA  EF71  F014         	goto	u4851
  8579   0028DE  EF73  F014         	goto	u4850
  8580   0028E2                     u4851:
  8581   0028E2  EF76  F014         	goto	l5917
  8582   0028E6                     u4850:
  8583   0028E6                     
  8584                           ;MCAL_LAYER/SPI/hal_spi.c: 140:         (SSPCON1bits.CKP=1);
  8585   0028E6  88C6               	bsf	198,4,c	;volatile
  8586                           
  8587                           ;MCAL_LAYER/SPI/hal_spi.c: 141:     }
  8588   0028E8  EF84  F014         	goto	l517
  8589   0028EC                     l5917:
  8590   0028EC  EE20 F003          	lfsr	2,3
  8591   0028F0  5031               	movf	SPI_Select_the_clock_polarity@_spi_obj^0,w,c
  8592   0028F2  26D9               	addwf	fsr2l,f,c
  8593   0028F4  5032               	movf	(SPI_Select_the_clock_polarity@_spi_obj+1)^0,w,c
  8594   0028F6  22DA               	addwfc	fsr2h,f,c
  8595   0028F8  B0DF               	btfsc	indf2,0,c
  8596   0028FA  EF81  F014         	goto	u4861
  8597   0028FE  EF83  F014         	goto	u4860
  8598   002902                     u4861:
  8599   002902  EF84  F014         	goto	l517
  8600   002906                     u4860:
  8601   002906                     
  8602                           ;MCAL_LAYER/SPI/hal_spi.c: 143:         (SSPCON1bits.CKP=0);
  8603   002906  98C6               	bcf	198,4,c	;volatile
  8604   002908                     l517:
  8605   002908  0012               	return		;funcret
  8606   00290A                     __end_of_SPI_Select_the_clock_polarity:
  8607                           	callstack 0
  8608                           
  8609 ;; *************** function _SPI_Select_the_clock_phase *****************
  8610 ;; Defined at:
  8611 ;;		line 147 in file "MCAL_LAYER/SPI/hal_spi.c"
  8612 ;; Parameters:    Size  Location     Type
  8613 ;;  _spi_obj        2    2[COMRAM] PTR const struct .
  8614 ;;		 -> SPIObject(4), 
  8615 ;; Auto vars:     Size  Location     Type
  8616 ;;		None
  8617 ;; Return value:  Size  Location     Type
  8618 ;;                  1    wreg      void 
  8619 ;; Registers used:
  8620 ;;		wreg, fsr2l, fsr2h, status,2, status,0
  8621 ;; Tracked objects:
  8622 ;;		On entry : 0/0
  8623 ;;		On exit  : 0/0
  8624 ;;		Unchanged: 0/0
  8625 ;; Data sizes:     COMRAM   BANK0   BANK1   BANK2   BANK3   BANK4   BANK5   BANK6   BANK7   BANK8   BANK9  BANK10  BANK1
      +1  BANK12  BANK13  BANK14  BANK15
  8626 ;;      Params:         2       0       0       0       0       0       0       0       0       0       0       0       
      +0       0       0       0       0
  8627 ;;      Locals:         0       0       0       0       0       0       0       0       0       0       0       0       
      +0       0       0       0       0
  8628 ;;      Temps:          0       0       0       0       0       0       0       0       0       0       0       0       
      +0       0       0       0       0
  8629 ;;      Totals:         2       0       0       0       0       0       0       0       0       0       0       0       
      +0       0       0       0       0
  8630 ;;Total ram usage:        2 bytes
  8631 ;; Hardware stack levels used: 1
  8632 ;; Hardware stack levels required when called: 3
  8633 ;; This function calls:
  8634 ;;		Nothing
  8635 ;; This function is called by:
  8636 ;;		_SPI_Init
  8637 ;; This function uses a non-reentrant model
  8638 ;;
  8639                           
  8640                           	psect	text37
  8641   00290A                     __ptext37:
  8642                           	callstack 0
  8643   00290A                     _SPI_Select_the_clock_phase:
  8644                           	callstack 26
  8645   00290A                     
  8646                           ;MCAL_LAYER/SPI/hal_spi.c: 148:     if(0x01==_spi_obj->SPI_config.clock_phase){
  8647   00290A  EE20 F003          	lfsr	2,3
  8648   00290E  5031               	movf	SPI_Select_the_clock_phase@_spi_obj^0,w,c
  8649   002910  26D9               	addwf	fsr2l,f,c
  8650   002912  5032               	movf	(SPI_Select_the_clock_phase@_spi_obj+1)^0,w,c
  8651   002914  22DA               	addwfc	fsr2h,f,c
  8652   002916  A2DF               	btfss	indf2,1,c
  8653   002918  EF90  F014         	goto	u4871
  8654   00291C  EF92  F014         	goto	u4870
  8655   002920                     u4871:
  8656   002920  EF95  F014         	goto	l5925
  8657   002924                     u4870:
  8658   002924                     
  8659                           ;MCAL_LAYER/SPI/hal_spi.c: 149:         (SSPSTATbits.CKE=1);
  8660   002924  8CC7               	bsf	199,6,c	;volatile
  8661                           
  8662                           ;MCAL_LAYER/SPI/hal_spi.c: 150:     }
  8663   002926  EFA3  F014         	goto	l523
  8664   00292A                     l5925:
  8665   00292A  EE20 F003          	lfsr	2,3
  8666   00292E  5031               	movf	SPI_Select_the_clock_phase@_spi_obj^0,w,c
  8667   002930  26D9               	addwf	fsr2l,f,c
  8668   002932  5032               	movf	(SPI_Select_the_clock_phase@_spi_obj+1)^0,w,c
  8669   002934  22DA               	addwfc	fsr2h,f,c
  8670   002936  B2DF               	btfsc	indf2,1,c
  8671   002938  EFA0  F014         	goto	u4881
  8672   00293C  EFA2  F014         	goto	u4880
  8673   002940                     u4881:
  8674   002940  EFA3  F014         	goto	l523
  8675   002944                     u4880:
  8676   002944                     
  8677                           ;MCAL_LAYER/SPI/hal_spi.c: 152:         (SSPSTATbits.CKE=0);
  8678   002944  9CC7               	bcf	199,6,c	;volatile
  8679   002946                     l523:
  8680   002946  0012               	return		;funcret
  8681   002948                     __end_of_SPI_Select_the_clock_phase:
  8682                           	callstack 0
  8683                           
  8684 ;; *************** function _SPI_Select_the_Sampling_receiving *****************
  8685 ;; Defined at:
  8686 ;;		line 155 in file "MCAL_LAYER/SPI/hal_spi.c"
  8687 ;; Parameters:    Size  Location     Type
  8688 ;;  _spi_obj        2    2[COMRAM] PTR const struct .
  8689 ;;		 -> SPIObject(4), 
  8690 ;; Auto vars:     Size  Location     Type
  8691 ;;		None
  8692 ;; Return value:  Size  Location     Type
  8693 ;;                  1    wreg      void 
  8694 ;; Registers used:
  8695 ;;		wreg, fsr2l, fsr2h, status,2, status,0
  8696 ;; Tracked objects:
  8697 ;;		On entry : 0/0
  8698 ;;		On exit  : 0/0
  8699 ;;		Unchanged: 0/0
  8700 ;; Data sizes:     COMRAM   BANK0   BANK1   BANK2   BANK3   BANK4   BANK5   BANK6   BANK7   BANK8   BANK9  BANK10  BANK1
      +1  BANK12  BANK13  BANK14  BANK15
  8701 ;;      Params:         2       0       0       0       0       0       0       0       0       0       0       0       
      +0       0       0       0       0
  8702 ;;      Locals:         0       0       0       0       0       0       0       0       0       0       0       0       
      +0       0       0       0       0
  8703 ;;      Temps:          0       0       0       0       0       0       0       0       0       0       0       0       
      +0       0       0       0       0
  8704 ;;      Totals:         2       0       0       0       0       0       0       0       0       0       0       0       
      +0       0       0       0       0
  8705 ;;Total ram usage:        2 bytes
  8706 ;; Hardware stack levels used: 1
  8707 ;; Hardware stack levels required when called: 3
  8708 ;; This function calls:
  8709 ;;		Nothing
  8710 ;; This function is called by:
  8711 ;;		_SPI_Init
  8712 ;; This function uses a non-reentrant model
  8713 ;;
  8714                           
  8715                           	psect	text38
  8716   002948                     __ptext38:
  8717                           	callstack 0
  8718   002948                     _SPI_Select_the_Sampling_receiving:
  8719                           	callstack 26
  8720   002948                     
  8721                           ;MCAL_LAYER/SPI/hal_spi.c: 156:     if (0x01==_spi_obj->SPI_config.sampling_receiving){
  8722   002948  EE20 F003          	lfsr	2,3
  8723   00294C  5031               	movf	SPI_Select_the_Sampling_receiving@_spi_obj^0,w,c
  8724   00294E  26D9               	addwf	fsr2l,f,c
  8725   002950  5032               	movf	(SPI_Select_the_Sampling_receiving@_spi_obj+1)^0,w,c
  8726   002952  22DA               	addwfc	fsr2h,f,c
  8727   002954  A4DF               	btfss	indf2,2,c
  8728   002956  EFAF  F014         	goto	u4891
  8729   00295A  EFB1  F014         	goto	u4890
  8730   00295E                     u4891:
  8731   00295E  EFB4  F014         	goto	l5933
  8732   002962                     u4890:
  8733   002962                     
  8734                           ;MCAL_LAYER/SPI/hal_spi.c: 157:         (SSPSTATbits.SMP=1);
  8735   002962  8EC7               	bsf	199,7,c	;volatile
  8736                           
  8737                           ;MCAL_LAYER/SPI/hal_spi.c: 158:     }
  8738   002964  EFC2  F014         	goto	l529
  8739   002968                     l5933:
  8740   002968  EE20 F003          	lfsr	2,3
  8741   00296C  5031               	movf	SPI_Select_the_Sampling_receiving@_spi_obj^0,w,c
  8742   00296E  26D9               	addwf	fsr2l,f,c
  8743   002970  5032               	movf	(SPI_Select_the_Sampling_receiving@_spi_obj+1)^0,w,c
  8744   002972  22DA               	addwfc	fsr2h,f,c
  8745   002974  B4DF               	btfsc	indf2,2,c
  8746   002976  EFBF  F014         	goto	u4901
  8747   00297A  EFC1  F014         	goto	u4900
  8748   00297E                     u4901:
  8749   00297E  EFC2  F014         	goto	l529
  8750   002982                     u4900:
  8751   002982                     
  8752                           ;MCAL_LAYER/SPI/hal_spi.c: 160:         (SSPSTATbits.SMP=0);
  8753   002982  9EC7               	bcf	199,7,c	;volatile
  8754   002984                     l529:
  8755   002984  0012               	return		;funcret
  8756   002986                     __end_of_SPI_Select_the_Sampling_receiving:
  8757                           	callstack 0
  8758                           
  8759 ;; *************** function _SPI_Select_mode_and_pin_initialize *****************
  8760 ;; Defined at:
  8761 ;;		line 112 in file "MCAL_LAYER/SPI/hal_spi.c"
  8762 ;; Parameters:    Size  Location     Type
  8763 ;;  _spi_obj        2   16[COMRAM] PTR const struct .
  8764 ;;		 -> SPIObject(4), 
  8765 ;; Auto vars:     Size  Location     Type
  8766 ;;  SS              1   26[COMRAM] struct .
  8767 ;;  S_CLOCK         1   25[COMRAM] struct .
  8768 ;;  S_MISO          1   24[COMRAM] struct .
  8769 ;;  S_MOSI          1   23[COMRAM] struct .
  8770 ;;  M_CLOCK         1   22[COMRAM] struct .
  8771 ;;  M_MISO          1   21[COMRAM] struct .
  8772 ;;  M_MOSI          1   20[COMRAM] struct .
  8773 ;;  ret             1   19[COMRAM] unsigned char 
  8774 ;; Return value:  Size  Location     Type
  8775 ;;                  1    wreg      void 
  8776 ;; Registers used:
  8777 ;;		wreg, fsr2l, fsr2h, status,2, status,0, prodl, prodh, cstack
  8778 ;; Tracked objects:
  8779 ;;		On entry : 0/0
  8780 ;;		On exit  : 0/0
  8781 ;;		Unchanged: 0/0
  8782 ;; Data sizes:     COMRAM   BANK0   BANK1   BANK2   BANK3   BANK4   BANK5   BANK6   BANK7   BANK8   BANK9  BANK10  BANK1
      +1  BANK12  BANK13  BANK14  BANK15
  8783 ;;      Params:         2       0       0       0       0       0       0       0       0       0       0       0       
      +0       0       0       0       0
  8784 ;;      Locals:         8       0       0       0       0       0       0       0       0       0       0       0       
      +0       0       0       0       0
  8785 ;;      Temps:          1       0       0       0       0       0       0       0       0       0       0       0       
      +0       0       0       0       0
  8786 ;;      Totals:        11       0       0       0       0       0       0       0       0       0       0       0       
      +0       0       0       0       0
  8787 ;;Total ram usage:       11 bytes
  8788 ;; Hardware stack levels used: 1
  8789 ;; Hardware stack levels required when called: 5
  8790 ;; This function calls:
  8791 ;;		_gpio_Pin_Intialize
  8792 ;; This function is called by:
  8793 ;;		_SPI_Init
  8794 ;; This function uses a non-reentrant model
  8795 ;;
  8796                           
  8797                           	psect	text39
  8798   001978                     __ptext39:
  8799                           	callstack 0
  8800   001978                     _SPI_Select_mode_and_pin_initialize:
  8801                           	callstack 24
  8802   001978                     
  8803                           ;MCAL_LAYER/SPI/hal_spi.c: 114:     if ((SPI_MASTER_MODE_CLOCK_FOSC_DIV_4==_spi_obj->SPI
      +                          _mode) ||
  8804   001978  EE20 F002          	lfsr	2,2
  8805   00197C  503F               	movf	SPI_Select_mode_and_pin_initialize@_spi_obj^0,w,c
  8806   00197E  26D9               	addwf	fsr2l,f,c
  8807   001980  5040               	movf	(SPI_Select_mode_and_pin_initialize@_spi_obj+1)^0,w,c
  8808   001982  22DA               	addwfc	fsr2h,f,c
  8809   001984  50DF               	movf	indf2,w,c
  8810   001986  B4D8               	btfsc	status,2,c
  8811   001988  EFC8  F00C         	goto	u4801
  8812   00198C  EFCA  F00C         	goto	u4800
  8813   001990                     u4801:
  8814   001990  EFF6  F00C         	goto	l494
  8815   001994                     u4800:
  8816   001994  EE20 F002          	lfsr	2,2
  8817   001998  503F               	movf	SPI_Select_mode_and_pin_initialize@_spi_obj^0,w,c
  8818   00199A  26D9               	addwf	fsr2l,f,c
  8819   00199C  5040               	movf	(SPI_Select_mode_and_pin_initialize@_spi_obj+1)^0,w,c
  8820   00199E  22DA               	addwfc	fsr2h,f,c
  8821   0019A0  04DE               	decf	postinc2,w,c
  8822   0019A2  B4D8               	btfsc	status,2,c
  8823   0019A4  EFD6  F00C         	goto	u4811
  8824   0019A8  EFD8  F00C         	goto	u4810
  8825   0019AC                     u4811:
  8826   0019AC  EFF6  F00C         	goto	l494
  8827   0019B0                     u4810:
  8828   0019B0  EE20 F002          	lfsr	2,2
  8829   0019B4  503F               	movf	SPI_Select_mode_and_pin_initialize@_spi_obj^0,w,c
  8830   0019B6  26D9               	addwf	fsr2l,f,c
  8831   0019B8  5040               	movf	(SPI_Select_mode_and_pin_initialize@_spi_obj+1)^0,w,c
  8832   0019BA  22DA               	addwfc	fsr2h,f,c
  8833   0019BC  0E02               	movlw	2
  8834   0019BE  18DE               	xorwf	postinc2,w,c
  8835   0019C0  B4D8               	btfsc	status,2,c
  8836   0019C2  EFE5  F00C         	goto	u4821
  8837   0019C6  EFE7  F00C         	goto	u4820
  8838   0019CA                     u4821:
  8839   0019CA  EFF6  F00C         	goto	l494
  8840   0019CE                     u4820:
  8841   0019CE  EE20 F002          	lfsr	2,2
  8842   0019D2  503F               	movf	SPI_Select_mode_and_pin_initialize@_spi_obj^0,w,c
  8843   0019D4  26D9               	addwf	fsr2l,f,c
  8844   0019D6  5040               	movf	(SPI_Select_mode_and_pin_initialize@_spi_obj+1)^0,w,c
  8845   0019D8  22DA               	addwfc	fsr2h,f,c
  8846   0019DA  0E03               	movlw	3
  8847   0019DC  18DE               	xorwf	postinc2,w,c
  8848   0019DE  A4D8               	btfss	status,2,c
  8849   0019E0  EFF4  F00C         	goto	u4831
  8850   0019E4  EFF6  F00C         	goto	u4830
  8851   0019E8                     u4831:
  8852   0019E8  EF13  F00D         	goto	l5905
  8853   0019EC                     u4830:
  8854   0019EC                     l494:
  8855                           
  8856                           ;MCAL_LAYER/SPI/hal_spi.c: 117:         (SPI_MASTER_MODE_CLOCK_TIMR2_DIV_2==_spi_obj->SP
      +                          I_mode)){;MCAL_LAYER/SPI/hal_spi.c: 118:         pin_config_t M_MOSI={.port=PORTC_INDEX,
      +                          .pin=GPIO_PIN5,.direction=GPIO_DIRECTION_OUTPUT};
  8857   0019EC  C011  F043         	movff	SPI_Select_mode_and_pin_initialize@F3106,SPI_Select_mode_and_pin_initialize@M_MOS
      +                          I
  8858                           
  8859                           ;MCAL_LAYER/SPI/hal_spi.c: 119:          pin_config_t M_MISO={.port=PORTC_INDEX,.pin=GPI
      +                          O_PIN4,.direction=GPIO_DIRECTION_INPUT};
  8860   0019F0  C010  F044         	movff	SPI_Select_mode_and_pin_initialize@F3108,SPI_Select_mode_and_pin_initialize@M_MIS
      +                          O
  8861                           
  8862                           ;MCAL_LAYER/SPI/hal_spi.c: 120:         pin_config_t M_CLOCK={.port=PORTC_INDEX,.pin=GPI
      +                          O_PIN3,.direction=GPIO_DIRECTION_OUTPUT};
  8863   0019F4  C00F  F045         	movff	SPI_Select_mode_and_pin_initialize@F3110,SPI_Select_mode_and_pin_initialize@M_CLO
      +                          CK
  8864   0019F8                     
  8865                           ;MCAL_LAYER/SPI/hal_spi.c: 122:        ret= gpio_Pin_Intialize(&M_MOSI);
  8866   0019F8  0E43               	movlw	low SPI_Select_mode_and_pin_initialize@M_MOSI
  8867   0019FA  6E3B               	movwf	gpio_Pin_Intialize@pin_config^0,c
  8868   0019FC  0E00               	movlw	high SPI_Select_mode_and_pin_initialize@M_MOSI
  8869   0019FE  6E3C               	movwf	(gpio_Pin_Intialize@pin_config+1)^0,c
  8870   001A00  EC37  F012         	call	_gpio_Pin_Intialize	;wreg free
  8871   001A04  6E42               	movwf	SPI_Select_mode_and_pin_initialize@ret^0,c
  8872                           
  8873                           ;MCAL_LAYER/SPI/hal_spi.c: 123:        ret=gpio_Pin_Intialize(&M_CLOCK);
  8874   001A06  0E45               	movlw	low SPI_Select_mode_and_pin_initialize@M_CLOCK
  8875   001A08  6E3B               	movwf	gpio_Pin_Intialize@pin_config^0,c
  8876   001A0A  0E00               	movlw	high SPI_Select_mode_and_pin_initialize@M_CLOCK
  8877   001A0C  6E3C               	movwf	(gpio_Pin_Intialize@pin_config+1)^0,c
  8878   001A0E  EC37  F012         	call	_gpio_Pin_Intialize	;wreg free
  8879   001A12  6E42               	movwf	SPI_Select_mode_and_pin_initialize@ret^0,c
  8880                           
  8881                           ;MCAL_LAYER/SPI/hal_spi.c: 124:        ret=gpio_Pin_Intialize(&M_MISO);
  8882   001A14  0E44               	movlw	low SPI_Select_mode_and_pin_initialize@M_MISO
  8883   001A16  6E3B               	movwf	gpio_Pin_Intialize@pin_config^0,c
  8884   001A18  0E00               	movlw	high SPI_Select_mode_and_pin_initialize@M_MISO
  8885   001A1A  6E3C               	movwf	(gpio_Pin_Intialize@pin_config+1)^0,c
  8886   001A1C  EC37  F012         	call	_gpio_Pin_Intialize	;wreg free
  8887   001A20  6E42               	movwf	SPI_Select_mode_and_pin_initialize@ret^0,c
  8888                           
  8889                           ;MCAL_LAYER/SPI/hal_spi.c: 125:     }
  8890   001A22  EF47  F00D         	goto	l511
  8891   001A26                     l5905:
  8892   001A26  EE20 F002          	lfsr	2,2
  8893   001A2A  503F               	movf	SPI_Select_mode_and_pin_initialize@_spi_obj^0,w,c
  8894   001A2C  26D9               	addwf	fsr2l,f,c
  8895   001A2E  5040               	movf	(SPI_Select_mode_and_pin_initialize@_spi_obj+1)^0,w,c
  8896   001A30  22DA               	addwfc	fsr2h,f,c
  8897   001A32  0E04               	movlw	4
  8898   001A34  18DE               	xorwf	postinc2,w,c
  8899   001A36  A4D8               	btfss	status,2,c
  8900   001A38  EF20  F00D         	goto	u4841
  8901   001A3C  EF22  F00D         	goto	u4840
  8902   001A40                     u4841:
  8903   001A40  EF47  F00D         	goto	l511
  8904   001A44                     u4840:
  8905   001A44                     
  8906                           ;MCAL_LAYER/SPI/hal_spi.c: 127:         pin_config_t S_MOSI={.port=PORTC_INDEX,.pin=GPIO
      +                          _PIN5,.direction=GPIO_DIRECTION_OUTPUT};
  8907   001A44  C00E  F046         	movff	SPI_Select_mode_and_pin_initialize@F3112,SPI_Select_mode_and_pin_initialize@S_MOS
      +                          I
  8908                           
  8909                           ;MCAL_LAYER/SPI/hal_spi.c: 128:         pin_config_t S_MISO={.port=PORTC_INDEX,.pin=GPIO
      +                          _PIN4,.direction=GPIO_DIRECTION_INPUT};
  8910   001A48  C00D  F047         	movff	SPI_Select_mode_and_pin_initialize@F3114,SPI_Select_mode_and_pin_initialize@S_MIS
      +                          O
  8911                           
  8912                           ;MCAL_LAYER/SPI/hal_spi.c: 129:         pin_config_t S_CLOCK={.port=PORTC_INDEX,.pin=GPI
      +                          O_PIN3,.direction=GPIO_DIRECTION_INPUT};
  8913   001A4C  C00C  F048         	movff	SPI_Select_mode_and_pin_initialize@F3116,SPI_Select_mode_and_pin_initialize@S_CLO
      +                          CK
  8914                           
  8915                           ;MCAL_LAYER/SPI/hal_spi.c: 130:         pin_config_t SS={.port=PORTA_INDEX,.pin=GPIO_PIN
      +                          5,.direction=GPIO_DIRECTION_INPUT};
  8916   001A50  C00B  F049         	movff	SPI_Select_mode_and_pin_initialize@F3118,SPI_Select_mode_and_pin_initialize@SS
  8917   001A54                     
  8918                           ;MCAL_LAYER/SPI/hal_spi.c: 131:         ret= gpio_Pin_Intialize(&S_MOSI);
  8919   001A54  0E46               	movlw	low SPI_Select_mode_and_pin_initialize@S_MOSI
  8920   001A56  6E3B               	movwf	gpio_Pin_Intialize@pin_config^0,c
  8921   001A58  0E00               	movlw	high SPI_Select_mode_and_pin_initialize@S_MOSI
  8922   001A5A  6E3C               	movwf	(gpio_Pin_Intialize@pin_config+1)^0,c
  8923   001A5C  EC37  F012         	call	_gpio_Pin_Intialize	;wreg free
  8924   001A60  6E42               	movwf	SPI_Select_mode_and_pin_initialize@ret^0,c
  8925                           
  8926                           ;MCAL_LAYER/SPI/hal_spi.c: 132:         ret= gpio_Pin_Intialize(&S_MISO);
  8927   001A62  0E47               	movlw	low SPI_Select_mode_and_pin_initialize@S_MISO
  8928   001A64  6E3B               	movwf	gpio_Pin_Intialize@pin_config^0,c
  8929   001A66  0E00               	movlw	high SPI_Select_mode_and_pin_initialize@S_MISO
  8930   001A68  6E3C               	movwf	(gpio_Pin_Intialize@pin_config+1)^0,c
  8931   001A6A  EC37  F012         	call	_gpio_Pin_Intialize	;wreg free
  8932   001A6E  6E42               	movwf	SPI_Select_mode_and_pin_initialize@ret^0,c
  8933                           
  8934                           ;MCAL_LAYER/SPI/hal_spi.c: 133:         ret= gpio_Pin_Intialize(&S_CLOCK);
  8935   001A70  0E48               	movlw	low SPI_Select_mode_and_pin_initialize@S_CLOCK
  8936   001A72  6E3B               	movwf	gpio_Pin_Intialize@pin_config^0,c
  8937   001A74  0E00               	movlw	high SPI_Select_mode_and_pin_initialize@S_CLOCK
  8938   001A76  6E3C               	movwf	(gpio_Pin_Intialize@pin_config+1)^0,c
  8939   001A78  EC37  F012         	call	_gpio_Pin_Intialize	;wreg free
  8940   001A7C  6E42               	movwf	SPI_Select_mode_and_pin_initialize@ret^0,c
  8941                           
  8942                           ;MCAL_LAYER/SPI/hal_spi.c: 134:         ret= gpio_Pin_Intialize(&SS);
  8943   001A7E  0E49               	movlw	low SPI_Select_mode_and_pin_initialize@SS
  8944   001A80  6E3B               	movwf	gpio_Pin_Intialize@pin_config^0,c
  8945   001A82  0E00               	movlw	high SPI_Select_mode_and_pin_initialize@SS
  8946   001A84  6E3C               	movwf	(gpio_Pin_Intialize@pin_config+1)^0,c
  8947   001A86  EC37  F012         	call	_gpio_Pin_Intialize	;wreg free
  8948   001A8A  6E42               	movwf	SPI_Select_mode_and_pin_initialize@ret^0,c
  8949   001A8C                     
  8950                           ;MCAL_LAYER/SPI/hal_spi.c: 135:         (SSPSTATbits.SMP=0);
  8951   001A8C  9EC7               	bcf	199,7,c	;volatile
  8952   001A8E                     l511:
  8953   001A8E  0012               	return		;funcret
  8954   001A90                     __end_of_SPI_Select_mode_and_pin_initialize:
  8955                           	callstack 0
  8956                           
  8957 ;; *************** function _gpio_Pin_Intialize *****************
  8958 ;; Defined at:
  8959 ;;		line 141 in file "MCAL_LAYER/GPIO/hal_gpio.c"
  8960 ;; Parameters:    Size  Location     Type
  8961 ;;  pin_config      2   12[COMRAM] PTR const struct .
  8962 ;;		 -> PIN_SelectChannel(1), Lcd_Obj.lcd_data(4), Lcd_Obj(6), Keypad_Obj.pin_keypad_rows(4), 
  8963 ;;		 -> Keypad_Obj(8), SPI_Select_mode_and_pin_initialize@SS(1), SPI_Select_mode_and_pin_initialize@S_CLOCK(1), SPI_Sele
      +ct_mode_and_pin_initialize@S_MISO(1), 
  8964 ;;		 -> SPI_Select_mode_and_pin_initialize@S_MOSI(1), SPI_Select_mode_and_pin_initialize@M_CLOCK(1), SPI_Select_mode_and
      +_pin_initialize@M_MISO(1), SPI_Select_mode_and_pin_initialize@M_MOSI(1), 
  8965 ;;		 -> led_initialize@pin_config(1), 
  8966 ;; Auto vars:     Size  Location     Type
  8967 ;;  ret             1   15[COMRAM] unsigned char 
  8968 ;; Return value:  Size  Location     Type
  8969 ;;                  1    wreg      unsigned char 
  8970 ;; Registers used:
  8971 ;;		wreg, fsr2l, fsr2h, status,2, status,0, prodl, prodh, cstack
  8972 ;; Tracked objects:
  8973 ;;		On entry : 0/0
  8974 ;;		On exit  : 0/0
  8975 ;;		Unchanged: 0/0
  8976 ;; Data sizes:     COMRAM   BANK0   BANK1   BANK2   BANK3   BANK4   BANK5   BANK6   BANK7   BANK8   BANK9  BANK10  BANK1
      +1  BANK12  BANK13  BANK14  BANK15
  8977 ;;      Params:         2       0       0       0       0       0       0       0       0       0       0       0       
      +0       0       0       0       0
  8978 ;;      Locals:         1       0       0       0       0       0       0       0       0       0       0       0       
      +0       0       0       0       0
  8979 ;;      Temps:          1       0       0       0       0       0       0       0       0       0       0       0       
      +0       0       0       0       0
  8980 ;;      Totals:         4       0       0       0       0       0       0       0       0       0       0       0       
      +0       0       0       0       0
  8981 ;;Total ram usage:        4 bytes
  8982 ;; Hardware stack levels used: 1
  8983 ;; Hardware stack levels required when called: 4
  8984 ;; This function calls:
  8985 ;;		_gpio_Pin_Derction_Intialize
  8986 ;;		_gpio_Pin_Write_Logic
  8987 ;; This function is called by:
  8988 ;;		_lcd_4bit_initialize
  8989 ;;		_keypad_initialize
  8990 ;;		_led_initialize
  8991 ;;		_SPI_Select_mode_and_pin_initialize
  8992 ;;		_main
  8993 ;;		_lcd_8bit_initialize
  8994 ;; This function uses a non-reentrant model
  8995 ;;
  8996                           
  8997                           	psect	text40
  8998   00246E                     __ptext40:
  8999                           	callstack 0
  9000   00246E                     _gpio_Pin_Intialize:
  9001                           	callstack 25
  9002   00246E                     
  9003                           ;MCAL_LAYER/GPIO/hal_gpio.c: 143:     if (((void*)0)==pin_config || pin_config->pin > 8 
      +                          -1){
  9004   00246E  503B               	movf	gpio_Pin_Intialize@pin_config^0,w,c
  9005   002470  103C               	iorwf	(gpio_Pin_Intialize@pin_config+1)^0,w,c
  9006   002472  B4D8               	btfsc	status,2,c
  9007   002474  EF3E  F012         	goto	u4561
  9008   002478  EF40  F012         	goto	u4560
  9009   00247C                     u4561:
  9010   00247C  EF51  F012         	goto	l5633
  9011   002480                     u4560:
  9012   002480  C03B  FFD9         	movff	gpio_Pin_Intialize@pin_config,fsr2l
  9013   002484  C03C  FFDA         	movff	gpio_Pin_Intialize@pin_config+1,fsr2h
  9014   002488  30DF               	rrcf	223,w,c
  9015   00248A  32E8               	rrcf	wreg,f,c
  9016   00248C  32E8               	rrcf	wreg,f,c
  9017   00248E  0B07               	andlw	7
  9018   002490  6E3D               	movwf	??_gpio_Pin_Intialize^0,c
  9019   002492  0E07               	movlw	7
  9020   002494  643D               	cpfsgt	??_gpio_Pin_Intialize^0,c
  9021   002496  EF4F  F012         	goto	u4571
  9022   00249A  EF51  F012         	goto	u4570
  9023   00249E                     u4571:
  9024   00249E  EF51  F012         	goto	l5635
  9025   0024A2                     u4570:
  9026   0024A2                     l5633:
  9027   0024A2                     l5635:
  9028   0024A2  C03B  F031         	movff	gpio_Pin_Intialize@pin_config,gpio_Pin_Derction_Intialize@pin_config
  9029   0024A6  C03C  F032         	movff	gpio_Pin_Intialize@pin_config+1,gpio_Pin_Derction_Intialize@pin_config+1
  9030   0024AA  ECF4  F00A         	call	_gpio_Pin_Derction_Intialize	;wreg free
  9031   0024AE                     
  9032                           ;MCAL_LAYER/GPIO/hal_gpio.c: 147:     ret=gpio_Pin_Write_Logic(pin_config,pin_config->lo
      +                          gic);
  9033   0024AE  C03B  F031         	movff	gpio_Pin_Intialize@pin_config,gpio_Pin_Write_Logic@pin_config
  9034   0024B2  C03C  F032         	movff	gpio_Pin_Intialize@pin_config+1,gpio_Pin_Write_Logic@pin_config+1
  9035   0024B6  C03B  FFD9         	movff	gpio_Pin_Intialize@pin_config,fsr2l
  9036   0024BA  C03C  FFDA         	movff	gpio_Pin_Intialize@pin_config+1,fsr2h
  9037   0024BE  0E00               	movlw	0
  9038   0024C0  BEDF               	btfsc	indf2,7,c
  9039   0024C2  0E01               	movlw	1
  9040   0024C4  6E33               	movwf	gpio_Pin_Write_Logic@logic^0,c
  9041   0024C6  EC96  F00B         	call	_gpio_Pin_Write_Logic	;wreg free
  9042   0024CA  6E3E               	movwf	gpio_Pin_Intialize@ret^0,c
  9043                           
  9044                           ;MCAL_LAYER/GPIO/hal_gpio.c: 149:     return ret;
  9045   0024CC  503E               	movf	gpio_Pin_Intialize@ret^0,w,c
  9046   0024CE  0012               	return		;funcret
  9047   0024D0                     __end_of_gpio_Pin_Intialize:
  9048                           	callstack 0
  9049                           
  9050 ;; *************** function _gpio_Pin_Write_Logic *****************
  9051 ;; Defined at:
  9052 ;;		line 75 in file "MCAL_LAYER/GPIO/hal_gpio.c"
  9053 ;; Parameters:    Size  Location     Type
  9054 ;;  pin_config      2    2[COMRAM] PTR const struct .
  9055 ;;		 -> PIN_SelectChannel(1), Lcd_Obj.lcd_data(4), Lcd_Obj(6), Keypad_Obj.pin_keypad_rows(4), 
  9056 ;;		 -> Keypad_Obj(8), SPI_Select_mode_and_pin_initialize@SS(1), SPI_Select_mode_and_pin_initialize@S_CLOCK(1), SPI_Sele
      +ct_mode_and_pin_initialize@S_MISO(1), 
  9057 ;;		 -> SPI_Select_mode_and_pin_initialize@S_MOSI(1), SPI_Select_mode_and_pin_initialize@M_CLOCK(1), SPI_Select_mode_and
      +_pin_initialize@M_MISO(1), SPI_Select_mode_and_pin_initialize@M_MOSI(1), 
  9058 ;;		 -> led_turn_off@pin_config(1), led_turn_on@pin_config(1), led_initialize@pin_config(1), 
  9059 ;;  logic           1    4[COMRAM] enum E2965
  9060 ;; Auto vars:     Size  Location     Type
  9061 ;;  ret             1   11[COMRAM] unsigned char 
  9062 ;; Return value:  Size  Location     Type
  9063 ;;                  1    wreg      unsigned char 
  9064 ;; Registers used:
  9065 ;;		wreg, fsr2l, fsr2h, status,2, status,0, prodl, prodh
  9066 ;; Tracked objects:
  9067 ;;		On entry : 0/0
  9068 ;;		On exit  : 0/0
  9069 ;;		Unchanged: 0/0
  9070 ;; Data sizes:     COMRAM   BANK0   BANK1   BANK2   BANK3   BANK4   BANK5   BANK6   BANK7   BANK8   BANK9  BANK10  BANK1
      +1  BANK12  BANK13  BANK14  BANK15
  9071 ;;      Params:         3       0       0       0       0       0       0       0       0       0       0       0       
      +0       0       0       0       0
  9072 ;;      Locals:         1       0       0       0       0       0       0       0       0       0       0       0       
      +0       0       0       0       0
  9073 ;;      Temps:          6       0       0       0       0       0       0       0       0       0       0       0       
      +0       0       0       0       0
  9074 ;;      Totals:        10       0       0       0       0       0       0       0       0       0       0       0       
      +0       0       0       0       0
  9075 ;;Total ram usage:       10 bytes
  9076 ;; Hardware stack levels used: 1
  9077 ;; Hardware stack levels required when called: 3
  9078 ;; This function calls:
  9079 ;;		Nothing
  9080 ;; This function is called by:
  9081 ;;		_lcd_4bit_send_command
  9082 ;;		_lcd_4bit_send_char_data
  9083 ;;		_send_data_4bit_mode
  9084 ;;		_send_4bit_mode_enable
  9085 ;;		_keypad_get_value
  9086 ;;		_led_turn_on
  9087 ;;		_led_turn_off
  9088 ;;		_gpio_Pin_Intialize
  9089 ;;		_u8SpiTranmitRecieve
  9090 ;;		_lcd_8bit_send_command
  9091 ;;		_lcd_8bit_send_char_data
  9092 ;;		_send_8bit_mode_enable
  9093 ;; This function uses a non-reentrant model
  9094 ;;
  9095                           
  9096                           	psect	text41
  9097   00172C                     __ptext41:
  9098                           	callstack 0
  9099   00172C                     _gpio_Pin_Write_Logic:
  9100                           	callstack 25
  9101   00172C                     
  9102                           ;MCAL_LAYER/GPIO/hal_gpio.c: 76:     Std_ReturnType ret=(Std_ReturnType)0x01;
  9103   00172C  0E01               	movlw	1
  9104   00172E  6E3A               	movwf	gpio_Pin_Write_Logic@ret^0,c
  9105   001730                     
  9106                           ;MCAL_LAYER/GPIO/hal_gpio.c: 77:     if (((void*)0)==pin_config || pin_config->pin > 8 -
      +                          1 ){
  9107   001730  5031               	movf	gpio_Pin_Write_Logic@pin_config^0,w,c
  9108   001732  1032               	iorwf	(gpio_Pin_Write_Logic@pin_config+1)^0,w,c
  9109   001734  B4D8               	btfsc	status,2,c
  9110   001736  EF9F  F00B         	goto	u4321
  9111   00173A  EFA1  F00B         	goto	u4320
  9112   00173E                     u4321:
  9113   00173E  EFB2  F00B         	goto	l5507
  9114   001742                     u4320:
  9115   001742  C031  FFD9         	movff	gpio_Pin_Write_Logic@pin_config,fsr2l
  9116   001746  C032  FFDA         	movff	gpio_Pin_Write_Logic@pin_config+1,fsr2h
  9117   00174A  30DF               	rrcf	223,w,c
  9118   00174C  32E8               	rrcf	wreg,f,c
  9119   00174E  32E8               	rrcf	wreg,f,c
  9120   001750  0B07               	andlw	7
  9121   001752  6E34               	movwf	??_gpio_Pin_Write_Logic^0,c
  9122   001754  0E07               	movlw	7
  9123   001756  6434               	cpfsgt	??_gpio_Pin_Write_Logic^0,c
  9124   001758  EFB0  F00B         	goto	u4331
  9125   00175C  EFB2  F00B         	goto	u4330
  9126   001760                     u4331:
  9127   001760  EF15  F00C         	goto	l5515
  9128   001764                     u4330:
  9129   001764                     l5507:
  9130                           
  9131                           ;MCAL_LAYER/GPIO/hal_gpio.c: 78:         ret=(Std_ReturnType)0x00;
  9132   001764  0E00               	movlw	0
  9133   001766  6E3A               	movwf	gpio_Pin_Write_Logic@ret^0,c
  9134   001768  EF15  F00C         	goto	l5515
  9135   00176C                     l5509:
  9136                           
  9137                           ;MCAL_LAYER/GPIO/hal_gpio.c: 82:             (*lat_registers[pin_config->port] &=~((uint
      +                          8)1 << pin_config->pin));
  9138   00176C  C031  FFD9         	movff	gpio_Pin_Write_Logic@pin_config,fsr2l
  9139   001770  C032  FFDA         	movff	gpio_Pin_Write_Logic@pin_config+1,fsr2h
  9140   001774  30DF               	rrcf	223,w,c
  9141   001776  32E8               	rrcf	wreg,f,c
  9142   001778  32E8               	rrcf	wreg,f,c
  9143   00177A  0B07               	andlw	7
  9144   00177C  6E34               	movwf	??_gpio_Pin_Write_Logic^0,c
  9145   00177E  0E01               	movlw	1
  9146   001780  6E35               	movwf	(??_gpio_Pin_Write_Logic+1)^0,c
  9147   001782  2A34               	incf	??_gpio_Pin_Write_Logic^0,f,c
  9148   001784  EFC6  F00B         	goto	u4344
  9149   001788                     u4345:
  9150   001788  90D8               	bcf	status,0,c
  9151   00178A  3635               	rlcf	(??_gpio_Pin_Write_Logic+1)^0,f,c
  9152   00178C                     u4344:
  9153   00178C  2E34               	decfsz	??_gpio_Pin_Write_Logic^0,f,c
  9154   00178E  EFC4  F00B         	goto	u4345
  9155   001792  5035               	movf	(??_gpio_Pin_Write_Logic+1)^0,w,c
  9156   001794  0AFF               	xorlw	255
  9157   001796  6E36               	movwf	(??_gpio_Pin_Write_Logic+2)^0,c
  9158   001798  C031  FFD9         	movff	gpio_Pin_Write_Logic@pin_config,fsr2l
  9159   00179C  C032  FFDA         	movff	gpio_Pin_Write_Logic@pin_config+1,fsr2h
  9160   0017A0  50DF               	movf	223,w,c
  9161   0017A2  0B07               	andlw	7
  9162   0017A4  6E37               	movwf	(??_gpio_Pin_Write_Logic+3)^0,c
  9163   0017A6  5037               	movf	(??_gpio_Pin_Write_Logic+3)^0,w,c
  9164   0017A8  0D02               	mullw	2
  9165   0017AA  0E01               	movlw	low _lat_registers
  9166   0017AC  24F3               	addwf	243,w,c
  9167   0017AE  6ED9               	movwf	fsr2l,c
  9168   0017B0  0E00               	movlw	high _lat_registers
  9169   0017B2  20F4               	addwfc	prodh,w,c
  9170   0017B4  6EDA               	movwf	fsr2h,c
  9171   0017B6  CFDE F038          	movff	postinc2,??_gpio_Pin_Write_Logic+4
  9172   0017BA  CFDD F039          	movff	postdec2,??_gpio_Pin_Write_Logic+5
  9173   0017BE  C038  FFD9         	movff	??_gpio_Pin_Write_Logic+4,fsr2l
  9174   0017C2  C039  FFDA         	movff	??_gpio_Pin_Write_Logic+5,fsr2h
  9175   0017C6  5036               	movf	(??_gpio_Pin_Write_Logic+2)^0,w,c
  9176   0017C8  16DF               	andwf	indf2,f,c
  9177                           
  9178                           ;MCAL_LAYER/GPIO/hal_gpio.c: 83:             break;
  9179   0017CA  EF2A  F00C         	goto	l5517
  9180   0017CE                     l5511:
  9181                           
  9182                           ;MCAL_LAYER/GPIO/hal_gpio.c: 85:             (*lat_registers[pin_config->port] |=((uint8
      +                          )1 << pin_config->pin));
  9183   0017CE  C031  FFD9         	movff	gpio_Pin_Write_Logic@pin_config,fsr2l
  9184   0017D2  C032  FFDA         	movff	gpio_Pin_Write_Logic@pin_config+1,fsr2h
  9185   0017D6  30DF               	rrcf	223,w,c
  9186   0017D8  32E8               	rrcf	wreg,f,c
  9187   0017DA  32E8               	rrcf	wreg,f,c
  9188   0017DC  0B07               	andlw	7
  9189   0017DE  6E34               	movwf	??_gpio_Pin_Write_Logic^0,c
  9190   0017E0  0E01               	movlw	1
  9191   0017E2  6E35               	movwf	(??_gpio_Pin_Write_Logic+1)^0,c
  9192   0017E4  2A34               	incf	??_gpio_Pin_Write_Logic^0,f,c
  9193   0017E6  EFF7  F00B         	goto	u4354
  9194   0017EA                     u4355:
  9195   0017EA  90D8               	bcf	status,0,c
  9196   0017EC  3635               	rlcf	(??_gpio_Pin_Write_Logic+1)^0,f,c
  9197   0017EE                     u4354:
  9198   0017EE  2E34               	decfsz	??_gpio_Pin_Write_Logic^0,f,c
  9199   0017F0  EFF5  F00B         	goto	u4355
  9200   0017F4  C031  FFD9         	movff	gpio_Pin_Write_Logic@pin_config,fsr2l
  9201   0017F8  C032  FFDA         	movff	gpio_Pin_Write_Logic@pin_config+1,fsr2h
  9202   0017FC  50DF               	movf	223,w,c
  9203   0017FE  0B07               	andlw	7
  9204   001800  6E36               	movwf	(??_gpio_Pin_Write_Logic+2)^0,c
  9205   001802  5036               	movf	(??_gpio_Pin_Write_Logic+2)^0,w,c
  9206   001804  0D02               	mullw	2
  9207   001806  0E01               	movlw	low _lat_registers
  9208   001808  24F3               	addwf	243,w,c
  9209   00180A  6ED9               	movwf	fsr2l,c
  9210   00180C  0E00               	movlw	high _lat_registers
  9211   00180E  20F4               	addwfc	prodh,w,c
  9212   001810  6EDA               	movwf	fsr2h,c
  9213   001812  CFDE F037          	movff	postinc2,??_gpio_Pin_Write_Logic+3
  9214   001816  CFDD F038          	movff	postdec2,??_gpio_Pin_Write_Logic+4
  9215   00181A  C037  FFD9         	movff	??_gpio_Pin_Write_Logic+3,fsr2l
  9216   00181E  C038  FFDA         	movff	??_gpio_Pin_Write_Logic+4,fsr2h
  9217   001822  5035               	movf	(??_gpio_Pin_Write_Logic+1)^0,w,c
  9218   001824  12DF               	iorwf	indf2,f,c
  9219                           
  9220                           ;MCAL_LAYER/GPIO/hal_gpio.c: 86:             break;
  9221   001826  EF2A  F00C         	goto	l5517
  9222   00182A                     l5515:
  9223   00182A  5033               	movf	gpio_Pin_Write_Logic@logic^0,w,c
  9224   00182C  6E34               	movwf	??_gpio_Pin_Write_Logic^0,c
  9225   00182E  6A35               	clrf	(??_gpio_Pin_Write_Logic+1)^0,c
  9226                           
  9227                           ; Switch on 2 bytes has been partitioned into a top level switch of size 1, and 1 sub-sw
      +                          itches
  9228                           ; Switch size 1, requested type "simple"
  9229                           ; Number of cases is 1, Range of values is 0 to 0
  9230                           ; switch strategies available:
  9231                           ; Name         Instructions Cycles
  9232                           ; simple_byte            4     3 (average)
  9233                           ;	Chosen strategy is simple_byte
  9234   001830  5035               	movf	(??_gpio_Pin_Write_Logic+1)^0,w,c
  9235   001832  0A00               	xorlw	0	; case 0
  9236   001834  B4D8               	btfsc	status,2,c
  9237   001836  EF1F  F00C         	goto	l7299
  9238   00183A  EF2A  F00C         	goto	l5517
  9239   00183E                     l7299:
  9240                           
  9241                           ; Switch size 1, requested type "simple"
  9242                           ; Number of cases is 2, Range of values is 0 to 1
  9243                           ; switch strategies available:
  9244                           ; Name         Instructions Cycles
  9245                           ; simple_byte            7     4 (average)
  9246                           ;	Chosen strategy is simple_byte
  9247   00183E  5034               	movf	??_gpio_Pin_Write_Logic^0,w,c
  9248   001840  0A00               	xorlw	0	; case 0
  9249   001842  B4D8               	btfsc	status,2,c
  9250   001844  EFB6  F00B         	goto	l5509
  9251   001848  0A01               	xorlw	1	; case 1
  9252   00184A  B4D8               	btfsc	status,2,c
  9253   00184C  EFE7  F00B         	goto	l5511
  9254   001850  EF2A  F00C         	goto	l5517
  9255   001854                     l5517:
  9256                           
  9257                           ;MCAL_LAYER/GPIO/hal_gpio.c: 88:     return ret;
  9258   001854  503A               	movf	gpio_Pin_Write_Logic@ret^0,w,c
  9259   001856  0012               	return		;funcret
  9260   001858                     __end_of_gpio_Pin_Write_Logic:
  9261                           	callstack 0
  9262                           
  9263 ;; *************** function _gpio_Pin_Derction_Intialize *****************
  9264 ;; Defined at:
  9265 ;;		line 24 in file "MCAL_LAYER/GPIO/hal_gpio.c"
  9266 ;; Parameters:    Size  Location     Type
  9267 ;;  pin_config      2    2[COMRAM] PTR const struct .
  9268 ;;		 -> PIN_SelectChannel(1), Lcd_Obj.lcd_data(4), Lcd_Obj(6), Keypad_Obj.pin_keypad_colums(4), 
  9269 ;;		 -> Keypad_Obj.pin_keypad_rows(4), Keypad_Obj(8), SPI_Select_mode_and_pin_initialize@SS(1), SPI_Select_mode_and_pin_
      +initialize@S_CLOCK(1), 
  9270 ;;		 -> SPI_Select_mode_and_pin_initialize@S_MISO(1), SPI_Select_mode_and_pin_initialize@S_MOSI(1), SPI_Select_mode_and_
      +pin_initialize@M_CLOCK(1), SPI_Select_mode_and_pin_initialize@M_MISO(1), 
  9271 ;;		 -> SPI_Select_mode_and_pin_initialize@M_MOSI(1), led_initialize@pin_config(1), 
  9272 ;; Auto vars:     Size  Location     Type
  9273 ;;  ret             1   10[COMRAM] unsigned char 
  9274 ;; Return value:  Size  Location     Type
  9275 ;;                  1    wreg      unsigned char 
  9276 ;; Registers used:
  9277 ;;		wreg, fsr2l, fsr2h, status,2, status,0, prodl, prodh
  9278 ;; Tracked objects:
  9279 ;;		On entry : 0/0
  9280 ;;		On exit  : 0/0
  9281 ;;		Unchanged: 0/0
  9282 ;; Data sizes:     COMRAM   BANK0   BANK1   BANK2   BANK3   BANK4   BANK5   BANK6   BANK7   BANK8   BANK9  BANK10  BANK1
      +1  BANK12  BANK13  BANK14  BANK15
  9283 ;;      Params:         2       0       0       0       0       0       0       0       0       0       0       0       
      +0       0       0       0       0
  9284 ;;      Locals:         1       0       0       0       0       0       0       0       0       0       0       0       
      +0       0       0       0       0
  9285 ;;      Temps:          6       0       0       0       0       0       0       0       0       0       0       0       
      +0       0       0       0       0
  9286 ;;      Totals:         9       0       0       0       0       0       0       0       0       0       0       0       
      +0       0       0       0       0
  9287 ;;Total ram usage:        9 bytes
  9288 ;; Hardware stack levels used: 1
  9289 ;; Hardware stack levels required when called: 3
  9290 ;; This function calls:
  9291 ;;		Nothing
  9292 ;; This function is called by:
  9293 ;;		_keypad_initialize
  9294 ;;		_gpio_Pin_Intialize
  9295 ;; This function uses a non-reentrant model
  9296 ;;
  9297                           
  9298                           	psect	text42
  9299   0015E8                     __ptext42:
  9300                           	callstack 0
  9301   0015E8                     _gpio_Pin_Derction_Intialize:
  9302                           	callstack 25
  9303   0015E8                     
  9304                           ;MCAL_LAYER/GPIO/hal_gpio.c: 25:     Std_ReturnType ret=(Std_ReturnType)0x01;
  9305   0015E8  0E01               	movlw	1
  9306   0015EA  6E39               	movwf	gpio_Pin_Derction_Intialize@ret^0,c
  9307   0015EC                     
  9308                           ;MCAL_LAYER/GPIO/hal_gpio.c: 26:     if ((((void*)0)==pin_config) || (pin_config->pin > 
      +                          8 -1)){
  9309   0015EC  5031               	movf	gpio_Pin_Derction_Intialize@pin_config^0,w,c
  9310   0015EE  1032               	iorwf	(gpio_Pin_Derction_Intialize@pin_config+1)^0,w,c
  9311   0015F0  B4D8               	btfsc	status,2,c
  9312   0015F2  EFFD  F00A         	goto	u4381
  9313   0015F6  EFFF  F00A         	goto	u4380
  9314   0015FA                     u4381:
  9315   0015FA  EF10  F00B         	goto	l5559
  9316   0015FE                     u4380:
  9317   0015FE  C031  FFD9         	movff	gpio_Pin_Derction_Intialize@pin_config,fsr2l
  9318   001602  C032  FFDA         	movff	gpio_Pin_Derction_Intialize@pin_config+1,fsr2h
  9319   001606  30DF               	rrcf	223,w,c
  9320   001608  32E8               	rrcf	wreg,f,c
  9321   00160A  32E8               	rrcf	wreg,f,c
  9322   00160C  0B07               	andlw	7
  9323   00160E  6E33               	movwf	??_gpio_Pin_Derction_Intialize^0,c
  9324   001610  0E07               	movlw	7
  9325   001612  6433               	cpfsgt	??_gpio_Pin_Derction_Intialize^0,c
  9326   001614  EF0E  F00B         	goto	u4391
  9327   001618  EF10  F00B         	goto	u4390
  9328   00161C                     u4391:
  9329   00161C  EF73  F00B         	goto	l5567
  9330   001620                     u4390:
  9331   001620                     l5559:
  9332                           
  9333                           ;MCAL_LAYER/GPIO/hal_gpio.c: 27:         ret=(Std_ReturnType)0x00;
  9334   001620  0E00               	movlw	0
  9335   001622  6E39               	movwf	gpio_Pin_Derction_Intialize@ret^0,c
  9336                           
  9337                           ;MCAL_LAYER/GPIO/hal_gpio.c: 28:     }
  9338   001624  EF94  F00B         	goto	l5569
  9339   001628                     l5561:
  9340                           
  9341                           ;MCAL_LAYER/GPIO/hal_gpio.c: 32:                 (*tris_registers[pin_config->port] &=~(
      +                          (uint8)1 << pin_config->pin));
  9342   001628  C031  FFD9         	movff	gpio_Pin_Derction_Intialize@pin_config,fsr2l
  9343   00162C  C032  FFDA         	movff	gpio_Pin_Derction_Intialize@pin_config+1,fsr2h
  9344   001630  30DF               	rrcf	223,w,c
  9345   001632  32E8               	rrcf	wreg,f,c
  9346   001634  32E8               	rrcf	wreg,f,c
  9347   001636  0B07               	andlw	7
  9348   001638  6E33               	movwf	??_gpio_Pin_Derction_Intialize^0,c
  9349   00163A  0E01               	movlw	1
  9350   00163C  6E34               	movwf	(??_gpio_Pin_Derction_Intialize+1)^0,c
  9351   00163E  2A33               	incf	??_gpio_Pin_Derction_Intialize^0,f,c
  9352   001640  EF24  F00B         	goto	u4404
  9353   001644                     u4405:
  9354   001644  90D8               	bcf	status,0,c
  9355   001646  3634               	rlcf	(??_gpio_Pin_Derction_Intialize+1)^0,f,c
  9356   001648                     u4404:
  9357   001648  2E33               	decfsz	??_gpio_Pin_Derction_Intialize^0,f,c
  9358   00164A  EF22  F00B         	goto	u4405
  9359   00164E  5034               	movf	(??_gpio_Pin_Derction_Intialize+1)^0,w,c
  9360   001650  0AFF               	xorlw	255
  9361   001652  6E35               	movwf	(??_gpio_Pin_Derction_Intialize+2)^0,c
  9362   001654  C031  FFD9         	movff	gpio_Pin_Derction_Intialize@pin_config,fsr2l
  9363   001658  C032  FFDA         	movff	gpio_Pin_Derction_Intialize@pin_config+1,fsr2h
  9364   00165C  50DF               	movf	223,w,c
  9365   00165E  0B07               	andlw	7
  9366   001660  6E36               	movwf	(??_gpio_Pin_Derction_Intialize+3)^0,c
  9367   001662  5036               	movf	(??_gpio_Pin_Derction_Intialize+3)^0,w,c
  9368   001664  0D02               	mullw	2
  9369   001666  0E8A               	movlw	low _tris_registers
  9370   001668  24F3               	addwf	243,w,c
  9371   00166A  6ED9               	movwf	fsr2l,c
  9372   00166C  0E00               	movlw	high _tris_registers
  9373   00166E  20F4               	addwfc	prodh,w,c
  9374   001670  6EDA               	movwf	fsr2h,c
  9375   001672  CFDE F037          	movff	postinc2,??_gpio_Pin_Derction_Intialize+4
  9376   001676  CFDD F038          	movff	postdec2,??_gpio_Pin_Derction_Intialize+5
  9377   00167A  C037  FFD9         	movff	??_gpio_Pin_Derction_Intialize+4,fsr2l
  9378   00167E  C038  FFDA         	movff	??_gpio_Pin_Derction_Intialize+5,fsr2h
  9379   001682  5035               	movf	(??_gpio_Pin_Derction_Intialize+2)^0,w,c
  9380   001684  16DF               	andwf	indf2,f,c
  9381                           
  9382                           ;MCAL_LAYER/GPIO/hal_gpio.c: 33:              break;
  9383   001686  EF94  F00B         	goto	l5569
  9384   00168A                     l5563:
  9385                           
  9386                           ;MCAL_LAYER/GPIO/hal_gpio.c: 35:                 (*tris_registers[pin_config->port] |=((
      +                          uint8)1 << pin_config->pin));
  9387   00168A  C031  FFD9         	movff	gpio_Pin_Derction_Intialize@pin_config,fsr2l
  9388   00168E  C032  FFDA         	movff	gpio_Pin_Derction_Intialize@pin_config+1,fsr2h
  9389   001692  30DF               	rrcf	223,w,c
  9390   001694  32E8               	rrcf	wreg,f,c
  9391   001696  32E8               	rrcf	wreg,f,c
  9392   001698  0B07               	andlw	7
  9393   00169A  6E33               	movwf	??_gpio_Pin_Derction_Intialize^0,c
  9394   00169C  0E01               	movlw	1
  9395   00169E  6E34               	movwf	(??_gpio_Pin_Derction_Intialize+1)^0,c
  9396   0016A0  2A33               	incf	??_gpio_Pin_Derction_Intialize^0,f,c
  9397   0016A2  EF55  F00B         	goto	u4414
  9398   0016A6                     u4415:
  9399   0016A6  90D8               	bcf	status,0,c
  9400   0016A8  3634               	rlcf	(??_gpio_Pin_Derction_Intialize+1)^0,f,c
  9401   0016AA                     u4414:
  9402   0016AA  2E33               	decfsz	??_gpio_Pin_Derction_Intialize^0,f,c
  9403   0016AC  EF53  F00B         	goto	u4415
  9404   0016B0  C031  FFD9         	movff	gpio_Pin_Derction_Intialize@pin_config,fsr2l
  9405   0016B4  C032  FFDA         	movff	gpio_Pin_Derction_Intialize@pin_config+1,fsr2h
  9406   0016B8  50DF               	movf	223,w,c
  9407   0016BA  0B07               	andlw	7
  9408   0016BC  6E35               	movwf	(??_gpio_Pin_Derction_Intialize+2)^0,c
  9409   0016BE  5035               	movf	(??_gpio_Pin_Derction_Intialize+2)^0,w,c
  9410   0016C0  0D02               	mullw	2
  9411   0016C2  0E8A               	movlw	low _tris_registers
  9412   0016C4  24F3               	addwf	243,w,c
  9413   0016C6  6ED9               	movwf	fsr2l,c
  9414   0016C8  0E00               	movlw	high _tris_registers
  9415   0016CA  20F4               	addwfc	prodh,w,c
  9416   0016CC  6EDA               	movwf	fsr2h,c
  9417   0016CE  CFDE F036          	movff	postinc2,??_gpio_Pin_Derction_Intialize+3
  9418   0016D2  CFDD F037          	movff	postdec2,??_gpio_Pin_Derction_Intialize+4
  9419   0016D6  C036  FFD9         	movff	??_gpio_Pin_Derction_Intialize+3,fsr2l
  9420   0016DA  C037  FFDA         	movff	??_gpio_Pin_Derction_Intialize+4,fsr2h
  9421   0016DE  5034               	movf	(??_gpio_Pin_Derction_Intialize+1)^0,w,c
  9422   0016E0  12DF               	iorwf	indf2,f,c
  9423                           
  9424                           ;MCAL_LAYER/GPIO/hal_gpio.c: 36:                 break;
  9425   0016E2  EF94  F00B         	goto	l5569
  9426   0016E6                     l5567:
  9427   0016E6  C031  FFD9         	movff	gpio_Pin_Derction_Intialize@pin_config,fsr2l
  9428   0016EA  C032  FFDA         	movff	gpio_Pin_Derction_Intialize@pin_config+1,fsr2h
  9429   0016EE  BCDF               	btfsc	indf2,6,c
  9430   0016F0  EF7C  F00B         	goto	u4421
  9431   0016F4  EF7F  F00B         	goto	u4420
  9432   0016F8                     u4421:
  9433   0016F8  0E01               	movlw	1
  9434   0016FA  EF80  F00B         	goto	u4430
  9435   0016FE                     u4420:
  9436   0016FE  0E00               	movlw	0
  9437   001700                     u4430:
  9438   001700  6E33               	movwf	??_gpio_Pin_Derction_Intialize^0,c
  9439   001702  6A34               	clrf	(??_gpio_Pin_Derction_Intialize+1)^0,c
  9440                           
  9441                           ; Switch on 2 bytes has been partitioned into a top level switch of size 1, and 1 sub-sw
      +                          itches
  9442                           ; Switch size 1, requested type "simple"
  9443                           ; Number of cases is 1, Range of values is 0 to 0
  9444                           ; switch strategies available:
  9445                           ; Name         Instructions Cycles
  9446                           ; simple_byte            4     3 (average)
  9447                           ;	Chosen strategy is simple_byte
  9448   001704  5034               	movf	(??_gpio_Pin_Derction_Intialize+1)^0,w,c
  9449   001706  0A00               	xorlw	0	; case 0
  9450   001708  B4D8               	btfsc	status,2,c
  9451   00170A  EF89  F00B         	goto	l7301
  9452   00170E  EF10  F00B         	goto	l5559
  9453   001712                     l7301:
  9454                           
  9455                           ; Switch size 1, requested type "simple"
  9456                           ; Number of cases is 2, Range of values is 0 to 1
  9457                           ; switch strategies available:
  9458                           ; Name         Instructions Cycles
  9459                           ; simple_byte            7     4 (average)
  9460                           ;	Chosen strategy is simple_byte
  9461   001712  5033               	movf	??_gpio_Pin_Derction_Intialize^0,w,c
  9462   001714  0A00               	xorlw	0	; case 0
  9463   001716  B4D8               	btfsc	status,2,c
  9464   001718  EF14  F00B         	goto	l5561
  9465   00171C  0A01               	xorlw	1	; case 1
  9466   00171E  B4D8               	btfsc	status,2,c
  9467   001720  EF45  F00B         	goto	l5563
  9468   001724  EF10  F00B         	goto	l5559
  9469   001728                     l5569:
  9470                           
  9471                           ;MCAL_LAYER/GPIO/hal_gpio.c: 40:     return ret;
  9472   001728  5039               	movf	gpio_Pin_Derction_Intialize@ret^0,w,c
  9473   00172A  0012               	return		;funcret
  9474   00172C                     __end_of_gpio_Pin_Derction_Intialize:
  9475                           	callstack 0
  9476                           
  9477 ;; *************** function _interruptManager *****************
  9478 ;; Defined at:
  9479 ;;		line 19 in file "MCAL_LAYER/interrupt/mcal_interrupt_manager.c"
  9480 ;; Parameters:    Size  Location     Type
  9481 ;;		None
  9482 ;; Auto vars:     Size  Location     Type
  9483 ;;		None
  9484 ;; Return value:  Size  Location     Type
  9485 ;;                  1    wreg      void 
  9486 ;; Registers used:
  9487 ;;		wreg, status,2, status,0, pcl, pclath, pclatu, tosl, cstack
  9488 ;; Tracked objects:
  9489 ;;		On entry : 0/0
  9490 ;;		On exit  : 0/0
  9491 ;;		Unchanged: 0/0
  9492 ;; Data sizes:     COMRAM   BANK0   BANK1   BANK2   BANK3   BANK4   BANK5   BANK6   BANK7   BANK8   BANK9  BANK10  BANK1
      +1  BANK12  BANK13  BANK14  BANK15
  9493 ;;      Params:         0       0       0       0       0       0       0       0       0       0       0       0       
      +0       0       0       0       0
  9494 ;;      Locals:         0       0       0       0       0       0       0       0       0       0       0       0       
      +0       0       0       0       0
  9495 ;;      Temps:          2       0       0       0       0       0       0       0       0       0       0       0       
      +0       0       0       0       0
  9496 ;;      Totals:         2       0       0       0       0       0       0       0       0       0       0       0       
      +0       0       0       0       0
  9497 ;;Total ram usage:        2 bytes
  9498 ;; Hardware stack levels used: 1
  9499 ;; Hardware stack levels required when called: 2
  9500 ;; This function calls:
  9501 ;;		_SPI_ISR
  9502 ;;		_TIMER0_ISR
  9503 ;;		_TIMER1_ISR
  9504 ;; This function is called by:
  9505 ;;		Interrupt level 2
  9506 ;; This function uses a non-reentrant model
  9507 ;;
  9508                           
  9509                           	psect	intcode
  9510   000008                     __pintcode:
  9511                           	callstack 0
  9512   000008                     _interruptManager:
  9513                           	callstack 23
  9514                           
  9515                           ;incstack = 0
  9516   000008  8268               	bsf	int$flags,1,c	;set compiler interrupt flag (level 2)
  9517   00000A  EDE7  F010         	call	int_func,f	;refresh shadow registers
  9518                           
  9519                           	psect	intcode_body
  9520   0021CE                     __pintcode_body:
  9521                           	callstack 23
  9522   0021CE                     int_func:
  9523                           	callstack 23
  9524   0021CE  0006               	pop		; remove dummy address from shadow register refresh
  9525   0021D0  CFFA F02F          	movff	pclath,??_interruptManager
  9526   0021D4  CFFB F030          	movff	pclatu,??_interruptManager+1
  9527   0021D8                     
  9528                           ;MCAL_LAYER/interrupt/mcal_interrupt_manager.c: 23:     if ((1==INTCONbits.TMR0IE) && (1
      +                          ==INTCONbits.TMR0IF)){
  9529   0021D8  AAF2               	btfss	242,5,c	;volatile
  9530   0021DA  EFF1  F010         	goto	i2u152_41
  9531   0021DE  EFF3  F010         	goto	i2u152_40
  9532   0021E2                     i2u152_41:
  9533   0021E2  EFFC  F010         	goto	i2l2945
  9534   0021E6                     i2u152_40:
  9535   0021E6  A4F2               	btfss	242,2,c	;volatile
  9536   0021E8  EFF8  F010         	goto	i2u153_41
  9537   0021EC  EFFA  F010         	goto	i2u153_40
  9538   0021F0                     i2u153_41:
  9539   0021F0  EFFC  F010         	goto	i2l2945
  9540   0021F4                     i2u153_40:
  9541   0021F4                     
  9542                           ;MCAL_LAYER/interrupt/mcal_interrupt_manager.c: 24:         TIMER0_ISR();
  9543   0021F4  ECFA  F014         	call	_TIMER0_ISR	;wreg free
  9544   0021F8                     i2l2945:
  9545                           
  9546                           ;MCAL_LAYER/interrupt/mcal_interrupt_manager.c: 28:     if ((1==PIE1bits.TMR1IE) && (1==
      +                          PIR1bits.TMR1IF)){
  9547   0021F8  A09D               	btfss	157,0,c	;volatile
  9548   0021FA  EF01  F011         	goto	i2u154_41
  9549   0021FE  EF03  F011         	goto	i2u154_40
  9550   002202                     i2u154_41:
  9551   002202  EF0C  F011         	goto	i2l2951
  9552   002206                     i2u154_40:
  9553   002206  A09E               	btfss	158,0,c	;volatile
  9554   002208  EF08  F011         	goto	i2u155_41
  9555   00220C  EF0A  F011         	goto	i2u155_40
  9556   002210                     i2u155_41:
  9557   002210  EF0C  F011         	goto	i2l2951
  9558   002214                     i2u155_40:
  9559   002214                     
  9560                           ;MCAL_LAYER/interrupt/mcal_interrupt_manager.c: 29:         TIMER1_ISR();
  9561   002214  ECDF  F014         	call	_TIMER1_ISR	;wreg free
  9562   002218                     i2l2951:
  9563                           
  9564                           ;MCAL_LAYER/interrupt/mcal_interrupt_manager.c: 34:     if ((1==PIE1bits.SSPIE) && (1==P
      +                          IR1bits.SSPIF)){
  9565   002218  A69D               	btfss	157,3,c	;volatile
  9566   00221A  EF11  F011         	goto	i2u156_41
  9567   00221E  EF13  F011         	goto	i2u156_40
  9568   002222                     i2u156_41:
  9569   002222  EF1C  F011         	goto	i2l429
  9570   002226                     i2u156_40:
  9571   002226  A69E               	btfss	158,3,c	;volatile
  9572   002228  EF18  F011         	goto	i2u157_41
  9573   00222C  EF1A  F011         	goto	i2u157_40
  9574   002230                     i2u157_41:
  9575   002230  EF1C  F011         	goto	i2l429
  9576   002234                     i2u157_40:
  9577   002234                     
  9578                           ;MCAL_LAYER/interrupt/mcal_interrupt_manager.c: 35:         SPI_ISR();
  9579   002234  EC6A  F015         	call	_SPI_ISR	;wreg free
  9580   002238                     i2l429:
  9581   002238  C030  FFFB         	movff	??_interruptManager+1,pclatu
  9582   00223C  C02F  FFFA         	movff	??_interruptManager,pclath
  9583   002240  9268               	bcf	int$flags,1,c	;clear compiler interrupt flag (level 2)
  9584   002242  0011               	retfie		f
  9585   002244                     __end_of_interruptManager:
  9586                           	callstack 0
  9587                           
  9588 ;; *************** function _TIMER1_ISR *****************
  9589 ;; Defined at:
  9590 ;;		line 169 in file "MCAL_LAYER/TIMER1/hal_timer1.c"
  9591 ;; Parameters:    Size  Location     Type
  9592 ;;		None
  9593 ;; Auto vars:     Size  Location     Type
  9594 ;;		None
  9595 ;; Return value:  Size  Location     Type
  9596 ;;                  1    wreg      void 
  9597 ;; Registers used:
  9598 ;;		wreg, status,2, status,0, pcl, pclath, pclatu, tosl, cstack
  9599 ;; Tracked objects:
  9600 ;;		On entry : 0/0
  9601 ;;		On exit  : 0/0
  9602 ;;		Unchanged: 0/0
  9603 ;; Data sizes:     COMRAM   BANK0   BANK1   BANK2   BANK3   BANK4   BANK5   BANK6   BANK7   BANK8   BANK9  BANK10  BANK1
      +1  BANK12  BANK13  BANK14  BANK15
  9604 ;;      Params:         0       0       0       0       0       0       0       0       0       0       0       0       
      +0       0       0       0       0
  9605 ;;      Locals:         0       0       0       0       0       0       0       0       0       0       0       0       
      +0       0       0       0       0
  9606 ;;      Temps:          0       0       0       0       0       0       0       0       0       0       0       0       
      +0       0       0       0       0
  9607 ;;      Totals:         0       0       0       0       0       0       0       0       0       0       0       0       
      +0       0       0       0       0
  9608 ;;Total ram usage:        0 bytes
  9609 ;; Hardware stack levels used: 1
  9610 ;; Hardware stack levels required when called: 1
  9611 ;; This function calls:
  9612 ;;		Absolute function
  9613 ;;		_Timer1Handler
  9614 ;; This function is called by:
  9615 ;;		_interruptManager
  9616 ;; This function uses a non-reentrant model
  9617 ;;
  9618                           
  9619                           	psect	text44
  9620   0029BE                     __ptext44:
  9621                           	callstack 0
  9622   0029BE                     _TIMER1_ISR:
  9623                           	callstack 23
  9624   0029BE                     
  9625                           ;MCAL_LAYER/TIMER1/hal_timer1.c: 171:     (PIR1bits.TMR1IF=0);
  9626   0029BE  909E               	bcf	158,0,c	;volatile
  9627   0029C0                     
  9628                           ;MCAL_LAYER/TIMER1/hal_timer1.c: 172:     TMR1H=(preload_timer1) >>8;
  9629   0029C0  5058               	movf	(_preload_timer1+1)^0,w,c
  9630   0029C2  6ECF               	movwf	207,c	;volatile
  9631   0029C4                     
  9632                           ;MCAL_LAYER/TIMER1/hal_timer1.c: 173:     TMR1L=(uint8)(preload_timer1);
  9633   0029C4  C057  FFCE         	movff	_preload_timer1,4046	;volatile
  9634   0029C8                     
  9635                           ;MCAL_LAYER/TIMER1/hal_timer1.c: 174:     if (TIMER1_interruptHandler){
  9636   0029C8  5059               	movf	_TIMER1_interruptHandler^0,w,c
  9637   0029CA  105A               	iorwf	(_TIMER1_interruptHandler+1)^0,w,c
  9638   0029CC  B4D8               	btfsc	status,2,c
  9639   0029CE  EFEB  F014         	goto	i2u95_41
  9640   0029D2  EFED  F014         	goto	i2u95_40
  9641   0029D6                     i2u95_41:
  9642   0029D6  EFF9  F014         	goto	i2l683
  9643   0029DA                     i2u95_40:
  9644   0029DA                     
  9645                           ;MCAL_LAYER/TIMER1/hal_timer1.c: 175:         TIMER1_interruptHandler();
  9646   0029DA  D802               	call	i2u96_48
  9647   0029DC  EFF9  F014         	goto	i2u96_49
  9648   0029E0                     i2u96_48:
  9649   0029E0  0005               	push	
  9650   0029E2  6EFA               	movwf	pclath,c
  9651   0029E4  5059               	movf	_TIMER1_interruptHandler^0,w,c
  9652   0029E6  6EFD               	movwf	tosl,c
  9653   0029E8  505A               	movf	(_TIMER1_interruptHandler+1)^0,w,c
  9654   0029EA  6EFE               	movwf	tosh,c
  9655   0029EC  6AFF               	clrf	tosu,c
  9656   0029EE  50FA               	movf	pclath,w,c
  9657   0029F0  0012               	return		;indir
  9658   0029F2                     i2u96_49:
  9659   0029F2                     i2l683:
  9660   0029F2  0012               	return		;funcret
  9661   0029F4                     __end_of_TIMER1_ISR:
  9662                           	callstack 0
  9663                           
  9664 ;; *************** function _Timer1Handler *****************
  9665 ;; Defined at:
  9666 ;;		line 454 in file "application.c"
  9667 ;; Parameters:    Size  Location     Type
  9668 ;;		None
  9669 ;; Auto vars:     Size  Location     Type
  9670 ;;		None
  9671 ;; Return value:  Size  Location     Type
  9672 ;;                  1    wreg      void 
  9673 ;; Registers used:
  9674 ;;		status,2, status,0
  9675 ;; Tracked objects:
  9676 ;;		On entry : 0/0
  9677 ;;		On exit  : 0/0
  9678 ;;		Unchanged: 0/0
  9679 ;; Data sizes:     COMRAM   BANK0   BANK1   BANK2   BANK3   BANK4   BANK5   BANK6   BANK7   BANK8   BANK9  BANK10  BANK1
      +1  BANK12  BANK13  BANK14  BANK15
  9680 ;;      Params:         0       0       0       0       0       0       0       0       0       0       0       0       
      +0       0       0       0       0
  9681 ;;      Locals:         0       0       0       0       0       0       0       0       0       0       0       0       
      +0       0       0       0       0
  9682 ;;      Temps:          0       0       0       0       0       0       0       0       0       0       0       0       
      +0       0       0       0       0
  9683 ;;      Totals:         0       0       0       0       0       0       0       0       0       0       0       0       
      +0       0       0       0       0
  9684 ;;Total ram usage:        0 bytes
  9685 ;; Hardware stack levels used: 1
  9686 ;; This function calls:
  9687 ;;		Nothing
  9688 ;; This function is called by:
  9689 ;;		_TIMER1_ISR
  9690 ;; This function uses a non-reentrant model
  9691 ;;
  9692                           
  9693                           	psect	text45
  9694   002AC8                     __ptext45:
  9695                           	callstack 0
  9696   002AC8                     _Timer1Handler:
  9697                           	callstack 23
  9698   002AC8                     
  9699                           ;application.c: 455:     SessionCounter++;
  9700   002AC8  4A55               	infsnz	_SessionCounter^0,f,c	;volatile
  9701   002ACA  2A56               	incf	(_SessionCounter+1)^0,f,c	;volatile
  9702   002ACC  0012               	return		;funcret
  9703   002ACE                     __end_of_Timer1Handler:
  9704                           	callstack 0
  9705                           
  9706 ;; *************** function _TIMER0_ISR *****************
  9707 ;; Defined at:
  9708 ;;		line 173 in file "MCAL_LAYER/TIMER0/hal_timer0.c"
  9709 ;; Parameters:    Size  Location     Type
  9710 ;;		None
  9711 ;; Auto vars:     Size  Location     Type
  9712 ;;		None
  9713 ;; Return value:  Size  Location     Type
  9714 ;;                  1    wreg      void 
  9715 ;; Registers used:
  9716 ;;		wreg, status,2, status,0, pcl, pclath, pclatu, tosl, cstack
  9717 ;; Tracked objects:
  9718 ;;		On entry : 0/0
  9719 ;;		On exit  : 0/0
  9720 ;;		Unchanged: 0/0
  9721 ;; Data sizes:     COMRAM   BANK0   BANK1   BANK2   BANK3   BANK4   BANK5   BANK6   BANK7   BANK8   BANK9  BANK10  BANK1
      +1  BANK12  BANK13  BANK14  BANK15
  9722 ;;      Params:         0       0       0       0       0       0       0       0       0       0       0       0       
      +0       0       0       0       0
  9723 ;;      Locals:         0       0       0       0       0       0       0       0       0       0       0       0       
      +0       0       0       0       0
  9724 ;;      Temps:          0       0       0       0       0       0       0       0       0       0       0       0       
      +0       0       0       0       0
  9725 ;;      Totals:         0       0       0       0       0       0       0       0       0       0       0       0       
      +0       0       0       0       0
  9726 ;;Total ram usage:        0 bytes
  9727 ;; Hardware stack levels used: 1
  9728 ;; Hardware stack levels required when called: 1
  9729 ;; This function calls:
  9730 ;;		Absolute function
  9731 ;;		_Timer0Interrupt
  9732 ;; This function is called by:
  9733 ;;		_interruptManager
  9734 ;; This function uses a non-reentrant model
  9735 ;;
  9736                           
  9737                           	psect	text46
  9738   0029F4                     __ptext46:
  9739                           	callstack 0
  9740   0029F4                     _TIMER0_ISR:
  9741                           	callstack 23
  9742   0029F4                     
  9743                           ;MCAL_LAYER/TIMER0/hal_timer0.c: 175:     (INTCONbits.TMR0IF=0);
  9744   0029F4  94F2               	bcf	242,2,c	;volatile
  9745   0029F6                     
  9746                           ;MCAL_LAYER/TIMER0/hal_timer0.c: 176:     TMR0H=(preload_timer) >> 8;
  9747   0029F6  505C               	movf	(_preload_timer+1)^0,w,c
  9748   0029F8  6ED7               	movwf	215,c	;volatile
  9749   0029FA                     
  9750                           ;MCAL_LAYER/TIMER0/hal_timer0.c: 177:     TMR0L=(uint8)(preload_timer);
  9751   0029FA  C05B  FFD6         	movff	_preload_timer,4054	;volatile
  9752   0029FE                     
  9753                           ;MCAL_LAYER/TIMER0/hal_timer0.c: 178:     if (TIMER0_interruptHandler){
  9754   0029FE  505D               	movf	_TIMER0_interruptHandler^0,w,c
  9755   002A00  105E               	iorwf	(_TIMER0_interruptHandler+1)^0,w,c
  9756   002A02  B4D8               	btfsc	status,2,c
  9757   002A04  EF06  F015         	goto	i2u93_41
  9758   002A08  EF08  F015         	goto	i2u93_40
  9759   002A0C                     i2u93_41:
  9760   002A0C  EF14  F015         	goto	i2l610
  9761   002A10                     i2u93_40:
  9762   002A10                     
  9763                           ;MCAL_LAYER/TIMER0/hal_timer0.c: 179:         TIMER0_interruptHandler();
  9764   002A10  D802               	call	i2u94_48
  9765   002A12  EF14  F015         	goto	i2u94_49
  9766   002A16                     i2u94_48:
  9767   002A16  0005               	push	
  9768   002A18  6EFA               	movwf	pclath,c
  9769   002A1A  505D               	movf	_TIMER0_interruptHandler^0,w,c
  9770   002A1C  6EFD               	movwf	tosl,c
  9771   002A1E  505E               	movf	(_TIMER0_interruptHandler+1)^0,w,c
  9772   002A20  6EFE               	movwf	tosh,c
  9773   002A22  6AFF               	clrf	tosu,c
  9774   002A24  50FA               	movf	pclath,w,c
  9775   002A26  0012               	return		;indir
  9776   002A28                     i2u94_49:
  9777   002A28                     i2l610:
  9778   002A28  0012               	return		;funcret
  9779   002A2A                     __end_of_TIMER0_ISR:
  9780                           	callstack 0
  9781                           
  9782 ;; *************** function _Timer0Interrupt *****************
  9783 ;; Defined at:
  9784 ;;		line 40 in file "MCAL_LAYER/Delay/M_Delay.c"
  9785 ;; Parameters:    Size  Location     Type
  9786 ;;		None
  9787 ;; Auto vars:     Size  Location     Type
  9788 ;;		None
  9789 ;; Return value:  Size  Location     Type
  9790 ;;                  1    wreg      void 
  9791 ;; Registers used:
  9792 ;;		status,2, status,0
  9793 ;; Tracked objects:
  9794 ;;		On entry : 0/0
  9795 ;;		On exit  : 0/0
  9796 ;;		Unchanged: 0/0
  9797 ;; Data sizes:     COMRAM   BANK0   BANK1   BANK2   BANK3   BANK4   BANK5   BANK6   BANK7   BANK8   BANK9  BANK10  BANK1
      +1  BANK12  BANK13  BANK14  BANK15
  9798 ;;      Params:         0       0       0       0       0       0       0       0       0       0       0       0       
      +0       0       0       0       0
  9799 ;;      Locals:         0       0       0       0       0       0       0       0       0       0       0       0       
      +0       0       0       0       0
  9800 ;;      Temps:          0       0       0       0       0       0       0       0       0       0       0       0       
      +0       0       0       0       0
  9801 ;;      Totals:         0       0       0       0       0       0       0       0       0       0       0       0       
      +0       0       0       0       0
  9802 ;;Total ram usage:        0 bytes
  9803 ;; Hardware stack levels used: 1
  9804 ;; This function calls:
  9805 ;;		Nothing
  9806 ;; This function is called by:
  9807 ;;		_TIMER0_ISR
  9808 ;; This function uses a non-reentrant model
  9809 ;;
  9810                           
  9811                           	psect	text47
  9812   002ACE                     __ptext47:
  9813                           	callstack 0
  9814   002ACE                     _Timer0Interrupt:
  9815                           	callstack 23
  9816   002ACE                     
  9817                           ;MCAL_LAYER/Delay/M_Delay.c: 41:     u16DelayCounter++;
  9818   002ACE  4A61               	infsnz	_u16DelayCounter^0,f,c	;volatile
  9819   002AD0  2A62               	incf	(_u16DelayCounter+1)^0,f,c	;volatile
  9820   002AD2  0012               	return		;funcret
  9821   002AD4                     __end_of_Timer0Interrupt:
  9822                           	callstack 0
  9823                           
  9824 ;; *************** function _SPI_ISR *****************
  9825 ;; Defined at:
  9826 ;;		line 193 in file "MCAL_LAYER/SPI/hal_spi.c"
  9827 ;; Parameters:    Size  Location     Type
  9828 ;;		None
  9829 ;; Auto vars:     Size  Location     Type
  9830 ;;		None
  9831 ;; Return value:  Size  Location     Type
  9832 ;;                  1    wreg      void 
  9833 ;; Registers used:
  9834 ;;		None
  9835 ;; Tracked objects:
  9836 ;;		On entry : 0/0
  9837 ;;		On exit  : 0/0
  9838 ;;		Unchanged: 0/0
  9839 ;; Data sizes:     COMRAM   BANK0   BANK1   BANK2   BANK3   BANK4   BANK5   BANK6   BANK7   BANK8   BANK9  BANK10  BANK1
      +1  BANK12  BANK13  BANK14  BANK15
  9840 ;;      Params:         0       0       0       0       0       0       0       0       0       0       0       0       
      +0       0       0       0       0
  9841 ;;      Locals:         0       0       0       0       0       0       0       0       0       0       0       0       
      +0       0       0       0       0
  9842 ;;      Temps:          0       0       0       0       0       0       0       0       0       0       0       0       
      +0       0       0       0       0
  9843 ;;      Totals:         0       0       0       0       0       0       0       0       0       0       0       0       
      +0       0       0       0       0
  9844 ;;Total ram usage:        0 bytes
  9845 ;; Hardware stack levels used: 1
  9846 ;; This function calls:
  9847 ;;		Nothing
  9848 ;; This function is called by:
  9849 ;;		_interruptManager
  9850 ;; This function uses a non-reentrant model
  9851 ;;
  9852                           
  9853                           	psect	text48
  9854   002AD4                     __ptext48:
  9855                           	callstack 0
  9856   002AD4                     _SPI_ISR:
  9857                           	callstack 24
  9858   002AD4                     
  9859                           ;MCAL_LAYER/SPI/hal_spi.c: 194:      (PIR1bits.SSPIF=0);
  9860   002AD4  969E               	bcf	158,3,c	;volatile
  9861   002AD6  0012               	return		;funcret
  9862   002AD8                     __end_of_SPI_ISR:
  9863                           	callstack 0
  9864                           
  9865                           	psect	text49
  9866   000000                     __ptext49:
  9867                           	callstack 0
  9868   000000                     
  9869                           	psect	rparam
  9870   000000                     
  9871                           	psect	temp
  9872   000068                     btemp:
  9873                           	callstack 0
  9874   000068                     	ds	1
  9875   000000                     int$flags	set	btemp
  9876   000000                     wtemp8	set	btemp+1
  9877   000000                     ttemp5	set	btemp+1
  9878   000000                     ttemp6	set	btemp+4
  9879   000000                     ttemp7	set	btemp+8
  9880                           
  9881                           	psect	idloc
  9882                           
  9883                           ;Config register IDLOC0 @ 0x200000
  9884                           ;	unspecified, using default values
  9885   200000                     	org	2097152
  9886   200000  FF                 	db	255
  9887                           
  9888                           ;Config register IDLOC1 @ 0x200001
  9889                           ;	unspecified, using default values
  9890   200001                     	org	2097153
  9891   200001  FF                 	db	255
  9892                           
  9893                           ;Config register IDLOC2 @ 0x200002
  9894                           ;	unspecified, using default values
  9895   200002                     	org	2097154
  9896   200002  FF                 	db	255
  9897                           
  9898                           ;Config register IDLOC3 @ 0x200003
  9899                           ;	unspecified, using default values
  9900   200003                     	org	2097155
  9901   200003  FF                 	db	255
  9902                           
  9903                           ;Config register IDLOC4 @ 0x200004
  9904                           ;	unspecified, using default values
  9905   200004                     	org	2097156
  9906   200004  FF                 	db	255
  9907                           
  9908                           ;Config register IDLOC5 @ 0x200005
  9909                           ;	unspecified, using default values
  9910   200005                     	org	2097157
  9911   200005  FF                 	db	255
  9912                           
  9913                           ;Config register IDLOC6 @ 0x200006
  9914                           ;	unspecified, using default values
  9915   200006                     	org	2097158
  9916   200006  FF                 	db	255
  9917                           
  9918                           ;Config register IDLOC7 @ 0x200007
  9919                           ;	unspecified, using default values
  9920   200007                     	org	2097159
  9921   200007  FF                 	db	255
  9922                           
  9923                           	psect	config
  9924                           
  9925                           ; Padding undefined space
  9926   300000                     	org	3145728
  9927   300000  FF                 	db	255
  9928                           
  9929                           ;Config register CONFIG1H @ 0x300001
  9930                           ;	Oscillator Selection bits
  9931                           ;	OSC = INTIO67, Internal oscillator block, port function on RA6 and RA7
  9932                           ;	Fail-Safe Clock Monitor Enable bit
  9933                           ;	FCMEN = OFF, Fail-Safe Clock Monitor disabled
  9934                           ;	Internal/External Oscillator Switchover bit
  9935                           ;	IESO = OFF, Oscillator Switchover mode disabled
  9936   300001                     	org	3145729
  9937   300001  08                 	db	8
  9938                           
  9939                           ;Config register CONFIG2L @ 0x300002
  9940                           ;	Power-up Timer Enable bit
  9941                           ;	PWRT = OFF, PWRT disabled
  9942                           ;	Brown-out Reset Enable bits
  9943                           ;	BOREN = OFF, Brown-out Reset disabled in hardware and software
  9944                           ;	Brown Out Reset Voltage bits
  9945                           ;	BORV = 1, 
  9946   300002                     	org	3145730
  9947   300002  09                 	db	9
  9948                           
  9949                           ;Config register CONFIG2H @ 0x300003
  9950                           ;	Watchdog Timer Enable bit
  9951                           ;	WDT = OFF, WDT disabled (control is placed on the SWDTEN bit)
  9952                           ;	Watchdog Timer Postscale Select bits
  9953                           ;	WDTPS = 512, 1:512
  9954   300003                     	org	3145731
  9955   300003  12                 	db	18
  9956                           
  9957                           ; Padding undefined space
  9958   300004                     	org	3145732
  9959   300004  FF                 	db	255
  9960                           
  9961                           ;Config register CONFIG3H @ 0x300005
  9962                           ;	CCP2 MUX bit
  9963                           ;	CCP2MX = PORTC, CCP2 input/output is multiplexed with RC1
  9964                           ;	PORTB A/D Enable bit
  9965                           ;	PBADEN = OFF, PORTB<4:0> pins are configured as digital I/O on Reset
  9966                           ;	Low-Power Timer1 Oscillator Enable bit
  9967                           ;	LPT1OSC = OFF, Timer1 configured for higher power operation
  9968                           ;	MCLR Pin Enable bit
  9969                           ;	MCLRE = ON, MCLR pin enabled; RE3 input pin disabled
  9970   300005                     	org	3145733
  9971   300005  81                 	db	129
  9972                           
  9973                           ;Config register CONFIG4L @ 0x300006
  9974                           ;	Stack Full/Underflow Reset Enable bit
  9975                           ;	STVREN = ON, Stack full/underflow will cause Reset
  9976                           ;	Single-Supply ICSP Enable bit
  9977                           ;	LVP = OFF, Single-Supply ICSP disabled
  9978                           ;	Extended Instruction Set Enable bit
  9979                           ;	XINST = OFF, Instruction set extension and Indexed Addressing mode disabled (Legacy mo
      +                          de)
  9980                           ;	Background Debugger Enable bit
  9981                           ;	DEBUG = 0x1, unprogrammed default
  9982   300006                     	org	3145734
  9983   300006  81                 	db	129
  9984                           
  9985                           ; Padding undefined space
  9986   300007                     	org	3145735
  9987   300007  FF                 	db	255
  9988                           
  9989                           ;Config register CONFIG5L @ 0x300008
  9990                           ;	Code Protection bit
  9991                           ;	CP0 = OFF, Block 0 (000800-003FFFh) not code-protected
  9992                           ;	Code Protection bit
  9993                           ;	CP1 = OFF, Block 1 (004000-007FFFh) not code-protected
  9994                           ;	Code Protection bit
  9995                           ;	CP2 = OFF, Block 2 (008000-00BFFFh) not code-protected
  9996                           ;	Code Protection bit
  9997                           ;	CP3 = OFF, Block 3 (00C000-00FFFFh) not code-protected
  9998   300008                     	org	3145736
  9999   300008  0F                 	db	15
 10000                           
 10001                           ;Config register CONFIG5H @ 0x300009
 10002                           ;	Boot Block Code Protection bit
 10003                           ;	CPB = OFF, Boot block (000000-0007FFh) not code-protected
 10004                           ;	Data EEPROM Code Protection bit
 10005                           ;	CPD = OFF, Data EEPROM not code-protected
 10006   300009                     	org	3145737
 10007   300009  C0                 	db	192
 10008                           
 10009                           ;Config register CONFIG6L @ 0x30000A
 10010                           ;	Write Protection bit
 10011                           ;	WRT0 = OFF, Block 0 (000800-003FFFh) not write-protected
 10012                           ;	Write Protection bit
 10013                           ;	WRT1 = OFF, Block 1 (004000-007FFFh) not write-protected
 10014                           ;	Write Protection bit
 10015                           ;	WRT2 = OFF, Block 2 (008000-00BFFFh) not write-protected
 10016                           ;	Write Protection bit
 10017                           ;	WRT3 = OFF, Block 3 (00C000-00FFFFh) not write-protected
 10018   30000A                     	org	3145738
 10019   30000A  0F                 	db	15
 10020                           
 10021                           ;Config register CONFIG6H @ 0x30000B
 10022                           ;	Configuration Register Write Protection bit
 10023                           ;	WRTC = OFF, Configuration registers (300000-3000FFh) not write-protected
 10024                           ;	Boot Block Write Protection bit
 10025                           ;	WRTB = OFF, Boot Block (000000-0007FFh) not write-protected
 10026                           ;	Data EEPROM Write Protection bit
 10027                           ;	WRTD = OFF, Data EEPROM not write-protected
 10028   30000B                     	org	3145739
 10029   30000B  E0                 	db	224
 10030                           
 10031                           ;Config register CONFIG7L @ 0x30000C
 10032                           ;	Table Read Protection bit
 10033                           ;	EBTR0 = OFF, Block 0 (000800-003FFFh) not protected from table reads executed in other
      +                           blocks
 10034                           ;	Table Read Protection bit
 10035                           ;	EBTR1 = OFF, Block 1 (004000-007FFFh) not protected from table reads executed in other
      +                           blocks
 10036                           ;	Table Read Protection bit
 10037                           ;	EBTR2 = OFF, Block 2 (008000-00BFFFh) not protected from table reads executed in other
      +                           blocks
 10038                           ;	Table Read Protection bit
 10039                           ;	EBTR3 = OFF, Block 3 (00C000-00FFFFh) not protected from table reads executed in other
      +                           blocks
 10040   30000C                     	org	3145740
 10041   30000C  0F                 	db	15
 10042                           
 10043                           ;Config register CONFIG7H @ 0x30000D
 10044                           ;	Boot Block Table Read Protection bit
 10045                           ;	EBTRB = OFF, Boot Block (000000-0007FFh) not protected from table reads executed in ot
      +                          her blocks
 10046   30000D                     	org	3145741
 10047   30000D  40                 	db	64
 10048                           tosu	equ	0xFFF
 10049                           tosh	equ	0xFFE
 10050                           tosl	equ	0xFFD
 10051                           stkptr	equ	0xFFC
 10052                           pclatu	equ	0xFFB
 10053                           pclath	equ	0xFFA
 10054                           pcl	equ	0xFF9
 10055                           tblptru	equ	0xFF8
 10056                           tblptrh	equ	0xFF7
 10057                           tblptrl	equ	0xFF6
 10058                           tablat	equ	0xFF5
 10059                           prodh	equ	0xFF4
 10060                           prodl	equ	0xFF3
 10061                           indf0	equ	0xFEF
 10062                           postinc0	equ	0xFEE
 10063                           postdec0	equ	0xFED
 10064                           preinc0	equ	0xFEC
 10065                           plusw0	equ	0xFEB
 10066                           fsr0h	equ	0xFEA
 10067                           fsr0l	equ	0xFE9
 10068                           wreg	equ	0xFE8
 10069                           indf1	equ	0xFE7
 10070                           postinc1	equ	0xFE6
 10071                           postdec1	equ	0xFE5
 10072                           preinc1	equ	0xFE4
 10073                           plusw1	equ	0xFE3
 10074                           fsr1h	equ	0xFE2
 10075                           fsr1l	equ	0xFE1
 10076                           bsr	equ	0xFE0
 10077                           indf2	equ	0xFDF
 10078                           postinc2	equ	0xFDE
 10079                           postdec2	equ	0xFDD
 10080                           preinc2	equ	0xFDC
 10081                           plusw2	equ	0xFDB
 10082                           fsr2h	equ	0xFDA
 10083                           fsr2l	equ	0xFD9
 10084                           status	equ	0xFD8

Data Sizes:
    Strings     489
    Constant    16
    Data        78
    BSS         29
    Persistent  0
    Stack       0

Auto Spaces:
    Space          Size  Autos    Used
    COMRAM          126     38     103
    BANK0           128     22      64
    BANK1           256      0       0
    BANK2           256      0       0
    BANK3           256      0       0
    BANK4           256      0       0
    BANK5           256      0       0
    BANK6           256      0       0
    BANK7           256      0       0
    BANK8           256      0       0
    BANK9           256      0       0
    BANK10          256      0       0
    BANK11          256      0       0
    BANK12          256      0       0
    BANK13          256      0       0
    BANK14          256      0       0
    BANK15          128      0       0

Pointer List with Targets:

    vfprintf$2	PTR PTR void  size(2) Largest target is 2
		 -> sprintf@ap(COMRAM[2]), 

    vfprintf$1	PTR const unsigned char  size(2) Largest target is 3
		 -> STR_3(CODE[3]), STR_2(CODE[3]), STR_1(CODE[3]), 

    vfprintf$0	PTR struct _IO_FILE size(2) Largest target is 11
		 -> sprintf@f(COMRAM[11]), 

    S2655$source	PTR const unsigned char  size(2) Largest target is 0

    f...source	PTR const unsigned char  size(2) Largest target is 0

    S2655$buffer	PTR unsigned char  size(2) Largest target is 0

    f...buffer	PTR unsigned char  size(2) Largest target is 0

    u8ComparePass@Pass2	PTR const unsigned char  size(2) Largest target is 4
		 -> main@Pass_1959(BANK0[4]), 

    u8ComparePass@Pass1	PTR const unsigned char  size(2) Largest target is 4
		 -> main@PassStored(BANK0[4]), 

    vReadBlockOnEEPROM@Pass	PTR unsigned char  size(2) Largest target is 4
		 -> main@PassStored(BANK0[4]), 

    vWriteBlockOnEEPROM@Pass	PTR unsigned char  size(2) Largest target is 4
		 -> main@Pass(BANK0[4]), 

    Timer1Obj.TIMER1_HandlerInterrupt	PTR FTN()void  size(2) Largest target is 1
		 -> Timer1Handler(), 

    SPIObject.SPI_InterruptHandler	PTR FTN()void  size(2) Largest target is 1
		 -> Absolute function(), 

    timer1_select_reg_mode@_timer.TIMER1_HandlerInterrupt	PTR FTN()void  size(2) Largest target is 1
		 -> Timer1Handler(), 

    timer1_select_reg_mode@_timer	PTR const struct . size(2) Largest target is 5
		 -> Timer1Obj(COMRAM[5]), 

    timer1_oscillator_enable@_timer.TIMER1_HandlerInterrupt	PTR FTN()void  size(2) Largest target is 1
		 -> Timer1Handler(), 

    timer1_oscillator_enable@_timer	PTR const struct . size(2) Largest target is 5
		 -> Timer1Obj(COMRAM[5]), 

    timer1_select_mode_timer_or_counter@_timer.TIMER1_HandlerInterrupt	PTR FTN()void  size(2) Largest target is 1
		 -> Timer1Handler(), 

    timer1_select_mode_timer_or_counter@_timer	PTR const struct . size(2) Largest target is 5
		 -> Timer1Obj(COMRAM[5]), 

    Timer1_DeInit@_timer	PTR const struct . size(2) Largest target is 5
		 -> Timer1Obj(COMRAM[5]), 

    TIMER1_interruptHandler	PTR FTN()void  size(2) Largest target is 1
		 -> Timer1Handler(), Absolute function(), 

    S1479$TIMER1_HandlerInterrupt	PTR FTN()void  size(2) Largest target is 1
		 -> Timer1Handler(), 

    Timer1_Init@_timer.TIMER1_HandlerInterrupt	PTR FTN()void  size(2) Largest target is 1
		 -> Timer1Handler(), 

    Timer1_Init@_timer	PTR const struct . size(2) Largest target is 5
		 -> Timer1Obj(COMRAM[5]), 

    Timer0_mode_timer_or_counter_selcet@_timer.TIMER0_HandlerInterrupt	PTR FTN()void  size(2) Largest target is 1
		 -> Timer0Interrupt(), 

    Timer0_mode_timer_or_counter_selcet@_timer	PTR const struct . size(2) Largest target is 6
		 -> TimerDelay(COMRAM[6]), 

    Timer0_mode_of_register_size_selcet@_timer.TIMER0_HandlerInterrupt	PTR FTN()void  size(2) Largest target is 1
		 -> Timer0Interrupt(), 

    Timer0_mode_of_register_size_selcet@_timer	PTR const struct . size(2) Largest target is 6
		 -> TimerDelay(COMRAM[6]), 

    Timer0_prescaler_selcet@_timer.TIMER0_HandlerInterrupt	PTR FTN()void  size(2) Largest target is 1
		 -> Timer0Interrupt(), 

    Timer0_prescaler_selcet@_timer	PTR const struct . size(2) Largest target is 6
		 -> TimerDelay(COMRAM[6]), 

    Timer0_DeInit@_timer	PTR const struct . size(2) Largest target is 6
		 -> TimerDelay(COMRAM[6]), 

    TIMER0_interruptHandler	PTR FTN()void  size(2) Largest target is 1
		 -> Absolute function(), Timer0Interrupt(), 

    Timer0_Init@_timer.TIMER0_HandlerInterrupt	PTR FTN()void  size(2) Largest target is 1
		 -> Timer0Interrupt(), 

    Timer0_Init@_timer	PTR const struct . size(2) Largest target is 6
		 -> TimerDelay(COMRAM[6]), 

    HandelerSPI	PTR FTN()void  size(2) Largest target is 1
		 -> Absolute function(), 

    SPI_configure_the_interrupt@_spi_obj.SPI_InterruptHandler	PTR FTN()void  size(2) Largest target is 1
		 -> Absolute function(), 

    SPI_configure_the_interrupt@_spi_obj	PTR const struct . size(2) Largest target is 4
		 -> SPIObject(BANK0[4]), 

    SPI_Select_the_Sampling_receiving@_spi_obj.SPI_InterruptHandler	PTR FTN()void  size(2) Largest target is 1
		 -> Absolute function(), 

    SPI_Select_the_Sampling_receiving@_spi_obj	PTR const struct . size(2) Largest target is 4
		 -> SPIObject(BANK0[4]), 

    SPI_Select_the_clock_phase@_spi_obj.SPI_InterruptHandler	PTR FTN()void  size(2) Largest target is 1
		 -> Absolute function(), 

    SPI_Select_the_clock_phase@_spi_obj	PTR const struct . size(2) Largest target is 4
		 -> SPIObject(BANK0[4]), 

    SPI_Select_the_clock_polarity@_spi_obj.SPI_InterruptHandler	PTR FTN()void  size(2) Largest target is 1
		 -> Absolute function(), 

    SPI_Select_the_clock_polarity@_spi_obj	PTR const struct . size(2) Largest target is 4
		 -> SPIObject(BANK0[4]), 

    SPI_Select_mode_and_pin_initialize@_spi_obj.SPI_InterruptHandler	PTR FTN()void  size(2) Largest target is 1
		 -> Absolute function(), 

    SPI_Select_mode_and_pin_initialize@_spi_obj	PTR const struct . size(2) Largest target is 4
		 -> SPIObject(BANK0[4]), 

    S851$SPI_InterruptHandler	PTR FTN()void  size(2) Largest target is 1
		 -> Absolute function(), 

    SPI_Init@_spi_obj.SPI_InterruptHandler	PTR FTN()void  size(2) Largest target is 1
		 -> Absolute function(), 

    SPI_Init@_spi_obj	PTR const struct . size(2) Largest target is 4
		 -> SPIObject(BANK0[4]), 

    gpio_Pin_Intialize@pin_config	PTR const struct . size(2) Largest target is 8
		 -> PIN_SelectChannel(COMRAM[1]), Lcd_Obj.lcd_data(COMRAM[4]), Lcd_Obj(COMRAM[6]), Keypad_Obj.pin_keypad_rows(COMRAM[4]), 
		 -> Keypad_Obj(COMRAM[8]), SPI_Select_mode_and_pin_initialize@SS(COMRAM[1]), SPI_Select_mode_and_pin_initialize@S_CLOCK(COMRAM[1]), SPI_Select_mode_and_pin_initialize@S_MISO(COMRAM[1]), 
		 -> SPI_Select_mode_and_pin_initialize@S_MOSI(COMRAM[1]), SPI_Select_mode_and_pin_initialize@M_CLOCK(COMRAM[1]), SPI_Select_mode_and_pin_initialize@M_MISO(COMRAM[1]), SPI_Select_mode_and_pin_initialize@M_MOSI(COMRAM[1]), 
		 -> led_initialize@pin_config(COMRAM[1]), 

    gpio_Pin_Read_Logic@logic	PTR enum E2965 size(2) Largest target is 1
		 -> keypad_get_value@column_logic_pin(COMRAM[1]), 

    gpio_Pin_Read_Logic@pin_config	PTR const struct . size(2) Largest target is 8
		 -> Keypad_Obj.pin_keypad_colums(COMRAM[4]), Keypad_Obj(COMRAM[8]), 

    gpio_Pin_Write_Logic@pin_config	PTR const struct . size(2) Largest target is 8
		 -> PIN_SelectChannel(COMRAM[1]), Lcd_Obj.lcd_data(COMRAM[4]), Lcd_Obj(COMRAM[6]), Keypad_Obj.pin_keypad_rows(COMRAM[4]), 
		 -> Keypad_Obj(COMRAM[8]), SPI_Select_mode_and_pin_initialize@SS(COMRAM[1]), SPI_Select_mode_and_pin_initialize@S_CLOCK(COMRAM[1]), SPI_Select_mode_and_pin_initialize@S_MISO(COMRAM[1]), 
		 -> SPI_Select_mode_and_pin_initialize@S_MOSI(COMRAM[1]), SPI_Select_mode_and_pin_initialize@M_CLOCK(COMRAM[1]), SPI_Select_mode_and_pin_initialize@M_MISO(COMRAM[1]), SPI_Select_mode_and_pin_initialize@M_MOSI(COMRAM[1]), 
		 -> led_turn_off@pin_config(COMRAM[1]), led_turn_on@pin_config(COMRAM[1]), led_initialize@pin_config(COMRAM[1]), 

    gpio_Pin_Derction_Intialize@pin_config	PTR const struct . size(2) Largest target is 8
		 -> PIN_SelectChannel(COMRAM[1]), Lcd_Obj.lcd_data(COMRAM[4]), Lcd_Obj(COMRAM[6]), Keypad_Obj.pin_keypad_colums(COMRAM[4]), 
		 -> Keypad_Obj.pin_keypad_rows(COMRAM[4]), Keypad_Obj(COMRAM[8]), SPI_Select_mode_and_pin_initialize@SS(COMRAM[1]), SPI_Select_mode_and_pin_initialize@S_CLOCK(COMRAM[1]), 
		 -> SPI_Select_mode_and_pin_initialize@S_MISO(COMRAM[1]), SPI_Select_mode_and_pin_initialize@S_MOSI(COMRAM[1]), SPI_Select_mode_and_pin_initialize@M_CLOCK(COMRAM[1]), SPI_Select_mode_and_pin_initialize@M_MISO(COMRAM[1]), 
		 -> SPI_Select_mode_and_pin_initialize@M_MOSI(COMRAM[1]), led_initialize@pin_config(COMRAM[1]), 

    port_registers	PTR volatile unsigned char [5] size(2) Largest target is 1
		 -> PORTE(BITBIGSFRlllll[1]), PORTD(BITBIGSFRlllll[1]), PORTC(BITBIGSFRlllll[1]), PORTB(BITBIGSFRlllll[1]), 
		 -> PORTA(BITBIGSFRlllll[1]), 

    lat_registers	PTR volatile unsigned char [5] size(2) Largest target is 1
		 -> LATE(BITBIGSFRllllh[1]), LATD(BITBIGSFRllllh[1]), LATC(BITBIGSFRllllh[1]), LATB(BITBIGSFRllllh[1]), 
		 -> LATA(BITBIGSFRlllll[1]), 

    tris_registers	PTR volatile unsigned char [5] size(2) Largest target is 1
		 -> TRISE(BITBIGSFRlllhl[1]), TRISD(BITBIGSFRlllhl[1]), TRISC(BITBIGSFRlllhl[1]), TRISB(BITBIGSFRlllhl[1]), 
		 -> TRISA(BITBIGSFRlllll[1]), 

    eeprom_ReadDataByte@data	PTR unsigned char  size(2) Largest target is 4
		 -> u8PassIsSetOrNotSet@u8LocDataAdd(COMRAM[1]), main@PassStored(BANK0[4]), 

    S467$TIMER0_HandlerInterrupt	PTR FTN()void  size(2) Largest target is 1
		 -> Timer0Interrupt(), 

    TimerDelay.TIMER0_HandlerInterrupt	PTR FTN()void  size(2) Largest target is 1
		 -> Timer0Interrupt(), 

    led_turn_off@led	PTR const struct . size(2) Largest target is 1
		 -> BLOCK_Led(COMRAM[1]), GUEST_Led(COMRAM[1]), ADMIN_Led(COMRAM[1]), 

    led_turn_on@led	PTR const struct . size(2) Largest target is 1
		 -> BLOCK_Led(COMRAM[1]), GUEST_Led(COMRAM[1]), ADMIN_Led(COMRAM[1]), 

    led_initialize@led	PTR const struct . size(2) Largest target is 1
		 -> BLOCK_Led(COMRAM[1]), GUEST_Led(COMRAM[1]), ADMIN_Led(COMRAM[1]), 

    keypad_get_value@value	PTR unsigned char  size(2) Largest target is 1
		 -> u8GetPressedValue@u8LockeyPressed(COMRAM[1]), main@u8KeyPadPressed(BANK0[1]), 

    keypad_get_value@_keypad_obj	PTR const struct . size(2) Largest target is 8
		 -> Keypad_Obj(COMRAM[8]), 

    keypad_initialize@_keypad_obj	PTR const struct . size(2) Largest target is 8
		 -> Keypad_Obj(COMRAM[8]), 

    set_cursor_4bit_mode@_lcd	PTR const struct . size(2) Largest target is 6
		 -> Lcd_Obj(COMRAM[6]), 

    send_4bit_mode_enable@_lcd	PTR const struct . size(2) Largest target is 6
		 -> Lcd_Obj(COMRAM[6]), 

    send_data_4bit_mode@_lcd	PTR const struct . size(2) Largest target is 6
		 -> Lcd_Obj(COMRAM[6]), 

    sp__memset	PTR void  size(2) Largest target is 0

    lcd_4bit_send_string_data@str	PTR unsigned char  size(2) Largest target is 18
		 -> STR_55(CODE[12]), STR_54(CODE[17]), STR_53(CODE[4]), STR_52(CODE[3]), 
		 -> STR_51(CODE[13]), STR_50(CODE[6]), STR_49(CODE[9]), STR_48(CODE[9]), 
		 -> STR_47(CODE[9]), STR_46(CODE[9]), STR_45(CODE[17]), STR_44(CODE[12]), 
		 -> STR_43(CODE[12]), STR_42(CODE[13]), STR_41(CODE[12]), STR_40(CODE[16]), 
		 -> STR_39(CODE[18]), STR_38(CODE[12]), STR_37(CODE[16]), STR_36(CODE[13]), 
		 -> STR_35(CODE[12]), STR_34(CODE[16]), STR_33(CODE[15]), STR_32(CODE[16]), 
		 -> STR_31(CODE[11]), STR_30(CODE[11]), STR_29(CODE[11]), STR_28(CODE[13]), 
		 -> STR_27(CODE[12]), STR_26(CODE[11]), STR_25(CODE[11]), STR_24(CODE[11]), 
		 -> STR_23(CODE[11]), STR_22(CODE[13]), STR_21(CODE[12]), STR_20(CODE[11]), 
		 -> STR_19(CODE[12]), STR_18(CODE[17]), STR_17(CODE[14]), STR_16(CODE[16]), 
		 -> STR_15(CODE[14]), STR_14(CODE[16]), STR_13(CODE[11]), STR_12(CODE[12]), 
		 -> STR_11(CODE[16]), STR_10(CODE[11]), STR_9(CODE[12]), STR_8(CODE[16]), 
		 -> STR_7(CODE[11]), STR_6(CODE[14]), STR_5(CODE[12]), STR_4(CODE[17]), 

    lcd_4bit_send_string_data@_lcd	PTR const struct . size(2) Largest target is 6
		 -> Lcd_Obj(COMRAM[6]), 

    lcd_4bit_send_char_data@_lcd	PTR const struct . size(2) Largest target is 6
		 -> Lcd_Obj(COMRAM[6]), 

    lcd_4bit_send_command@_lcd	PTR const struct . size(2) Largest target is 6
		 -> Lcd_Obj(COMRAM[6]), 

    lcd_4bit_initialize@_lcd	PTR const struct . size(2) Largest target is 6
		 -> Lcd_Obj(COMRAM[6]), 


Critical Paths under _main in COMRAM

    _main->_vMenuOption
    _vWriteBlockOnEEPROM->_eeprom_WriteDataByte
    _vReadBlockOnEEPROM->_eeprom_ReadDataByte
    _vMenuOption->_set_cursor_4bit_mode
    _u8SpiTranmitRecieve->_gpio_Pin_Write_Logic
    _u8GetPressedValue->_keypad_get_value
    _keypad_get_value->_gpio_Pin_Read_Logic
    _keypad_get_value->_gpio_Pin_Write_Logic
    _set_cursor_4bit_mode->_lcd_4bit_send_command
    _lcd_4bit_send_string_data->_lcd_4bit_send_char_data
    _lcd_4bit_send_char_data->_send_data_4bit_mode
    __TimerDelay_ms->_Timer0_Init
    _Timer0_Init->_Timer0_prescaler_selcet
    _u8PassIsSetOrNotSet->_eeprom_ReadDataByte
    _led_turn_on->_gpio_Pin_Write_Logic
    _led_turn_off->_gpio_Pin_Write_Logic
    _led_initialize->_gpio_Pin_Intialize
    _lcd_4bit_initialize->_lcd_4bit_send_command
    _lcd_4bit_send_command->_send_data_4bit_mode
    _send_data_4bit_mode->_gpio_Pin_Write_Logic
    _send_4bit_mode_enable->_gpio_Pin_Write_Logic
    _keypad_initialize->_gpio_Pin_Intialize
    _Timer1_Init->_timer1_oscillator_enable
    _Timer1_Init->_timer1_select_mode_timer_or_counter
    _Timer1_Init->_timer1_select_reg_mode
    _SPI_Init->_SPI_Select_mode_and_pin_initialize
    _SPI_Select_mode_and_pin_initialize->_gpio_Pin_Intialize
    _gpio_Pin_Intialize->_gpio_Pin_Write_Logic

Critical Paths under _interruptManager in COMRAM

    None.

Critical Paths under _main in BANK0

    None.

Critical Paths under _interruptManager in BANK0

    None.

Critical Paths under _main in BANK1

    None.

Critical Paths under _interruptManager in BANK1

    None.

Critical Paths under _main in BANK2

    None.

Critical Paths under _interruptManager in BANK2

    None.

Critical Paths under _main in BANK3

    None.

Critical Paths under _interruptManager in BANK3

    None.

Critical Paths under _main in BANK4

    None.

Critical Paths under _interruptManager in BANK4

    None.

Critical Paths under _main in BANK5

    None.

Critical Paths under _interruptManager in BANK5

    None.

Critical Paths under _main in BANK6

    None.

Critical Paths under _interruptManager in BANK6

    None.

Critical Paths under _main in BANK7

    None.

Critical Paths under _interruptManager in BANK7

    None.

Critical Paths under _main in BANK8

    None.

Critical Paths under _interruptManager in BANK8

    None.

Critical Paths under _main in BANK9

    None.

Critical Paths under _interruptManager in BANK9

    None.

Critical Paths under _main in BANK10

    None.

Critical Paths under _interruptManager in BANK10

    None.

Critical Paths under _main in BANK11

    None.

Critical Paths under _interruptManager in BANK11

    None.

Critical Paths under _main in BANK12

    None.

Critical Paths under _interruptManager in BANK12

    None.

Critical Paths under _main in BANK13

    None.

Critical Paths under _interruptManager in BANK13

    None.

Critical Paths under _main in BANK14

    None.

Critical Paths under _interruptManager in BANK14

    None.

Critical Paths under _main in BANK15

    None.

Critical Paths under _interruptManager in BANK15

    None.

Call Graph Tables:

 ---------------------------------------------------------------------------------
 (Depth) Function   	        Calls       Base Space   Used Autos Params    Refs
 ---------------------------------------------------------------------------------
 (0) _main                                                24    24      0  287936
                                             36 COMRAM     2     2      0
                                              0 BANK0     22    22      0
                           _SPI_Init
                      _Timer1_DeInit
                        _Timer1_Init
                     __TimerDelay_ms
               _eeprom_WriteDataByte
                 _gpio_Pin_Intialize
                   _keypad_get_value
                  _keypad_initialize
                _lcd_4bit_initialize
            _lcd_4bit_send_char_data
              _lcd_4bit_send_command
          _lcd_4bit_send_string_data
                     _led_initialize
                       _led_turn_off
                        _led_turn_on
               _set_cursor_4bit_mode
                      _u8ComparePass
                  _u8GetPressedValue
                _u8PassIsSetOrNotSet
                _u8SpiTranmitRecieve
                        _vMenuOption
                 _vReadBlockOnEEPROM
                _vWriteBlockOnEEPROM
 ---------------------------------------------------------------------------------
 (1) _vWriteBlockOnEEPROM                                 10     5      5    2132
                                              6 COMRAM    10     5      5
               _eeprom_WriteDataByte
 ---------------------------------------------------------------------------------
 (2) _eeprom_WriteDataByte                                 5     2      3    1397
                                              2 COMRAM     4     1      3
 ---------------------------------------------------------------------------------
 (1) _vReadBlockOnEEPROM                                  10     5      5    1235
                                              6 COMRAM    10     5      5
                _eeprom_ReadDataByte
 ---------------------------------------------------------------------------------
 (1) _vMenuOption                                          9     8      1   94254
                                             27 COMRAM     9     8      1
                     __TimerDelay_ms
              _lcd_4bit_send_command
          _lcd_4bit_send_string_data
               _set_cursor_4bit_mode
                  _u8GetPressedValue
                _u8SpiTranmitRecieve
 ---------------------------------------------------------------------------------
 (2) _u8SpiTranmitRecieve                                  2     2      0    4102
                                             12 COMRAM     2     2      0
               _gpio_Pin_Write_Logic
 ---------------------------------------------------------------------------------
 (2) _u8GetPressedValue                                    2     2      0    6328
                                             22 COMRAM     2     2      0
                   _keypad_get_value
 ---------------------------------------------------------------------------------
 (3) _keypad_get_value                                    11     7      4    6164
                                             12 COMRAM    10     6      4
                _gpio_Pin_Read_Logic
               _gpio_Pin_Write_Logic
 ---------------------------------------------------------------------------------
 (4) _gpio_Pin_Read_Logic                                 10     6      4     403
                                              2 COMRAM    10     6      4
 ---------------------------------------------------------------------------------
 (2) _set_cursor_4bit_mode                                 7     3      4   28978
                                             20 COMRAM     7     3      4
              _lcd_4bit_send_command
 ---------------------------------------------------------------------------------
 (2) _lcd_4bit_send_string_data                            5     1      4   26689
                                             20 COMRAM     4     0      4
            _lcd_4bit_send_char_data
 ---------------------------------------------------------------------------------
 (3) _lcd_4bit_send_char_data                              4     1      3   17186
                                             16 COMRAM     4     1      3
               _gpio_Pin_Write_Logic
              _send_4bit_mode_enable
                _send_data_4bit_mode
 ---------------------------------------------------------------------------------
 (2) __TimerDelay_ms                                       2     0      2    4702
                                              9 COMRAM     2     0      2
                      _Timer0_DeInit
                        _Timer0_Init
 ---------------------------------------------------------------------------------
 (3) _Timer0_Init                                          5     3      2     993
                                              5 COMRAM     4     2      2
_Timer0_mode_of_register_size_selcet
_Timer0_mode_timer_or_counter_selcet
            _Timer0_prescaler_selcet
 ---------------------------------------------------------------------------------
 (4) _Timer0_prescaler_selcet                              3     1      2     183
                                              2 COMRAM     3     1      2
 ---------------------------------------------------------------------------------
 (4) _Timer0_mode_timer_or_counter_selcet                  2     0      2     214
                                              2 COMRAM     2     0      2
 ---------------------------------------------------------------------------------
 (4) _Timer0_mode_of_register_size_selcet                  2     0      2     152
                                              2 COMRAM     2     0      2
 ---------------------------------------------------------------------------------
 (3) _Timer0_DeInit                                        3     1      2     227
                                              2 COMRAM     2     0      2
 ---------------------------------------------------------------------------------
 (1) _u8PassIsSetOrNotSet                                  3     1      2     869
                                              6 COMRAM     3     1      2
                _eeprom_ReadDataByte
 ---------------------------------------------------------------------------------
 (2) _eeprom_ReadDataByte                                  5     1      4     500
                                              2 COMRAM     4     0      4
 ---------------------------------------------------------------------------------
 (1) _u8ComparePass                                        9     4      5    1039
                                              2 COMRAM     9     4      5
 ---------------------------------------------------------------------------------
 (1) _led_turn_on                                          5     3      2    4502
                                             12 COMRAM     4     2      2
               _gpio_Pin_Write_Logic
 ---------------------------------------------------------------------------------
 (1) _led_turn_off                                         5     3      2    4502
                                             12 COMRAM     4     2      2
               _gpio_Pin_Write_Logic
 ---------------------------------------------------------------------------------
 (1) _led_initialize                                       5     3      2    6601
                                             16 COMRAM     4     2      2
                 _gpio_Pin_Intialize
 ---------------------------------------------------------------------------------
 (1) _lcd_4bit_initialize                                  6     4      2   29159
                                             20 COMRAM     6     4      2
                 _gpio_Pin_Intialize
              _lcd_4bit_send_command
 ---------------------------------------------------------------------------------
 (3) _lcd_4bit_send_command                                4     1      3   22406
                                             16 COMRAM     4     1      3
               _gpio_Pin_Write_Logic
              _send_4bit_mode_enable
                _send_data_4bit_mode
 ---------------------------------------------------------------------------------
 (4) _send_data_4bit_mode                                  4     1      3    5082
                                             12 COMRAM     4     1      3
               _gpio_Pin_Write_Logic
 ---------------------------------------------------------------------------------
 (4) _send_4bit_mode_enable                                3     1      2    4530
                                             12 COMRAM     3     1      2
               _gpio_Pin_Write_Logic
 ---------------------------------------------------------------------------------
 (1) _keypad_initialize                                    7     5      2    6952
                                             16 COMRAM     6     4      2
        _gpio_Pin_Derction_Intialize
                 _gpio_Pin_Intialize
 ---------------------------------------------------------------------------------
 (1) _Timer1_Init                                          5     3      2    1083
                                              4 COMRAM     4     2      2
           _timer1_oscillator_enable
_timer1_select_mode_timer_or_counter
             _timer1_select_reg_mode
 ---------------------------------------------------------------------------------
 (2) _timer1_select_reg_mode                               2     0      2     152
                                              2 COMRAM     2     0      2
 ---------------------------------------------------------------------------------
 (2) _timer1_select_mode_timer_or_counter                  2     0      2     214
                                              2 COMRAM     2     0      2
 ---------------------------------------------------------------------------------
 (2) _timer1_oscillator_enable                             2     0      2     152
                                              2 COMRAM     2     0      2
 ---------------------------------------------------------------------------------
 (1) _Timer1_DeInit                                        3     1      2     137
                                              2 COMRAM     2     0      2
 ---------------------------------------------------------------------------------
 (1) _SPI_Init                                             4     2      2    7851
                                             27 COMRAM     3     1      2
 _SPI_Select_mode_and_pin_initialize
  _SPI_Select_the_Sampling_receiving
         _SPI_Select_the_clock_phase
      _SPI_Select_the_clock_polarity
        _SPI_configure_the_interrupt
 ---------------------------------------------------------------------------------
 (2) _SPI_configure_the_interrupt                          2     0      2     183
                                              2 COMRAM     2     0      2
 ---------------------------------------------------------------------------------
 (2) _SPI_Select_the_clock_polarity                        2     0      2     152
                                              2 COMRAM     2     0      2
 ---------------------------------------------------------------------------------
 (2) _SPI_Select_the_clock_phase                           2     0      2     152
                                              2 COMRAM     2     0      2
 ---------------------------------------------------------------------------------
 (2) _SPI_Select_the_Sampling_receiving                    2     0      2     152
                                              2 COMRAM     2     0      2
 ---------------------------------------------------------------------------------
 (2) _SPI_Select_mode_and_pin_initialize                  11     9      2    6889
                                             16 COMRAM    11     9      2
                 _gpio_Pin_Intialize
 ---------------------------------------------------------------------------------
 (2) _gpio_Pin_Intialize                                   4     2      2    6109
                                             12 COMRAM     4     2      2
        _gpio_Pin_Derction_Intialize
               _gpio_Pin_Write_Logic
 ---------------------------------------------------------------------------------
 (3) _gpio_Pin_Write_Logic                                10     7      3    4034
                                              2 COMRAM    10     7      3
 ---------------------------------------------------------------------------------
 (3) _gpio_Pin_Derction_Intialize                          9     7      2     437
                                              2 COMRAM     9     7      2
 ---------------------------------------------------------------------------------
 Estimated maximum stack depth 4
 ---------------------------------------------------------------------------------
 (Depth) Function   	        Calls       Base Space   Used Autos Params    Refs
 ---------------------------------------------------------------------------------
 (6) _interruptManager                                     2     2      0       0
                                              0 COMRAM     2     2      0
                            _SPI_ISR
                         _TIMER0_ISR
                         _TIMER1_ISR
 ---------------------------------------------------------------------------------
 (7) _TIMER1_ISR                                           0     0      0       0
                   Absolute function *
                      _Timer1Handler *
 ---------------------------------------------------------------------------------
 (8) _Timer1Handler                                        0     0      0       0
 ---------------------------------------------------------------------------------
 (7) _TIMER0_ISR                                           0     0      0       0
                   Absolute function *
                    _Timer0Interrupt *
 ---------------------------------------------------------------------------------
 (8) _Timer0Interrupt                                      0     0      0       0
 ---------------------------------------------------------------------------------
 (8) Absolute function(Fake)                               0     0      0       0
 ---------------------------------------------------------------------------------
 (7) _SPI_ISR                                              0     0      0       0
 ---------------------------------------------------------------------------------
 Estimated maximum stack depth 8
 ---------------------------------------------------------------------------------

 Call Graph Graphs:

 _main (ROOT)
   _SPI_Init
     _SPI_Select_mode_and_pin_initialize
       _gpio_Pin_Intialize
         _gpio_Pin_Derction_Intialize
         _gpio_Pin_Write_Logic
     _SPI_Select_the_Sampling_receiving
     _SPI_Select_the_clock_phase
     _SPI_Select_the_clock_polarity
     _SPI_configure_the_interrupt
   _Timer1_DeInit
   _Timer1_Init
     _timer1_oscillator_enable
     _timer1_select_mode_timer_or_counter
     _timer1_select_reg_mode
   __TimerDelay_ms
     _Timer0_DeInit
     _Timer0_Init
       _Timer0_mode_of_register_size_selcet
       _Timer0_mode_timer_or_counter_selcet
       _Timer0_prescaler_selcet
   _eeprom_WriteDataByte
   _gpio_Pin_Intialize
   _keypad_get_value
     _gpio_Pin_Read_Logic
     _gpio_Pin_Write_Logic
   _keypad_initialize
     _gpio_Pin_Derction_Intialize
     _gpio_Pin_Intialize
   _lcd_4bit_initialize
     _gpio_Pin_Intialize
     _lcd_4bit_send_command
       _gpio_Pin_Write_Logic
       _send_4bit_mode_enable
         _gpio_Pin_Write_Logic
       _send_data_4bit_mode
         _gpio_Pin_Write_Logic
   _lcd_4bit_send_char_data
     _gpio_Pin_Write_Logic
     _send_4bit_mode_enable
     _send_data_4bit_mode
   _lcd_4bit_send_command
   _lcd_4bit_send_string_data
     _lcd_4bit_send_char_data
   _led_initialize
     _gpio_Pin_Intialize
   _led_turn_off
     _gpio_Pin_Write_Logic
   _led_turn_on
     _gpio_Pin_Write_Logic
   _set_cursor_4bit_mode
     _lcd_4bit_send_command
   _u8ComparePass
   _u8GetPressedValue
     _keypad_get_value
   _u8PassIsSetOrNotSet
     _eeprom_ReadDataByte
   _u8SpiTranmitRecieve
     _gpio_Pin_Write_Logic
   _vMenuOption
     __TimerDelay_ms
     _lcd_4bit_send_command
     _lcd_4bit_send_string_data
     _set_cursor_4bit_mode
     _u8GetPressedValue
     _u8SpiTranmitRecieve
   _vReadBlockOnEEPROM
     _eeprom_ReadDataByte
   _vWriteBlockOnEEPROM
     _eeprom_WriteDataByte

 _interruptManager (ROOT)
   _SPI_ISR
   _TIMER0_ISR
     Absolute function(Fake) *
     _Timer0Interrupt *
   _TIMER1_ISR
     Absolute function(Fake) *
     _Timer1Handler *

 Address spaces:
Name               Size   Autos  Total    Cost      Usage
BIGRAM             F7F      0       0      48        0.0%
EEDATA             400      0       0       0        0.0%
BITBANK14          100      0       0      32        0.0%
BANK14             100      0       0      33        0.0%
BITBANK13          100      0       0      30        0.0%
BANK13             100      0       0      31        0.0%
BITBANK12          100      0       0      28        0.0%
BANK12             100      0       0      29        0.0%
BITBANK11          100      0       0      26        0.0%
BANK11             100      0       0      27        0.0%
BITBANK10          100      0       0      24        0.0%
BANK10             100      0       0      25        0.0%
BITBANK9           100      0       0      22        0.0%
BANK9              100      0       0      23        0.0%
BITBANK8           100      0       0      20        0.0%
BANK8              100      0       0      21        0.0%
BITBANK7           100      0       0      18        0.0%
BANK7              100      0       0      19        0.0%
BITBANK6           100      0       0      16        0.0%
BANK6              100      0       0      17        0.0%
BITBANK5           100      0       0      14        0.0%
BANK5              100      0       0      15        0.0%
BITBANK4           100      0       0      12        0.0%
BANK4              100      0       0      13        0.0%
BITBANK3           100      0       0      10        0.0%
BANK3              100      0       0      11        0.0%
BITBANK2           100      0       0       8        0.0%
BANK2              100      0       0       9        0.0%
BITBANK1           100      0       0       6        0.0%
BANK1              100      0       0       7        0.0%
BITBANK15           80      0       0      34        0.0%
BANK15              80      0       0      35        0.0%
BITBANK0            80      0       0       4        0.0%
BANK0               80     16      40       5       50.0%
BITCOMRAM           7E      0       0       0        0.0%
COMRAM              7E     26      67       1       81.7%
BITBIGSFRlhhhhh     1A      0       0      37        0.0%
BITBIGSFRlhll       16      0       0      42        0.0%
BITBIGSFRh           D      0       0      36        0.0%
BITBIGSFRlllhh       7      0       0      43        0.0%
BITBIGSFRlllhl       6      0       0      44        0.0%
BITBIGSFRlhhhlh      5      0       0      38        0.0%
BITBIGSFRlhlh        4      0       0      41        0.0%
BITBIGSFRllllh       4      0       0      45        0.0%
BITBIGSFRlllll       4      0       0      46        0.0%
BITBIGSFRlhhhll      3      0       0      39        0.0%
BITBIGSFRlhhl        1      0       0      40        0.0%
BIGSFR               0      0       0     200        0.0%
BITSFR               0      0       0     200        0.0%
SFR                  0      0       0     200        0.0%
STACK                0      0       0       2        0.0%
NULL                 0      0       0       0        0.0%
ABS                  0      0      A7      47        0.0%
DATA                 0      0      A7       3        0.0%
CODE                 0      0       0       0        0.0%


Microchip Technology PIC18 Macro Assembler V2.40 build 20220703182018 
Symbol Table                                                                                   Tue Jun 13 04:19:35 2023

                          _btn_keypad_values FE05                                  _SSPSTATbits 000FC7  
                                         l31 1976                                           l41 22B4  
                                         l36 2398                                           l54 2634  
                               ?_vMenuOption 004A                       vReadBlockOnEEPROM@Pass 0037  
                     vReadBlockOnEEPROM@Size 0039                                          l210 1B96  
                                        l230 2156                                          l143 1EE6  
                                        l223 2326                                          l233 216E  
                                        l226 20F8                                          l219 22CC  
                                        l148 2780                                          l237 21CC  
                                        l261 2730                                          l165 1C54  
                                        l511 1A8E                                          l344 172A  
                                        l361 1856                                          l290 2804  
                                        l523 2946                                          l291 2810  
                                        l380 24CE                                          l460 240A  
                                        l196 20E0                                          l517 2908  
                                        l605 1FEA                                          l606 1FEA  
                                        l535 26DE                                          l640 2AAA  
                                        l296 29BC                                          l368 1D0C  
                                        l288 27F6                                          l529 2984  
                                        l458 23B0                                          l642 2AAE  
                                        l570 2A92                                          l635 1D24  
                                        l563 1DDC                                          l811 0980  
                                        l637 1DC4                                          l565 1E5E  
                                        l494 19EC                                          l910 2AC6  
                                        l822 0BEC                                          l672 28CA  
                                        l664 2068                                          l568 2A8E  
                                        l665 2068                                          l809 0922  
                                        l922 2586                                          l834 0D7C  
                                        l851 0EC4                                          l827 0C7A  
                                        l596 284E                                          l916 252C  
                                        l772 0326                                          l589 25DE  
                                        l845 132E                                          l766 01D8  
                                        l679 288C                                          l794 0662  
                                        l867 0FF2                                          l796 06C0  
                                        l973 268A                                          l999 15E6  
                           SPI_Init@_spi_obj 004A                          led_initialize@F3047 0067  
                __end_of_u8PassIsSetOrNotSet 2AC8                                          prod 000FF3  
                                        tosl 000FFD                                          wreg 000FE8  
  SPI_Select_the_Sampling_receiving@_spi_obj 0031                                 ?_led_turn_on 003B  
       SPI_Select_mode_and_pin_initialize@SS 0049                         _set_cursor_4bit_mode 1B98  
                               main@TempOnes 00AC                                 main@TempTens 00AD  
               lcd_4bit_send_string_data@str 0045                                         l1010 1F6C  
                                       l1013 2798                                         l1017 27B4  
                                       l1018 27CC                                         l6001 2784  
                                       l6003 2794                                         l6021 1892  
                                       l6013 1858                                         l6005 27A6  
                                       l6111 2084                                         l6031 18B4  
                                       l6015 185C                                         l6007 27BA  
                                       l6201 23FC                                         l6121 209C  
                                       l6113 2088                                         l6041 1906  
                                       l6033 18C4                                         l6017 186E  
                                       l6009 27CA                                         l7001 0EB4  
                                       l6203 2408                                         l6211 1D0E  
                                       l6131 20B2                                         l6123 209E  
                                       l6107 206A                                         l6051 1956  
                                       l6043 1916                                         l6035 18D2  
                                       l6027 1896                                         l6019 1872  
                                       l7011 0F0A                                         l7003 0EC4  
                                       l5501 172C                                         l6205 240A  
                                       l6221 1D5C                                         l6213 1D20  
                                       l6133 20CE                                         l6125 20AE  
                                       l6109 2072                                         l6053 1966  
                                       l6045 1926                                         l6037 18E2  
                                       l6029 18B2                                         l6141 22C8  
                                       l6301 1374                                         l7101 118E  
                                       l7021 0F7A                                         l7013 0F1E  
                                       l7005 0ED6                                         l5511 17CE  
                                       l5503 1730                                         l6231 1DAC  
                                       l6223 1D68                                         l6215 1D26  
                                       l6135 20D0                                         l6119 208C  
                                       l6047 1936                                         l6039 1900  
                                       l6143 22D0                                         l6311 13D4  
                                       l6303 138C                                         l7111 11B8  
                                       l7031 0FBE                                         l7023 0F8C  
                                       l7015 0F52                                         l7007 0EE6  
                                       l5505 1742                                         l6241 1DC4  
                                       l6233 1DAE                                         l6225 1D86  
                                       l6217 1D44                                         l6209 1D0E  
                                       l6049 1946                                         l6145 2306  
                                       l6137 22B6                                         l6161 2132  
                                       l6153 20E2                                         l5601 25DC  
                                       l6321 1428                                         l6313 13E0  
                                       l6305 1398                                         l7121 11F4  
                                       l7113 11C2                                         l7105 119E  
                                       l7041 1014                                         l7033 0FCE  
                                       l7025 0F94                                         l7017 0F5E  
                                       l7009 0EFA                                         l5515 182A  
                                       l5507 1764                                         l6251 2AAE  
                                       l6235 1DB0                                         l6227 1D96  
                                       l6219 1D50                                         l5531 1E7A  
                                       l6147 2308                                         l6139 22B6  
                                       l6171 2158                                         l6163 2134  
                                       l6155 20E2                                         l5603 2812  
                                       l5611 1F6E                                         l6331 149C  
                                       l6315 13F8                                         l6307 13B0  
                                       l7131 122C                                         l7123 1204  
                                       l7115 11CE                                         l7107 11AE  
                                       l7051 1044                                         l7043 1028  
                                       l7035 0FE2                                         l7027 0FA6  
                                       l7019 0F72                                         l7301 1712  
                                       l5517 1854                                         l5509 176C  
                                       l6245 2A94                                         l6237 1DB2  
                                       l6229 1DAA                                         l5541 2744  
                                       l5533 1EE4                                         l5525 1E60  
                                       l6149 231A                                         l6181 21BC  
                                       l6173 216A                                         l6165 2146  
                                       l6157 20F4                                         l5605 282C  
                                       l5621 1FC4                                         l5613 1F88  
                                       l5701 1B32                                         l6341 14F0  
                                       l6333 14A4                                         l6317 1404  
                                       l6309 13BC                                         l6325 1440  
                                       l6261 24D0                                         l7141 1256  
                                       l7133 123C                                         l7125 1214  
                                       l7109 11B6                                         l7061 1074  
                                       l7029 0FAE                                         l7037 0FF2  
                                       l5631 2480                                         l6191 23B2  
                                       l6247 2A94                                         l6239 1DC2  
                                       l5543 274C                                         l5527 1E60  
                                       l6175 2172                                         l6159 20FC  
                                       l6255 2AB0                                         l5607 2832  
                                       l5623 1FCA                                         l5615 1F8E  
                                       l5711 1B86                                         l5703 1B42  
                                       l6351 153E                                         l6343 1504  
                                       l6335 14B4                                         l6319 141C  
                                       l6327 148A                                         l6271 2542  
                                       l6263 24E4                                         l7143 126A  
                                       l7135 1244                                         l7119 11E2  
                                       l7151 129E                                         l7071 10A6  
                                       l7063 1084                                         l7055 1052  
                                       l7047 1036                                         l7039 1004  
                                       l5561 1628                                         l5553 15E8  
                                       l5633 24A2                                         l6193 23BE  
                                       l6185 239A                                         l6249 2AA6  
                                       l5545 2760                                         l5537 2732  
                                       l5529 1E72                                         l5641 2328  
                                       l6177 21A8                                         l6169 2158  
                                       l6281 266C                                         l6257 2AC4  
                                       l5609 284C                                         l5625 1FE4  
                                       l5617 1FA8                                         l5721 1E02  
                                       l5713 1DC6                                         l5705 1B72  
                                       l6361 1586                                         l6353 1548  
                                       l6345 1518                                         l6337 14CC  
                                       l6329 1490                                         l6273 255E  
                                       l6265 2504                                         l7153 12B0  
                                       l7145 1276                                         l7137 1246  
                                       l7081 10EC                                         l7073 10B0  
                                       l7065 108E                                         l7057 105C  
                                       l7161 132E                                         l6601 0204  
                                       l5563 168A                                         l5555 15EC  
                                       l5635 24A2                                         l5627 246E  
                                       l6195 23D8                                         l6187 239A  
                                       l5547 2768                                         l5539 2732  
                                       l5643 2328                                         l6179 21AA  
                                       l6283 2674                                         l5619 1FAA  
                                       l5731 1E48                                         l5723 1E20  
                                       l5715 1DC6                                         l5707 1B74  
                                       l6371 15D6                                         l6363 1596  
                                       l6355 155A                                         l6347 1520  
                                       l6339 14DC                                         l6291 1348  
                                       l6275 2562                                         l6267 2508  
                                       l7147 1286                                         l7139 1250  
                                       l7083 10FC                                         l7075 10B8  
                                       l6611 0258                                         l6603 0214  
                                       l5557 15FE                                         l5637 24AE  
                                       l5629 246E                                         l5901 19CE  
                                       l6197 23E4                                         l6189 23AC  
                                       l5549 277E                                         l5645 233A  
                                       l6285 2676                                         l6277 2636  
                                       l5733 1E4A                                         l5725 1E30  
                                       l5717 1DD8                                         l5661 22B2  
                                       l5653 2244                                         l5581 1C6C  
                                       l5709 1B84                                         l6365 15AA  
                                       l6357 1564                                         l6349 152C  
                                       l6293 1354                                         l6269 252E  
                                       l7093 1148                                         l7085 1110  
                                       l7077 10C8                                         l7069 109C  
                                       l6701 04E8                                         l6621 02A0  
                                       l6613 0264                                         l6605 0224  
                                       l5567 16E6                                         l5559 1620  
                                       l5911 1A8C                                         l5903 19F8  
                                       l6199 23F0                                         l5647 2342  
                                       l6287 2688                                         l6279 2642  
                                       l5743 2A78                                         l5735 1E4C  
                                       l5727 1E44                                         l5719 1DDE  
                                       l5655 2244                                         l5583 1C7E  
                                       l5671 1AC4                                         l6359 1574  
                                       l6367 15B6                                         l6295 1354  
                                       l7095 115A                                         l7087 111C  
                                       l7079 10DC                                         l7159 12C4  
                                       l6711 054C                                         l6703 04F8  
                                       l6631 02E6                                         l6623 02B0  
                                       l6607 0230                                         l6615 0268  
                                       l6551 0072                                         l5569 1728  
                                       l5905 1A26                                         l5921 290A  
                                       l5913 28CC                                         l5649 2396  
                                       l5745 2A78                                         l5593 2588  
                                       l5737 1E5C                                         l5729 1E46  
                                       l5841 2724                                         l5833 26E0  
                                       l5657 2256                                         l5761 1BB8  
                                       l5753 1B98                                         l5585 1CA0  
                                       l5577 1C56                                         l5673 1AC8  
                                       l5665 1A90                                         l6369 15C6  
                                       l6297 1354                                         l7097 116A  
                                       l7089 1134                                         l6801 0820  
                                       l6713 0552                                         l6705 050C  
                                       l6721 0574                                         l6641 0352  
                                       l6633 02FA                                         l6625 02C4  
                                       l6617 0278                                         l6609 0248  
                                       l6561 0082                                         l6553 0076  
                                       l5907 1A44                                         l5931 2962  
                                       l5923 2924                                         l5915 28E6  
                                       l5747 2A8A                                         l5595 25A2  
                                       l5739 1E5E                                         l5835 26EC  
                                       l5659 225E                                         l5763 1BD0  
                                       l5771 1C52                                         l5755 1B9C  
                                       l5587 1CA8                                         l5579 1C5A  
                                       l5691 1AF6                                         l5667 1AA0  
                                       l6299 1368                                         l5851 27E0  
                                       l5843 27CE                                         l7099 117A  
                                       l7291 0BBA                                         l6811 0874  
                                       l6803 0834                                         l6731 05C8  
                                       l6723 0584                                         l6715 0556  
                                       l6707 0534                                         l6651 03A6  
                                       l6643 0362                                         l6635 030E  
                                       l6627 02D0                                         l6619 0290  
                                       l6571 00D2                                         l6563 0086  
                                       l6555 007C                                         l6547 0012  
                                       l5909 1A54                                         l5933 2968  
                                       l5925 292A                                         l5917 28EC  
                                       l5941 26AE                                         l5749 2A92  
                                       l5597 25A4                                         l5837 2704  
                                       l5781 25E0                                         l5765 1BE8  
                                       l5757 1B9E                                         l5589 1D0A  
                                       l5693 1B0A                                         l5685 1AD0  
                                       l5669 1AB2                                         l5861 27EC  
                                       l5853 27E4                                         l5845 27CE  
                                       l7293 12D8                                         l6901 0B78  
                                       l6821 08D0                                         l6813 0888  
                                       l6805 085C                                         l6741 0622  
                                       l6733 05DC                                         l6725 0598  
                                       l6717 0558                                         l6709 0540  
                                       l6661 03F0                                         l6653 03B2  
                                       l6645 0372                                         l6637 032C  
                                       l6629 02D6                                         l6581 013E  
                                       l6573 00E2                                         l6565 008A  
                                       l6557 007E                                         l6549 0066  
                                       l5935 2982                                         l5927 2944  
                                       l5919 2906                                         l5943 26C2  
                                       l5951 200C                                         l5871 2998  
                                       l5599 25C2                                         l5839 271C  
                                       l5783 25F2                                         l5767 1C00  
                                       l5759 1BB0                                         l5687 1AE4  
                                       l5679 1ACC                                         l7295 1454  
                                       l5863 27F0                                         l5855 27E6  
                                       l5847 27D6                                         l6831 0924  
                                       l6823 08E0                                         l6815 089C  
                                       l6807 0860                                         l6751 0664  
                                       l6911 0BA6                                         l6735 05EE  
                                       l6727 05AC                                         l6719 0564  
                                       l6663 0400                                         l6647 037E  
                                       l6639 0340                                         l6655 03B6  
                                       l6591 01AA                                         l6583 0166  
                                       l6671 0444                                         l6575 00FE  
                                       l6567 009E                                         l6559 0080  
                               main@ShowMenu 00B2                                         l5929 2948  
                                       l5945 26DC                                         l5937 268C  
                                       l5961 2062                                         l5953 2026  
                                       l5881 29AA                                         l5873 299C  
                                       l5785 25F6                                         l7297 1C2C  
                                       l5769 1C18                                         l5689 1AE6  
                                       l5865 27F4                                         l5857 27E8  
                                       l5849 27DC                                         l6921 0C16  
                                       l6841 099A                                         l6833 0934  
                                       l6825 08F2                                         l6817 08B0  
                                       l6809 0864                                         l6761 06DA  
                                       l6753 0674                                         l6737 0600  
                                       l6745 063A                                         l6729 05C0  
                                       l6681 0478                                         l6913 0BD0  
                                       l6673 0454                                         l6665 0414  
                                       l6657 03C8                                         l6649 0396  
                                       l6593 01BE                                         l6585 0172  
                                       l6577 011A                                         l6569 00B2  
                                       l7299 183E                                         l5939 26A6  
                                       l5963 288E                                         l5955 2028  
                                       l5947 1FEC                                         l5971 2850  
                                       l5883 29AC                                         l5875 29A2  
                                       l5867 2986                                         l5787 2612  
                                       l5779 25E0                                         l5699 1B0E  
                                       l5859 27EA                                         l6931 0C86  
                                       l6923 0C2A                                         l6915 0BE2  
                                       l6907 0B8E                                         l6851 09F0  
                                       l6843 09AC                                         l6835 0948  
                                       l6827 0902                                         l6819 08C4  
                                       l6771 0730                                         l6763 06EC  
                                       l6755 0688                                         l6747 063E  
                                       l6739 0612                                         l6691 0498  
                                       l6683 0480                                         l6675 0458  
                                       l6667 0420                                         l6659 03E0  
                                       l6595 01C4                                         l6587 0182  
                                       l6579 012A                                         l5893 1978  
                                       l5965 28A8                                         l5957 2042  
                                       l5949 2006                                         l5973 286A  
                                       l5885 29AE                                         l5877 29A6  
                                       l5869 2986                                         l5789 2616  
                                       l5981 1EF0                                         l6941 0CC8  
                                       l6933 0C92                                         l6925 0C3C  
                                       l6917 0BF2                                         l6861 0A26  
                                       l6853 0A00                                         l6845 09BC  
                                       l6837 0970                                         l6829 090C  
                                       l6781 0766                                         l6773 0740  
                                       l6765 06FC                                         l6757 06B0  
                                       l6749 064E                                         l6693 04A4  
                                       l6685 0486                                         l6677 045C  
                                       l6669 0430                                         l6597 01DE  
                                       l6589 0196                                         l5895 1978  
                                       l5967 28AE                                         l5959 2048  
                                       l5975 2870                                         l5887 29B0  
                                       l5879 29A8                                         l5991 1F46  
                                       l5983 1F06                                         l6951 0D0C  
                                       l6943 0CDA                                         l6935 0CA6  
                                       l6927 0C54                                         l6919 0C02  
                                       l6871 0A94                                         l6863 0A3E  
                                       l6855 0A0C                                         l6847 09CC  
                                       l6839 0986                                         l6791 07D4  
                                       l6783 077E                                         l6775 074C  
                                       l6767 070C                                         l6759 06C6  
                                       l6695 04B4                                         l6687 048A  
                                       l6679 046C                                         l6599 01F2  
                                       l5897 1994                                         l5969 28C8  
                                       l5977 288A                                         l5889 29BC  
                                       l5985 1F16                                         l5993 1F5A  
                                       l6961 0D58                                         l6953 0D1E  
                                       l6945 0CE2                                         l6937 0CAE  
                                       l6929 0C66                                         l6881 0AE0  
                                       l6873 0AA8                                         l6865 0A66  
                                       l6849 09D8                                         l6857 0A10  
                                       l6793 07E8                                         l6785 07A6  
                                       l6769 0718                                         l6777 0750  
                                       l6697 04C8                                         l6689 048C  
                                       l5899 19B0                                         l5995 1F6A  
                                       l5987 1F2C                                         l5979 1EEA  
                                       l6971 0DB2                                         l6963 0D6C  
                                       l6955 0D30                                         l6947 0CF4  
                                       l6939 0CC0                                         l6891 0B20  
                                       l6875 0ABC                                         l6867 0A70  
                                       l6883 0AF4                                         l6859 0A22  
                                       l6795 07FC                                         l6787 07B0  
                                       l6779 0762                                         l6699 04D8  
                                       l5989 1F3E                                         l6981 0E2A  
                                       l6973 0DC2                                         l6957 0D38  
                                       l6949 0D04                                         l6965 0D7C  
                                       l6893 0B34                                         l6885 0AF8  
                                       l6877 0AC8                                         l6869 0A80  
                                       l6797 0808                                         l6789 07C0  
                                       l5999 2784                                         l6991 0E66  
                                       l6983 0E32                                         l6975 0DD6  
                                       l6967 0D8E                                         l6959 0D48  
                                       l6895 0B48                                         l6887 0AFC  
                                       l6879 0AD4                                         l6799 0814  
                                       l6993 0E78                                         l6985 0E44  
                                       l6977 0E0A                                         l6969 0D9E  
                                       l6897 0B5C                                         l6889 0B0C  
                                       l6995 0E80                                         l6987 0E4C  
                                       l6979 0E16                                         l6899 0B68  
                                       l6997 0E90                                         l6989 0E5E  
                                       l6999 0EA0                                         STR_1 FFFB  
                                       STR_4 FE49                                         STR_5 FF70  
                                       STR_6 FF16                                         STR_7 FFA9  
                                       STR_8 FE6B                                         STR_9 FF58  
                                       _LATA 000F89                                         _LATB 000F8A  
                                       _LATC 000F8B                                         _LATD 000F8C  
                                       _LATE 000F8D                                         u5000 288A  
                                       u5001 2886                                         u5010 1F06  
                                       u5011 1F02                                         u5020 1F16  
                                       u5021 1F12                                         u5030 1F2C  
                                       u5031 1F28                                         u4320 1742  
                                       u5200 20F4                                         u5040 1F3E  
                                       u6000 0F8C                                         u4321 173E  
                                       u5201 20F0                                         u5041 1F3A  
                                       u6001 0F88                                         u4330 1764  
                                       u5050 1F6A                                         u6010 0FA6  
                                       u4331 1760                                         u5051 1F66  
                                       u6011 0FA2                                         u4420 16FE  
                                       u4404 1648                                         u5220 216A  
                                       u5300 2688                                         u4500 282C  
                                       u5060 27A6                                         u6100 116A  
                                       u6020 0FBE                                         u4421 16F8  
                                       u4405 1644                                         u5221 2166  
                                       u5301 2684                                         u4501 2828  
                                       u5061 27A2                                         u6101 1166  
                                       u6021 0FBA                                         u4430 1700  
                                       u4414 16AA                                         u5150 2084  
                                       u4510 284C                                         u5070 27B4  
                                       u5310 14B4                                         u6110 11DE  
                                       u6030 1004                                         u4415 16A6  
                                       u5151 2080                                         u5215 2144  
                                       u4511 2848                                         u5071 27B0  
                                       u5311 14B0                                         u6111 11DA  
                                       u6031 1000                                         u4344 178C  
                                       u5240 23AC                                         u5160 20AE  
                                       u4360 1E72                                         u5080 186E  
                                       u4520 1F88                                         u4440 1C6C  
                                       u4600 1AB2                                         u5320 14DC  
                                       u6120 11F4                                         u6040 1014  
                                       u4345 1788                                         u5241 23A8  
                                       u5161 20AA                                         u4361 1E6E  
                                       u5081 186A                                         u5217 2146  
                                       u4521 1F84                                         u4441 1C68  
                                       u4601 1AAE                                         u5321 14D8  
                                       u6121 11F0                                         u6041 1010  
                                       u4354 17EE                                         u5250 1D20  
                                       u5170 20E0                                         u4370 2744  
                                       u5090 18C4                                         u4530 1FA8  
                                       u4450 1C7E                                         u4610 1AC4  
                                       u5330 153E                                         u6130 1204  
                                       u6050 1024                                         u4355 17EA  
                                       u5251 1D1C                                         u5171 20DC  
                                       u4371 2740                                         u5091 18C0  
                                       u5235 21BA                                         u4531 1FA4  
                                       u4451 1C7A                                         u4611 1AC0  
                                       u5331 153A                                         u6131 1200  
                                       u6051 1020                                         u4380 15FE  
                                       u5260 2AA6                                         u5180 22C8  
                                       u4540 1FC4                                         u4700 2634  
                                       u4460 1CA0                                         u4620 1AF6  
                                       u5340 155A                                         u6140 12B0  
                                       u6060 1070                                         u4381 15FA  
                                       u5261 2AA2                                         u5181 22C4  
                                       u5237 21BC                                         u4541 1FC0  
                                       u4701 2630                                         u4461 1C9C  
                                       u4621 1AF2                                         u5341 1556  
                                       u6141 12AC                                         u6061 106C  
                                       u4390 1620                                         u4550 1FE4  
                                       u4630 1B42                                         u5350 1574  
                                       u5270 252C                                         u6150 12C0  
                                       u6070 1084                                         u4391 161C  
                                       u6207 2762                                         u4551 1FE0  
                                       u4631 1B3E                                         u5351 1570  
                                       u5271 2528                                         u6151 12BC  
                                       u6071 1080                                         u4560 2480  
                                       u4800 1994                                         u4480 25A2  
                                       u4640 1B84                                         u5360 1586  
                                       u5280 2586                                         u6160 133E  
                                       u6080 1144                                         u5600 03C8  
                                       u4561 247C                                         u4801 1990  
                                       u4481 259E                                         u4641 1B80  
                                       u5361 1582                                         u5281 2582  
                                       u6161 133A                                         u6081 1140  
                                       u5601 03C4                                         u4570 24A2  
                                       u4810 19B0                                         u5290 266C  
                                       u4490 25DC                                         u4474 1CF6  
                                       u4650 1B96                                         u5370 15C6  
                                       u6090 115A                                         u5610 046C  
                                       u4571 249E                                         u4811 19AC  
                                       u5195 2318                                         u5291 2668  
                                       u4491 25D8                                         u4475 1CF2  
                                       u4651 1B92                                         u5371 15C2  
                                       u6091 1156                                         u5611 0468  
                                       u4820 19CE                                         u4900 2982  
                                       u4580 233A                                         u4660 1DD8  
                                       u5380 15D6                                         u5700 08F2  
                                       u5620 04E8                                         u4821 19CA  
                                       u4901 297E                                         u4581 2336  
                                       u5197 231A                                         u4661 1DD4  
                                       u5381 15D2                                         u5701 08EE  
                                       u5621 04E4                                         u4830 19EC  
                                       u4910 26A6                                         u4670 2A8A  
                                       u4750 2704                                         u4590 2256  
                                       u5390 15E6                                         u5710 091E  
                                       u5630 05EE                                         u5550 00FE  
                                       u4831 19E8                                         u4911 26A2  
                                       u4671 2A86                                         u4751 2700  
                                       u4591 2252                                         u5391 15E2  
                                       u5711 091A                                         u5631 05EA  
                                       u5551 00FA                                         u4840 1A44  
                                       u4920 26DC                                         u4760 271C  
                                       u4680 1BB0                                         u5800 0CA6  
                                       u5720 09AC                                         u5640 0600  
                                       u5560 011A                                         u4841 1A40  
                                       u4921 26D8                                         u6177 18CA  
                                       u4761 2718                                         u4681 1BAC  
                                       u5801 0CA2                                         u5721 09A8  
                                       u5641 05FC                                         u5561 0116  
                                       u4850 28E6                                         u4930 2006  
                                       u4690 25F2                                         u4770 2804  
                                       u5810 0CC0                                         u5730 0A22  
                                       u5650 0612                                         u5570 0204  
                                       u4851 28E2                                         u4931 2002  
                                       u6187 18E8                                         u4691 25EE  
                                       u4771 2800                                         u5811 0CBC  
                                       u5731 0A1E                                         u5651 060E  
                                       u5571 0200                                         u4860 2906  
                                       u4940 2026                                         u5900 0DAE  
                                       u5820 0CDA                                         u5740 0A66  
                                       u5660 06EC                                         u5580 0278  
                                       u4861 2902                                         u4941 2022  
                                       u6197 1902                                         u5901 0DAA  
                                       u5821 0CD6                                         u5741 0A62  
                                       u5661 06E8                                         u5581 0274  
                                       u4870 2924                                         u4950 2042  
                                       u4790 2998                                         u5910 0E2A  
                                       u5830 0CF4                                         u5750 0B8A  
                                       u5670 0762                                         u5590 0352  
                                       u4871 2920                                         u4951 203E  
                                       u4791 2994                                         u5911 0E26  
                                       u5831 0CF0                                         u5751 0B86  
                                       u5671 075E                                         u5591 034E  
                                       u4880 2944                                         u4960 2062  
                                       u5920 0E44                                         u5840 0D04  
                                       u5760 0BA2                                         u5680 07A6  
                                       u4881 2940                                         u4961 205E  
                                       u4785 280E                                         u5921 0E40  
                                       u5841 0D00                                         u5761 0B9E  
                                       u5681 07A2                                         u4890 2962  
                                       u4970 28A8                                         u4786 2810  
                                       u5930 0E5E                                         u5850 0D1E  
                                       u5770 0BE2                                         u5690 085C  
                                       u4891 295E                                         u4971 28A4  
                                       u5931 0E5A                                         u5851 0D1A  
                                       u5771 0BDE                                         u5691 0858  
                                       u4980 28C8                                         u5940 0E78  
                                       u5860 0D30                                         u5780 0C3C  
                                       u4981 28C4                                         u5941 0E74  
                                       u5861 0D2C                                         u5781 0C38  
                                       u4990 286A                                         u5950 0E90  
                                       u5870 0D48                                         u5790 0C66  
                                       u4991 2866                                         u5951 0E8C  
                                       u5871 0D44                                         u5791 0C62  
                                       u5960 0ED6                                         u5880 0D8E  
                                       u5961 0ED2                                         u5881 0D8A  
                                       u5970 0EE6                                         u5890 0D9E  
                                       u5971 0EE2                                         u5891 0D9A  
                                       u5980 0EF6                                         u5981 0EF2  
                                       u5990 0F72                                         u5991 0F6E  
                     ??_gpio_Pin_Write_Logic 0034                                         _main 0012  
                              main@Pass_1959 00A8                              __end_of_SPI_ISR 2AD8  
               gpio_Pin_Intialize@pin_config 003B                                         fsr2h 000FDA  
                                       indf2 000FDF                                         fsr1l 000FE1  
                                       fsr2l 000FD9                                         btemp 0068  
                     __end_of_led_initialize 2328                     __end_of_interruptManager 2244  
           u8GetPressedValue@u8LockeyPressed 0046                                         prodl 000FF3  
                                       start 000E                    __end_of_btn_keypad_values FE15  
                              ?_led_turn_off 003B                           main@PassTriesCount 00B0  
                               ___param_bank 000000        SPI_Select_mode_and_pin_initialize@ret 0042  
                      _lcd_4bit_send_command 2328                   __end_of_vReadBlockOnEEPROM 2588  
                                ?_TIMER0_ISR 002F                                  ?_TIMER1_ISR 002F  
               ??_SPI_Select_the_clock_phase 0033         eeprom_WriteDataByte@interrupt_status 0034  
                      _send_4bit_mode_enable 2732                                        ?_main 002F  
                                      _EEADR 000FA9                    _lcd_4bit_send_string_data 25E0  
                                      STR_10 FF88                                        STR_11 FE7B  
                                      STR_20 FF93                                        STR_12 FF64  
                                      STR_21 FF58                                        STR_13 FF88  
                                      STR_30 FFB4                                        STR_22 FF4B  
                                      STR_14 FEDB                                        STR_23 FF93  
                                      STR_31 FFBF                                        STR_15 FF08  
                                      STR_24 FFB4                                        STR_16 FECB  
                                      STR_40 FEAB                                        STR_32 FE8B  
                                      STR_41 FF7C                                        STR_25 FFBF  
                                      STR_17 FEFA                                        STR_33 FEEB  
                                      STR_50 FFEE                                        STR_26 FF9E  
                                      STR_42 FF3E                                        STR_34 FE9B  
                                      STR_18 FE5A                                        STR_27 FF64  
                                      STR_43 FF7C                                        STR_35 FF7C  
                                      STR_19 FF7C                                        STR_51 FF24  
                                      STR_28 FF4B                                        STR_44 FF7C  
                                      STR_52 FFF8                                        STR_36 FF31  
                                      STR_29 FF9E                                        STR_53 FFF4  
                                      STR_37 FEBB                                        STR_45 FE38  
                                      STR_38 FF7C                                        STR_46 FFCA  
                                      STR_54 FE27                                        STR_55 FF7C  
                                      STR_47 FFD3                                        STR_39 FE15  
                                      STR_48 FFDC                                        STR_49 FFE5  
                                      i2l271 2AD2                                        i2l610 2A28  
                                      i2l429 2238                                        i2l539 2AD6  
                                      i2l907 2ACC                                        i2l683 29F2  
                                      _TMR0H 000FD7                                        _TMR1H 000FCF  
                                      _TMR0L 000FD6                                        _TMR1L 000FCE  
                                      _PORTA 000F80                                        _PORTB 000F81  
                                      _PORTC 000F82                                        _PORTD 000F83  
                                      _PORTE 000F84                                        _TRISA 000F92  
                                      _TRISB 000F93                                        _TRISC 000F94  
                                      _TRISD 000F95                                        _TRISE 000F96  
                          Timer0_Init@_timer 0034                Timer0_prescaler_selcet@_timer 0031  
                      ?_set_cursor_4bit_mode 0043                            ??_Timer0Interrupt 002F  
                   __end_of_keypad_get_value 1B98               keypad_initialize@keypad_colums 0044  
             gpio_Pin_Write_Logic@pin_config 0031                        __end_of_Timer1Handler 2ACE  
                      __end_of_Timer0_DeInit 2A94                        __end_of_Timer1_DeInit 2AB0  
                           __end_of_SPI_Init 240C              __end_of_Timer0_prescaler_selcet 25E0  
   SPI_Select_mode_and_pin_initialize@M_MISO 0044                   __end_of_gpio_Pin_Intialize 24D0  
   SPI_Select_mode_and_pin_initialize@M_MOSI 0043                                        pclath 000FFA  
                                      pclatu 000FFB                                        tablat 000FF5  
  __end_of_SPI_Select_the_Sampling_receiving 2986          ??_SPI_Select_the_Sampling_receiving 0033  
         ?_SPI_Select_the_Sampling_receiving 0031            _SPI_Select_the_Sampling_receiving 2948  
   SPI_Select_mode_and_pin_initialize@S_MISO 0047     SPI_Select_mode_and_pin_initialize@S_MOSI 0046  
                                      ttemp5 0069                                        ttemp6 006C  
                                      ttemp7 0070                                        status 000FD8  
                                      wtemp8 0069                            _u8GetPressedValue 1EE8  
                    set_cursor_4bit_mode@ret 0049                              ?_led_initialize 003F  
                    set_cursor_4bit_mode@row 0045                               ??_led_turn_off 003D  
                   ??_timer1_select_reg_mode 0033                           ?_u8GetPressedValue 002F  
               keypad_initialize@keypad_rows 0043                               main@PassStored 00A4  
                            __initialization 240C                                 __end_of_main 1346  
                                _FlagTimeOut 0063                          ??_u8GetPressedValue 0045  
                                 _Keypad_Obj 0012        gpio_Pin_Derction_Intialize@pin_config 0031  
                              _lat_registers 0001                                  _HandelerSPI 005F  
                                     ??_main 0053                    lcd_4bit_send_command@_lcd 003F  
                              __activetblptr 000003                             led_turn_on@F3052 0066  
                          Timer1_Init@_timer 0033                  __end_of_send_data_4bit_mode 1EE8  
                                  ??_SPI_ISR 002F                                       _EEADRH 000FAA  
                                     _EEDATA 000FA8                                       _EECON2 000FA7  
                   u8ComparePass@PassCounter 0039                    __end_of_u8GetPressedValue 1F6E  
                                     i2l2053 2ACE                                       i2l2401 29F4  
                                     i2l2225 2AC8                                       i2l2403 29F6  
                                     i2l2411 29BE                                       i2l2421 2AD4  
                                     i2l2405 29FA                                       i2l2413 29C0  
                                     i2l2407 29FE                                       i2l2415 29C4  
                                     i2l2409 2A10                                       i2l2417 29C8  
                                     i2l2419 29DA                                       i2l2941 21E6  
                                     i2l2951 2218                                       i2l2943 21F4  
                                     i2l2953 2226                                       i2l2945 21F8  
                                     i2l2955 2234                                       i2l2947 2206  
                                     i2l2939 21D8                                       i2l2949 2214  
                                     _SSPBUF 000FC9                    keypad_get_value@l_counter 0042  
                   vMenuOption@u8TurnoffCode 0050                                ??_Timer0_Init 0036  
                              ??_Timer1_Init 0035                  __end_of_u8SpiTranmitRecieve 27CE  
              gpio_Pin_Read_Logic@pin_config 0031                        __end_of_u8ComparePass 268C  
                     ?_lcd_4bit_send_command 003F          __end_of_gpio_Pin_Derction_Intialize 172C  
                _gpio_Pin_Derction_Intialize 15E8                                   _TimerDelay 0020  
                __end_of_gpio_Pin_Read_Logic 1D0E                       ?_send_4bit_mode_enable 003B  
  Timer0_mode_timer_or_counter_selcet@_timer 0031                                       clear_0 2452  
                                     clear_1 245E                                       isa$std 000001  
                            _u16DelayCounter 0061                                 __pdataCOMRAM 0001  
                     ??_set_cursor_4bit_mode 0047                                 __mediumconst FE04  
                                     tblptrh 000FF7                                       tblptrl 000FF6  
                                     tblptru 000FF8                     set_cursor_4bit_mode@_lcd 0043  
                            main@PassCounter 00B1                     _timer1_oscillator_enable 288E  
    SPI_Select_mode_and_pin_initialize@F3110 000F      SPI_Select_mode_and_pin_initialize@F3112 000E  
    SPI_Select_mode_and_pin_initialize@F3106 0011      SPI_Select_mode_and_pin_initialize@F3114 000D  
    SPI_Select_mode_and_pin_initialize@F3108 0010      SPI_Select_mode_and_pin_initialize@F3116 000C  
    SPI_Select_mode_and_pin_initialize@F3118 000B                                   __accesstop 0080  
                    __end_of__initialization 2464                                ___rparam_used 000001  
                          led_initialize@led 003F                      _lcd_4bit_send_char_data 2244  
                             __pcstackCOMRAM 002F           __end_of_SPI_Select_the_clock_phase 2948  
                 _SPI_Select_the_clock_phase 290A                                 __pidataBANK0 2A58  
                          main@BlockModeFlag 00AE                       send_data_4bit_mode@ret 003E  
                        __end_of_Timer0_Init 1E60               ?_SPI_Select_the_clock_polarity 0031  
                        __end_of_Timer1_Init 1DC6                                    ?_SPI_Init 004A  
                   lcd_4bit_send_command@ret 0042                         __end_of_led_turn_off 21CE  
                    gpio_Pin_Write_Logic@ret 003A                          Timer0_DeInit@_timer 0031  
                        _eeprom_ReadDataByte 2986                                   __pbssBANK0 00B6  
                          ?_interruptManager 002F                           ??_interruptManager 002F  
                        _vWriteBlockOnEEPROM 24D0                         ?_eeprom_ReadDataByte 0031  
                          led_turn_off@F3057 0065                                 ??_TIMER0_ISR 002F  
                               ??_TIMER1_ISR 002F               vReadBlockOnEEPROM@LOC_Iterator 003D  
                            _Timer0Interrupt 2ACE                              main@Temperature 00AF  
                                 ??_SPI_Init 004C               gpio_Pin_Derction_Intialize@ret 0039  
                     _timer1_select_reg_mode 2850               timer1_oscillator_enable@_timer 0031  
                       led_turn_toggle@F3062 0064                           _vReadBlockOnEEPROM 252E  
                                    i2u93_40 2A10                                      i2u93_41 2A0C  
                                    i2u94_48 2A16                                      i2u95_40 29DA  
                                    i2u94_49 2A28                                      i2u95_41 29D6  
                                    i2u96_48 29E0                                      i2u96_49 29F2  
                          ?_keypad_get_value 003B                         ?_vWriteBlockOnEEPROM 0035  
                                    _SPI_ISR 2AD4                             ??_led_initialize 0041  
                            main@u8LoginMode 00B4                           ??_keypad_get_value 003F  
          __end_of_lcd_4bit_send_string_data 2636                               __TimerDelay_ms 26E0  
                        ?_vReadBlockOnEEPROM 0035                               _tris_registers 008A  
                         __end_of_TIMER0_ISR 2A2A                           __end_of_TIMER1_ISR 29F4  
                                    _Lcd_Obj 001A                    ??_lcd_4bit_send_char_data 0042  
                                  _ADMIN_Led 002E                        u8ComparePass@PassFlag 0038  
                                    __Hparam 0000                 ?_SPI_configure_the_interrupt 0031  
                                _Timer0_Init 1DC6                                  _Timer1_Init 1D0E  
                                    __Lparam 0000                        ??_eeprom_ReadDataByte 0035  
                         _gpio_Pin_Intialize 246E    Timer0_mode_of_register_size_selcet@_timer 0031  
                                  _BLOCK_Led 002C                         ??_vReadBlockOnEEPROM 003A  
                                    __pcinit 240C                                      __ramtop 1000  
                                    __ptext0 0012                                      __ptext1 24D0  
                                    __ptext2 27CE                                      __ptext3 252E  
                                    __ptext4 1346                                      __ptext5 2782  
                                    __ptext6 1EE8                                      __ptext7 1A90  
                                    __ptext8 1C56                                      __ptext9 1B98  
                        ?_gpio_Pin_Intialize 003B                                    _T0CONbits 000FD5  
                                  _T1CONbits 000FCD                           u8ComparePass@Pass1 0031  
                         u8ComparePass@Pass2 0033                               _SessionCounter 0055  
           keypad_get_value@column_logic_pin 0041                        ??_vWriteBlockOnEEPROM 003A  
                     __end_of__TimerDelay_ms 2732                               __pintcode_body 21CE  
                       end_of_initialization 2464                                    _GUEST_Led 002D  
                                    int_func 21CE                         ??_gpio_Pin_Intialize 003D  
                    eeprom_ReadDataByte@badd 0031                      eeprom_ReadDataByte@data 0033  
                    ??_lcd_4bit_send_command 0042                      __end_of_Timer0Interrupt 2AD4  
                   send_4bit_mode_enable@ret 003D                      ??_send_4bit_mode_enable 003D  
              ??_SPI_configure_the_interrupt 0033                                      postdec1 000FE5  
                                    postdec2 000FDD                                      postinc0 000FEE  
                                    postinc1 000FE6                                      postinc2 000FDE  
                    vWriteBlockOnEEPROM@Pass 0037                      vWriteBlockOnEEPROM@Size 0039  
                           fp__Timer1Handler 0000                      _Timer0_prescaler_selcet 2588  
                        _lcd_4bit_initialize 1858              __end_of_lcd_4bit_send_char_data 22B6  
                    vMenuOption@u8LonginMode 004A                   lcd_4bit_send_char_data@ret 0042  
                 ??_timer1_oscillator_enable 0033                                    _SPIObject 00BC  
      SPI_Select_the_clock_polarity@_spi_obj 0031                              ?__TimerDelay_ms 0038  
                       ?_lcd_4bit_initialize 0043                    send_4bit_mode_enable@_lcd 003B  
                    _TIMER0_interruptHandler 005D                                 _led_turn_off 2158  
                ?_SPI_Select_the_clock_phase 0031                        keypad_get_value@value 003D  
                              ??_vMenuOption 004B                                __pidataCOMRAM 2A2A  
                    send_data_4bit_mode@_lcd 003B                      send_data_4bit_mode@data 003D  
               keypad_get_value@counter_rows 0043                      vMenuOption@u8StatusCode 0051  
                        start_initialization 240C                                ??_led_turn_on 003D  
               __end_of_eeprom_WriteDataByte 2812                          Timer1_DeInit@_timer 0031  
            ??_SPI_Select_the_clock_polarity 0033                    vMenuOption@u8SelectedRoom 004D  
                              _Timer1Handler 2AC8                        ??_lcd_4bit_initialize 0045  
                              _Timer0_DeInit 2A78                      vMenuOption@u8TurnOnCode 004F  
                              _Timer1_DeInit 2A94                              led_turn_off@led 003B  
                           ?_Timer0Interrupt 002F                                    _Timer1Obj 0026  
        SPI_configure_the_interrupt@_spi_obj 0031                    ??_Timer0_prescaler_selcet 0033  
                          _PIN_SelectChannel 002B                                  __pdataBANK0 0080  
                        _u8PassIsSetOrNotSet 2AB0                      ?_timer1_select_reg_mode 0031  
               lcd_4bit_send_command@command 0041                        gpio_Pin_Intialize@ret 003E  
                                __pbssCOMRAM 0055                                __pcstackBANK0 00A0  
                        __end_of_vMenuOption 15E8                                     ?_SPI_ISR 002F  
                             ?_Timer1Handler 002F                               ?_Timer0_DeInit 0031  
                             _preload_timer1 0057                               ?_Timer1_DeInit 0031  
                       ?_u8PassIsSetOrNotSet 0035                          __end_of_led_turn_on 2158  
                               ?_Timer0_Init 0034                                 ?_Timer1_Init 0033  
                              _u8ComparePass 2636                lcd_4bit_send_string_data@_lcd 0043  
                                  __pintcode 0008                                __pmediumconst FE04  
             __end_of_timer1_select_reg_mode 288E                      _TIMER1_interruptHandler 0059  
               __end_of_gpio_Pin_Write_Logic 1858            lcd_convert_uint16_to_string@F3197 00B6  
           __end_of_timer1_oscillator_enable 28CC  __end_of_Timer0_mode_of_register_size_selcet 2850  
      ??_Timer0_mode_of_register_size_selcet 0033         ?_Timer0_mode_of_register_size_selcet 0031  
        _Timer0_mode_of_register_size_selcet 2812                          main@u8KeyPadPressed 00B5  
 __end_of_SPI_Select_mode_and_pin_initialize 1A90         ??_SPI_Select_mode_and_pin_initialize 0041  
        ?_SPI_Select_mode_and_pin_initialize 003F           _SPI_Select_mode_and_pin_initialize 1978  
                      ??_u8PassIsSetOrNotSet 0037                      vMenuOption@u8keyPressed 0052  
                          u8ComparePass@Size 0035                       led_turn_off@pin_config 003E  
                   led_initialize@pin_config 0042   SPI_Select_mode_and_pin_initialize@_spi_obj 003F  
                 ?_lcd_4bit_send_string_data 0043        __end_of_SPI_Select_the_clock_polarity 290A  
              _SPI_Select_the_clock_polarity 28CC                  __TimerDelay_ms@u16CopyDelay 0038  
                __end_of_eeprom_ReadDataByte 29BE                                     _PIE1bits 000F9D  
                u8SpiTranmitRecieve@Loc_Data 003C                __end_of_lcd_4bit_send_command 239A  
                                   i2u152_40 21E6                                     i2u152_41 21E2  
                                   i2u153_40 21F4                                     i2u153_41 21F0  
                                   i2u154_40 2206                                     i2u154_41 2202  
                                   i2u155_40 2214                                     i2u155_41 2210  
                                   i2u156_40 2226                                     i2u156_41 2222  
                                   i2u157_40 2234                                     i2u157_41 2230  
                             ?_u8ComparePass 0031                                     _PIR1bits 000F9E  
                                  main@F3273 009C                         _eeprom_WriteDataByte 27CE  
                                  main@F3277 0098                                    main@F3279 0094  
              __end_of_send_4bit_mode_enable 2782                     eeprom_WriteDataByte@badd 0031  
               ?_gpio_Pin_Derction_Intialize 0031                     eeprom_WriteDataByte@data 0033  
                 set_cursor_4bit_mode@column 0046                          _send_data_4bit_mode 1E60  
                                   _SPI_Init 239A                                  _vMenuOption 1346  
                                 _ADCON1bits 000FC1                  __end_of_vWriteBlockOnEEPROM 252E  
__end_of_timer1_select_mode_timer_or_counter 206A        ??_timer1_select_mode_timer_or_counter 0033  
       ?_timer1_select_mode_timer_or_counter 0031          _timer1_select_mode_timer_or_counter 1FEC  
                           ??__TimerDelay_ms 003A                                  _led_turn_on 20E2  
                            ??_Timer1Handler 002F                              ??_Timer0_DeInit 0033  
                            ??_Timer1_DeInit 0033                     ?_lcd_4bit_send_char_data 003F  
                                  copy_data0 2420                                    copy_data1 2440  
                          _keypad_initialize 206A                         ?_send_data_4bit_mode 003B  
                        _u8SpiTranmitRecieve 2782                           ?_keypad_initialize 003F  
                  gpio_Pin_Write_Logic@logic 0033                         main@PassCounter_1957 00B3  
                                 _EECON1bits 000FA6                          _gpio_Pin_Read_Logic 1C56  
             keypad_get_value@counter_colums 0044                               led_turn_on@led 003B  
                                   __Hrparam 0000         vReadBlockOnEEPROM@u16TheStartAddress 0035  
      vWriteBlockOnEEPROM@u16TheStartAddress 0035                                     __Lrparam 0000  
                      ?_eeprom_WriteDataByte 0031                          ??_keypad_initialize 0041  
  SPI_Select_mode_and_pin_initialize@M_CLOCK 0045                         ?_u8SpiTranmitRecieve 002F  
              ??_gpio_Pin_Derction_Intialize 0033    SPI_Select_mode_and_pin_initialize@S_CLOCK 0048  
                              _preload_timer 005B                             _interruptManager 0008  
                keypad_get_value@_keypad_obj 003B                         ?_gpio_Pin_Read_Logic 0031  
         SPI_Select_the_clock_phase@_spi_obj 0031                    __end_of_keypad_initialize 20E2  
                                   __ptext10 25E0                                     __ptext11 2244  
                                   __ptext20 2636                                     __ptext12 26E0  
                                   __ptext21 20E2                                     __ptext13 1DC6  
                                   __ptext30 2850                                     __ptext22 2158  
                                   __ptext14 2588                                     __ptext31 1FEC  
                                   __ptext23 22B6                                     __ptext15 1F6E  
                                   __ptext40 246E                                     __ptext32 288E  
                                   __ptext24 1858                                     __ptext16 2812  
                                   __ptext41 172C                                     __ptext33 2A94  
                                   __ptext25 2328                                     __ptext17 2A78  
                                   __ptext42 15E8                                     __ptext34 239A  
                                   __ptext26 1E60                                     __ptext18 2AB0  
                                   __ptext35 268C                                     __ptext27 2732  
                                   __ptext19 2986                                     __ptext44 29BE  
                                   __ptext36 28CC                                     __ptext28 206A  
                                   __ptext45 2AC8                                     __ptext37 290A  
                                   __ptext29 1D0E                                     __ptext46 29F4  
                                   __ptext38 2948                                     __ptext47 2ACE  
                                   __ptext39 1978                                     __ptext48 2AD4  
                                   __ptext49 0000                        ??_send_data_4bit_mode 003E  
                            ??_u8ComparePass 0036                         _gpio_Pin_Write_Logic 172C  
        __end_of_SPI_configure_the_interrupt 26E0                  _SPI_configure_the_interrupt 268C  
                      led_turn_on@pin_config 003E                    ?_timer1_oscillator_enable 0031  
               __end_of_set_cursor_4bit_mode 1C56                             _keypad_get_value 1A90  
__end_of_Timer0_mode_timer_or_counter_selcet 1FEC        ??_Timer0_mode_timer_or_counter_selcet 0033  
       ?_Timer0_mode_timer_or_counter_selcet 0031          _Timer0_mode_timer_or_counter_selcet 1F6E  
                                   isa$xinst 000000                 lcd_4bit_initialize@l_counter 0047  
                                   int$flags 0068                                     main@Pass 00A0  
                      ??_u8SpiTranmitRecieve 003B                        vMenuOption@u8Response 004E  
               timer1_select_reg_mode@_timer 0031                        ??_gpio_Pin_Read_Logic 0035  
                  u8SpiTranmitRecieve@u8Data 003B                                   _INTCONbits 000FF2  
                __end_of_lcd_4bit_initialize 1978              vWriteBlockOnEEPROM@LOC_Iterator 003D  
                                   intlevel2 0000                        ?_gpio_Pin_Write_Logic 0031  
               keypad_initialize@_keypad_obj 003F                       ??_eeprom_WriteDataByte 0034  
                   gpio_Pin_Read_Logic@logic 0033                   u8PassIsSetOrNotSet@Address 0035  
                                 _TIMER0_ISR 29F4                                   _TIMER1_ISR 29BE  
                         fp__Timer0Interrupt 0000              u8PassIsSetOrNotSet@u8LocDataAdd 0037  
                             _port_registers 0080                                  _SSPCON1bits 000FC6  
  timer1_select_mode_timer_or_counter@_timer 0031                       gpio_Pin_Read_Logic@ret 003A  
                lcd_4bit_send_char_data@_lcd 003F                  lcd_4bit_send_char_data@data 0041  
                ??_lcd_4bit_send_string_data 0047                     ?_Timer0_prescaler_selcet 0031  
                    lcd_4bit_initialize@_lcd 0043                               _led_initialize 22B6  
                     lcd_4bit_initialize@ret 0048                 u8GetPressedValue@u8LoginMode 0045  
